
build/a3700/release/bl31/bl31.elf:     file format elf64-littleaarch64
build/a3700/release/bl31/bl31.elf
architecture: aarch64, flags 0x00000112:
EXEC_P, HAS_SYMS, D_PAGED
start address 0x0000000004023000

Program Header:
    LOAD off    0x0000000000000000 vaddr 0x0000000004020000 paddr 0x0000000004020000 align 2**16
         filesz 0x000000000000a2a0 memsz 0x0000000000010000 flags rwx
   STACK off    0x0000000000000000 vaddr 0x0000000000000000 paddr 0x0000000000000000 align 2**4
         filesz 0x0000000000000000 memsz 0x0000000000000000 flags rw-
private flags = 0:

Sections:
Idx Name          Size      VMA               LMA               File off  Algn
  0 ro            00007000  0000000004023000  0000000004023000  00003000  2**11
                  CONTENTS, ALLOC, LOAD, READONLY, CODE
  1 .data         000002a0  000000000402a000  000000000402a000  0000a000  2**3
                  CONTENTS, ALLOC, LOAD, DATA
  2 stacks        00000800  000000000402a2c0  000000000402a2c0  0000a2a0  2**6
                  ALLOC
  3 .bss          00000f00  000000000402aac0  000000000402aac0  0000a2a0  2**6
                  ALLOC
  4 xlat_table    00004000  000000000402c000  000000000402c000  0000a2a0  2**12
                  ALLOC
  5 .comment      0000002f  0000000000000000  0000000000000000  0000a2a0  2**0
                  CONTENTS, READONLY
SYMBOL TABLE:
0000000004023000 l    d  ro	0000000000000000 ro
000000000402a000 l    d  .data	0000000000000000 .data
000000000402a2c0 l    d  stacks	0000000000000000 stacks
000000000402aac0 l    d  .bss	0000000000000000 .bss
000000000402c000 l    d  xlat_table	0000000000000000 xlat_table
0000000000000000 l    d  .comment	0000000000000000 .comment
0000000000000000 l    df *ABS*	0000000000000000 ./build/a3700/release/bl31/bl31_entrypoint.o
0000000000000000 l    df *ABS*	0000000000000000 plat_pm.c
0000000004023120 l     F ro	0000000000000090 a3700_pm_ack_irq
0000000004023234 l     F ro	0000000000000018 a3700_system_off
0000000004023630 l     F ro	0000000000000034 a3700_system_reset
0000000004023664 l     F ro	0000000000000088 a3700_pm_en_nb_gpio
0000000000000000 l    df *ABS*	0000000000000000 a3700_dram_cs.c
0000000004028668 l     O ro	00000000000000c0 dram_cs_addr_len_to_size_map
0000000000000000 l    df *ABS*	0000000000000000 dram_win.c
0000000000000000 l    df *ABS*	0000000000000000 io_addr_dec.c
0000000004023a30 l     F ro	0000000000000090 set_io_addr_dec_win
0000000000000000 l    df *ABS*	0000000000000000 marvell_plat_config.c
0000000000000000 l    df *ABS*	0000000000000000 plat_bl31_setup.c
0000000000000000 l    df *ABS*	0000000000000000 sys_info.c
0000000000000000 l    df *ABS*	0000000000000000 marvell_gicv3.c
00000000040287d0 l     O ro	000000000000001c g0_interrupt_array
00000000040287f0 l     O ro	0000000000000008 g1s_interrupt_array
000000000402aac0 l     O .bss	0000000000000010 rdistif_base_addrs
0000000000000000 l    df *ABS*	0000000000000000 gic_common.c
0000000000000000 l    df *ABS*	0000000000000000 gicv3_main.c
000000000402aad0 l     O .bss	0000000000000600 spi_state
000000000402b0d0 l     O .bss	0000000000000020 ppi_state_arr
0000000000000000 l    df *ABS*	0000000000000000 gicv3_helpers.c
0000000000000000 l    df *ABS*	0000000000000000 plat_gicv3.c
0000000004028838 l     O ro	0000000000000004 CSWTCH.5
0000000000000000 l    df *ABS*	0000000000000000 cci.c
000000000402b0f0 l     O .bss	0000000000000008 g_cci_base
000000000402b0f8 l     O .bss	0000000000000008 g_cci_slave_if_map
0000000000000000 l    df *ABS*	0000000000000000 pm_src.c
000000000402a258 l     O .data	0000000000000034 wake_up_src_cfg
0000000000000000 l    df *ABS*	0000000000000000 marvell_bl31_setup.c
000000000402b100 l     O .bss	0000000000000058 bl32_image_ep_info
000000000402b158 l     O .bss	0000000000000058 bl33_image_ep_info
0000000000000000 l    df *ABS*	0000000000000000 marvell_pm.c
0000000000000000 l    df *ABS*	0000000000000000 marvell_topology.c
0000000000000000 l    df *ABS*	0000000000000000 plat_psci_common.c
0000000000000000 l    df *ABS*	0000000000000000 plat_delay_timer.c
0000000004024a90 l     F ro	000000000000000c plat_get_timer_value
0000000004028840 l     O ro	0000000000000010 plat_timer_ops
0000000000000000 l    df *ABS*	0000000000000000 delay_timer.c
000000000402b1b0 l     O .bss	0000000000000008 ops
0000000000000000 l    df *ABS*	0000000000000000 bl31_main.c
000000000402b1b8 l     O .bss	0000000000000008 bl32_init
000000000402a290 l     O .data	0000000000000004 next_image_type
00000000040288c0 l     O ro	0000000000000010 psci_args.2428
0000000000000000 l    df *ABS*	0000000000000000 interrupt_mgmt.c
000000000402b1c0 l     O .bss	0000000000000048 intr_type_descs
0000000000000000 l    df *ABS*	0000000000000000 bl31_context_mgmt.c
0000000000000000 l    df *ABS*	0000000000000000 runtime_svc.c
000000000402b208 l     O .bss	0000000000000008 rt_svc_descs
0000000000000000 l    df *ABS*	0000000000000000 std_svc_setup.c
0000000004024d6c l     F ro	0000000000000018 std_svc_setup
0000000004028b90 l     O ro	0000000000000020 __svc_desc_std_svc
0000000004028938 l     O ro	0000000000000010 arm_svc_uid
0000000000000000 l    df *ABS*	0000000000000000 context_mgmt.c
0000000004024e28 l     F ro	00000000000000fc cm_init_context_common
0000000000000000 l    df *ABS*	0000000000000000 psci_off.c
0000000000000000 l    df *ABS*	0000000000000000 psci_on.c
0000000000000000 l    df *ABS*	0000000000000000 psci_suspend.c
0000000000000000 l    df *ABS*	0000000000000000 psci_common.c
000000000402b210 l     O .bss	0000000000000002 psci_req_local_pwr_states
0000000000000000 l    df *ABS*	0000000000000000 psci_main.c
0000000000000000 l    df *ABS*	0000000000000000 psci_setup.c
000000000402b220 l     O .bss	0000000000000420 psci_ns_context
0000000000000000 l    df *ABS*	0000000000000000 psci_system_off.c
0000000000000000 l    df *ABS*	0000000000000000 bakery_lock_normal.c
0000000000000000 l    df *ABS*	0000000000000000 bl_common.c
0000000000000000 l    df *ABS*	0000000000000000 tf_printf.c
00000000040264dc l     F ro	0000000000000074 unsigned_num_print
0000000000000000 l    df *ABS*	0000000000000000 mem.c
0000000000000000 l    df *ABS*	0000000000000000 printf.c
0000000000000000 l    df *ABS*	0000000000000000 putchar.c
0000000000000000 l    df *ABS*	0000000000000000 strlen.c
0000000000000000 l    df *ABS*	0000000000000000 subr_prf.c
00000000040269b4 l     F ro	000000000000002c snprintf_func
00000000040269e0 l     F ro	0000000000000ddc kvprintf
0000000004028ab0 l     O ro	0000000000000025 hex2ascii_data
0000000000000000 l    df *ABS*	0000000000000000 marvell_cci.c
0000000004028b70 l     O ro	0000000000000008 cci_map
0000000000000000 l    df *ABS*	0000000000000000 xlat_tables_common.c
0000000004027838 l     F ro	00000000000001e0 init_xlation_table_inner
000000000402b640 l     O .bss	0000000000000100 mmap
000000000402c000 l     O xlat_table	0000000000004000 xlat_tables
000000000402b740 l     O .bss	0000000000000008 xlat_max_va
000000000402b748 l     O .bss	0000000000000008 xlat_max_pa
000000000402b750 l     O .bss	0000000000000004 next_xlat
0000000000000000 l    df *ABS*	0000000000000000 xlat_tables.c
000000000402b758 l     O .bss	0000000000000008 tcr_ps_bits
000000000402b760 l     O .bss	0000000000000020 base_xlation_table
0000000000000000 l    df *ABS*	0000000000000000 marvell_common.c
0000000000000000 l    df *ABS*	0000000000000000 plat_common.c
0000000000000000 l    df *ABS*	0000000000000000 ./build/a3700/release/bl31/cortex_a53.o
0000000000000000 l       *ABS*	0000000000000000 CPU_MIDR
0000000000000008 l       *ABS*	0000000000000000 CPU_RESET_FUNC
0000000000000010 l       *ABS*	0000000000000000 CPU_PWR_DWN_CORE
0000000000000018 l       *ABS*	0000000000000000 CPU_PWR_DWN_CLUSTER
0000000000000020 l       *ABS*	0000000000000000 CPU_OPS_SIZE
0000000004027cd8 l     F ro	0000000000000014 cortex_a53_disable_dcache
0000000004027cec l     F ro	0000000000000018 cortex_a53_disable_smp
0000000004027d04 l     F ro	000000000000001c a53_disable_non_temporal_hint
0000000004027d10 l       ro	0000000000000000 disable_hint
0000000004027d20 l     F ro	000000000000002c cortex_a53_reset_func
0000000004027d4c l     F ro	0000000000000018 cortex_a53_core_pwr_dwn
0000000004027d64 l     F ro	0000000000000024 cortex_a53_cluster_pwr_dwn
0000000000000000 l    df *ABS*	0000000000000000 ./build/a3700/release/bl31/platform_mp_stack.o
000000000402a2c0 l       stacks	0000000000000000 platform_normal_stacks
0000000000000006 l       *ABS*	0000000000000000 TZ_COUNT
0000000000000000 l    df *ABS*	0000000000000000 ./build/a3700/release/bl31/runtime_exceptions.o
0000000004029000 l       ro	0000000000000000 sync_exception_sp_el0
0000000004029080 l       ro	0000000000000000 irq_sp_el0
0000000004029100 l       ro	0000000000000000 fiq_sp_el0
0000000004029180 l       ro	0000000000000000 serror_sp_el0
0000000004029200 l       ro	0000000000000000 sync_exception_sp_elx
0000000004029280 l       ro	0000000000000000 irq_sp_elx
0000000004029300 l       ro	0000000000000000 fiq_sp_elx
0000000004029380 l       ro	0000000000000000 serror_sp_elx
0000000004029400 l       ro	0000000000000000 sync_exception_aarch64
0000000004027db8 l       ro	0000000000000000 smc_handler32
0000000004027dd0 l       ro	0000000000000000 smc_handler64
0000000004029480 l       ro	0000000000000000 irq_aarch64
00000000040294d8 l       ro	0000000000000000 interrupt_exit_irq_aarch64
0000000004029500 l       ro	0000000000000000 fiq_aarch64
0000000004029558 l       ro	0000000000000000 interrupt_exit_fiq_aarch64
0000000004029580 l       ro	0000000000000000 serror_aarch64
0000000004029600 l       ro	0000000000000000 sync_exception_aarch32
0000000004029680 l       ro	0000000000000000 irq_aarch32
00000000040296d8 l       ro	0000000000000000 interrupt_exit_irq_aarch32
0000000004029700 l       ro	0000000000000000 fiq_aarch32
0000000004029758 l       ro	0000000000000000 interrupt_exit_fiq_aarch32
0000000004029780 l       ro	0000000000000000 serror_aarch32
0000000004027db8 l     F ro	00000000000000b4 smc_handler
0000000004027e58 l       ro	0000000000000000 smc_prohibited
0000000004027e50 l       ro	0000000000000000 smc_unknown
0000000004027e64 l       ro	0000000000000000 rt_svc_fw_critical_error
0000000000000000 l    df *ABS*	0000000000000000 ./build/a3700/release/bl31/crash_reporting.o
0000000000000000 l    df *ABS*	0000000000000000 ./build/a3700/release/bl31/cpu_data.o
0000000000000000 l    df *ABS*	0000000000000000 ./build/a3700/release/bl31/cpu_helpers.o
0000000000000000 l       *ABS*	0000000000000000 CPU_MIDR
0000000000000008 l       *ABS*	0000000000000000 CPU_RESET_FUNC
0000000000000010 l       *ABS*	0000000000000000 CPU_PWR_DWN_CORE
0000000000000018 l       *ABS*	0000000000000000 CPU_PWR_DWN_CLUSTER
0000000000000020 l       *ABS*	0000000000000000 CPU_OPS_SIZE
0000000004027f28 l       ro	0000000000000000 error_exit
0000000000000000 l    df *ABS*	0000000000000000 ./build/a3700/release/bl31/spinlock.o
0000000004027f34 l       ro	0000000000000000 l1
0000000004027f38 l       ro	0000000000000000 l2
0000000000000000 l    df *ABS*	0000000000000000 ./build/a3700/release/bl31/psci_helpers.o
0000000004027f6c l       ro	0000000000000000 do_core_pwr_dwn
0000000004027f70 l       ro	0000000000000000 do_stack_maintenance
0000000000000000 l    df *ABS*	0000000000000000 ./build/a3700/release/bl31/context.o
0000000000000000 l    df *ABS*	0000000000000000 ./build/a3700/release/bl31/debug.o
0000000004028b78 l       ro	0000000000000000 panic_msg
0000000004028194 l       ro	0000000000000000 panic_common
00000000040281b4 l       ro	0000000000000000 _panic_handler
0000000000000000 l    df *ABS*	0000000000000000 ./build/a3700/release/bl31/cache_helpers.o
00000000040281d8 l       ro	0000000000000000 loop_civac
000000000402820c l       ro	0000000000000000 loop_cvac
0000000004028240 l       ro	0000000000000000 loop_ivac
0000000004028258 l     F ro	000000000000007c do_dcsw_op
00000000040282d0 l       ro	0000000000000000 exit
00000000040282d4 l       ro	0000000000000000 dcsw_loop_table
000000000402826c l       ro	0000000000000000 loop1
00000000040282b8 l       ro	0000000000000000 level_done
00000000040282d4 l       ro	0000000000000000 loop2_isw
00000000040282d8 l       ro	0000000000000000 loop3_isw
00000000040282f4 l       ro	0000000000000000 loop2_cisw
00000000040282f8 l       ro	0000000000000000 loop3_cisw
0000000004028314 l       ro	0000000000000000 loop2_csw
0000000004028318 l       ro	0000000000000000 loop3_csw
0000000000000000 l    df *ABS*	0000000000000000 ./build/a3700/release/bl31/misc_helpers.o
0000000004028358 l       ro	0000000000000000 z_loop16
000000000402836c l       ro	0000000000000000 z_loop1
000000000402837c l       ro	0000000000000000 z_end
0000000000000000 l    df *ABS*	0000000000000000 ./build/a3700/release/bl31/platform_helpers.o
0000000000000000 l    df *ABS*	0000000000000000 ./build/a3700/release/bl31/console.o
000000000402a298 l       .data	0000000000000000 console_base
00000000040283a0 l       ro	0000000000000000 init_fail
0000000000000000 l    df *ABS*	0000000000000000 ./build/a3700/release/bl31/a3700_console.o
000000000402840c l       ro	0000000000000000 init_fail
0000000004028450 l       ro	0000000000000000 putc_error
0000000000000000 l    df *ABS*	0000000000000000 ./build/a3700/release/bl31/marvell_helpers.o
0000000000000000 l    df *ABS*	0000000000000000 
0000000000000000 l    df *ABS*	0000000000000000 a3700_common.c
0000000000000000 l    df *ABS*	0000000000000000 
0000000000000000 l       *UND*	0000000000000000 asm_assert
0000000000000000 l       *UND*	0000000000000000 io_size
0000000000000000 l       *UND*	0000000000000000 platform_get_core_pos
0000000000000000 l     O *UND*	0000000000000000 cpu_ops_cortex_a53
0000000000000000 l       *UND*	0000000000000000 platform_set_stack
0000000000000000 l       *UND*	0000000000000000 io_close
0000000000000000 l       *UND*	0000000000000000 platform_get_stack
0000000000000000 l       *UND*	0000000000000000 io_read
0000000000000000 l       *UND*	0000000000000000 io_open
0000000000000000 l       *UND*	0000000000000000 plat_get_image_source
0000000000000000 l       *UND*	0000000000000000 io_dev_close
000000000402696c g     F ro	000000000000002c putchar
0000000004024a9c g     F ro	000000000000000c plat_delay_timer_init
0000000004024f80 g     F ro	00000000000000bc cm_prepare_el3_exit
0000000004023e10 g     F ro	0000000000000010 gicd_read_itargetsr
00000000040247dc  w    F ro	0000000000000030 plat_ic_get_pending_interrupt_type
000000000402443c g     F ro	0000000000000014 gicd_write_igrpmodr
00000000040249fc g     F ro	000000000000003c marvell_check_mpidr
0000000004025e20 g     F ro	0000000000000028 psci_migrate_info_up_cpu
0000000004030000 g       xlat_table	0000000000000000 __BL31_END__
0000000004025c04 g     F ro	00000000000000e0 psci_cpu_suspend
0000000004027e90 g     F ro	0000000000000020 reset_handler
000000000402a180 g     O .data	00000000000000c8 io_dec_win_conf
0000000004028498 g     O ro	0000000000000025 version_string
00000000040259dc g     F ro	0000000000000104 psci_validate_entry_point
00000000040264d8 g     F ro	0000000000000004 print_entry_point_info
0000000004024bd8 g     F ro	000000000000000c cm_get_context
0000000004028094 g     F ro	0000000000000048 save_gp_registers
00000000040268d8 g     F ro	0000000000000094 printf
0000000004025948 g     F ro	0000000000000074 psci_release_pwr_domain_locks
00000000040254d8 g     F ro	0000000000000024 psci_validate_power_state
0000000004024a38 g     F ro	000000000000002c plat_core_pos_by_mpidr
000000000402a000 g       ro	0000000000000000 __RW_START__
000000000402545c g     F ro	000000000000007c psci_cpu_suspend_finish
00000000040231ec g     F ro	0000000000000008 a3700_validate_ns_entrypoint
0000000004024860  w    F ro	0000000000000020 bl31_plat_get_next_image_ep_info
0000000004028334 g     F ro	0000000000000010 dcsw_op_level1
0000000004028194 g     F ro	0000000000000028 do_panic
0000000004023d6c g     F ro	0000000000000034 plat_marvell_gic_irq_pcpu_save
0000000004026890 g     F ro	0000000000000048 memmove
000000000402b790 g     O .bss	0000000000000080 rt_svc_descs_indices
0000000004023e48 g     F ro	0000000000000014 gicd_write_isenabler
00000000040249bc g     F ro	0000000000000024 plat_setup_psci_ops
000000000402a250 g     O .data	0000000000000004 sys_info_size
0000000004027fd4 g     F ro	000000000000000c psci_power_down_wfi
0000000004024110 g     F ro	000000000000003c gicv3_cpuif_disable
0000000004027fa0 g     F ro	0000000000000034 psci_do_pwrup_cache_maintenance
0000000004025d54 g     F ro	0000000000000038 psci_affinity_info
0000000004025d8c g     F ro	000000000000007c psci_migrate
0000000004023d20  w    F ro	0000000000000014 plat_marvell_gic_cpuif_enable
0000000004024564 g     F ro	0000000000000054 gicv3_rdistif_base_addrs_probe
00000000040284c0 g     O ro	000000000000001e build_message
0000000004028128 g     F ro	0000000000000024 el3_exit
0000000004024914 g     F ro	000000000000001c marvell_bl31_plat_runtime_setup
0000000004026054 g     F ro	00000000000002a8 psci_setup
0000000004027b78 g     F ro	0000000000000074 init_xlat_tables
0000000004024934 g     F ro	0000000000000004 bl31_plat_runtime_setup
000000000402a000 g       .data	0000000000000000 __DATA_START__
0000000004023804 g     F ro	0000000000000004 psci_arch_init
000000000402b940 g     O .bss	0000000000000004 psci_locks
0000000004028384  w    F ro	0000000000000004 plat_disable_acp
00000000040258a8 g     F ro	0000000000000024 psci_find_target_suspend_lvl
000000000402475c g     F ro	0000000000000080 gicv3_secure_ppi_sgi_configure
0000000004023efc g     F ro	000000000000000c gicd_set_isenabler
00000000040280e8 g     F ro	0000000000000040 restore_gp_registers_callee_eret
0000000004026038 g     F ro	000000000000001c psci_arch_setup
0000000004028af0 g     O ro	0000000000000080 plat_marvell_mmap
0000000004026330 g     F ro	0000000000000034 psci_system_reset
0000000004024880 g     F ro	0000000000000064 marvell_bl31_early_platform_setup
00000000040231b0 g     F ro	000000000000003c a3700_pwr_domain_on
0000000004023f08 g     F ro	0000000000000014 gicd_set_ipriorityr
0000000004026870 g     F ro	0000000000000020 memcpy
00000000040244e0 g     F ro	000000000000001c gicr_set_igrpmodr0
00000000040259bc g     F ro	0000000000000020 psci_validate_mpidr
0000000004024250 g     F ro	000000000000013c gicv3_irq_restore
0000000004025ce4 g     F ro	0000000000000068 psci_system_suspend
0000000004024f28 g     F ro	000000000000002c cm_init_context_by_index
0000000004023f60 g     F ro	00000000000000b0 gicv3_distif_init
0000000004025628 g     F ro	0000000000000048 psci_get_parent_pwr_domain_nodes
0000000004023f1c g     F ro	0000000000000044 gicv3_driver_init
0000000004028414 g     F ro	0000000000000044 console_core_putc
0000000004027818  w    F ro	0000000000000014 plat_marvell_interconnect_init
0000000004024654 g     F ro	00000000000000b4 gicv3_secure_spis_configure
00000000040262fc g     F ro	0000000000000034 psci_system_off
0000000004027c58  w    F ro	000000000000000c plat_marvell_get_mmap
0000000004024158 g     F ro	00000000000000f8 gicv3_irq_save
0000000004023e5c g     F ro	0000000000000014 gicd_write_icenabler
00000000040287f8 g     O ro	0000000000000040 marvell_gic_data
00000000040277bc g     F ro	000000000000005c vsnprintf
0000000004027af8 g     F ro	0000000000000038 mmap_add
00000000040230c0 g     F ro	0000000000000060 bl31_warm_entrypoint
0000000004024984  w    F ro	000000000000000c plat_get_syscnt_freq2
0000000004028388  w    F ro	0000000000000008 plat_panic_handler
0000000004028b90 g       ro	0000000000000000 __RT_SVC_DESCS_START__
000000000402480c g     F ro	0000000000000014 cci_init
0000000004023d00  w    F ro	0000000000000020 plat_marvell_gic_init
0000000004023da0 g     F ro	0000000000000034 plat_marvell_gic_irq_pcpu_restore
000000000402aac0 g       stacks	0000000000000000 __STACKS_END__
0000000004024548 g     F ro	000000000000001c gicv3_rdistif_mark_core_asleep
00000000040281f0 g     F ro	0000000000000034 clean_dcache_range
0000000004023d34  w    F ro	0000000000000014 plat_marvell_gic_cpuif_disable
00000000040235ac g     F ro	0000000000000084 a3700_pwr_domain_suspend_finish
0000000004025ae0 g     F ro	00000000000000a4 psci_warmboot_entrypoint
00000000040284e0 g     O ro	0000000000000078 plat_arm_psci_pm_ops
0000000004024518 g     F ro	0000000000000014 gicr_set_isenabler0
000000000402452c g     F ro	000000000000001c gicv3_rdistif_mark_core_awake
0000000004027da8  w    F ro	0000000000000010 plat_set_my_stack
0000000004024c08 g     F ro	0000000000000028 cm_set_context_by_index
0000000004028bb0 g       ro	0000000000000000 __RT_SVC_DESCS_END__
0000000004028164 g     F ro	0000000000000030 asm_print_hex
0000000004023bdc g     F ro	00000000000000d8 bl31_plat_arch_setup
0000000004024b1c g     F ro	0000000000000060 bl31_main
0000000004027a18 g     F ro	0000000000000004 print_mmap
000000000402b8c0 g     O .bss	0000000000000020 psci_cpu_pd_nodes
0000000000000f00 g       *ABS*	0000000000000000 __BSS_SIZE__
000000000402814c g     F ro	0000000000000018 asm_print_str
00000000040283b0 g     F ro	0000000000000064 console_core_init
0000000004027cd4  w    F ro	0000000000000004 bl31_plat_enable_mmu
0000000004024f24 g     F ro	0000000000000004 cm_init
0000000004029000 g       ro	0000000000000000 runtime_exceptions
0000000004024938 g     F ro	000000000000004c marvell_bl31_plat_arch_setup
0000000004028390 g     F ro	0000000000000014 console_init
00000000040244b0 g     F ro	0000000000000014 gicr_write_ipriorityr
0000000004025b84 g     F ro	0000000000000020 psci_spd_migrate_info
0000000004027e84 g     F ro	000000000000000c _cpu_data_by_index
0000000004029800 g       ro	0000000000000000 __RO_END_UNALIGNED__
0000000004025ba4 g     F ro	0000000000000004 psci_print_power_domain_map
0000000004024a64 g     F ro	000000000000002c plat_get_target_pwr_state
00000000040283a4 g     F ro	000000000000000c console_putc
0000000004023eb8 g     F ro	0000000000000014 gicd_write_icfgr
0000000004023d5c g     F ro	0000000000000008 plat_marvell_gic_irq_save
000000000402550c g     F ro	0000000000000064 psci_is_last_on_cpu
0000000004028470 g     F ro	000000000000001c plat_crash_console_init
00000000040281bc g     F ro	0000000000000034 flush_dcache_range
0000000004023bc0 g     F ro	000000000000001c marvell_get_io_dec_win_conf
0000000004024990 g     F ro	000000000000002c marvell_program_mailbox
0000000004023ac0 g     F ro	0000000000000100 init_io_addr_dec
0000000004024820 g     F ro	0000000000000034 cci_enable_snoop_dvm_reqs
0000000004024aa8 g     F ro	000000000000000c timer_init
000000000402357c g     F ro	0000000000000030 a3700_pwr_domain_on_finish
000000000402a000 g     O .data	0000000000000040 src_func_table
0000000004023204 g     F ro	0000000000000018 a3700_validate_power_state
0000000004027e6c g     F ro	0000000000000004 report_unhandled_exception
000000000402527c g     F ro	00000000000000a0 psci_cpu_on_finish
0000000004025d4c g     F ro	0000000000000008 psci_cpu_off
0000000004028380  w    F ro	0000000000000004 plat_reset_handler
0000000004024014 g     F ro	0000000000000078 gicv3_rdistif_init
0000000004027ef0 g     F ro	000000000000003c get_cpu_ops_ptr
0000000004023000 g     F ro	00000000000000ac bl31_entrypoint
0000000004024be4 g     F ro	0000000000000024 cm_get_context_by_index
0000000004024f54 g     F ro	000000000000002c cm_init_my_context
0000000004027e70 g     F ro	0000000000000014 init_cpu_data_ptr
000000000402782c  w    F ro	000000000000000c plat_marvell_interconnect_enter_coherency
0000000000000040 g       *ABS*	0000000000000000 __PERCPU_BAKERY_LOCK_SIZE__
0000000004023e20 g     F ro	0000000000000014 gicd_read_icfgr
00000000040244fc g     F ro	000000000000001c gicr_clr_igrpmodr0
0000000004023d48  w    F ro	0000000000000014 plat_marvell_gic_pcpu_init
000000000402503c g     F ro	00000000000000fc psci_do_cpu_off
000000000402b910 g     O .bss	0000000000000004 psci_caps
000000000402438c g     F ro	000000000000003c gicv3_irq_pcpu_save
000000000402a2a0 g       .data	0000000000000000 __DATA_END__
0000000004024450 g     F ro	0000000000000030 gicd_set_igrpmodr
0000000004028bb0 g       ro	0000000000000000 __CPU_OPS_START__
0000000004028224 g     F ro	0000000000000034 inv_dcache_range
00000000040280dc g     F ro	000000000000000c restore_gp_registers_eret
0000000004025ef0 g     F ro	0000000000000148 psci_smc_handler
000000000402531c g     F ro	0000000000000140 psci_cpu_suspend_start
0000000004025570 g     F ro	0000000000000014 psci_init_req_local_pwr_states
000000000402b9c0 g       .bss	0000000000000000 __BAKERY_LOCK_END__
0000000004025138 g     F ro	0000000000000144 psci_cpu_on_start
000000000402587c g     F ro	000000000000002c psci_find_max_off_lvl
00000000040238b4 g     F ro	0000000000000098 dram_win_map_build
000000000402b8e0 g     O .bss	0000000000000020 psci_non_cpu_pd_nodes
0000000004028bd0 g       ro	0000000000000000 __CPU_OPS_END__
000000000402b9c0 g       .bss	0000000000000000 __BSS_END__
0000000004027f54 g     F ro	000000000000004c psci_do_pwrdown_cache_maintenance
000000000402321c g     F ro	0000000000000018 a3700_cpu_standby
0000000004024428 g     F ro	0000000000000014 gicd_read_igrpmodr
0000000004023de8 g     F ro	0000000000000014 gicd_read_isenabler
0000000004025ba8 g     F ro	000000000000005c psci_cpu_on
0000000004027b30 g     F ro	0000000000000048 init_xlation_table
0000000004024ac0 g     F ro	000000000000005c bl31_prepare_next_image_entry
0000000004023d64 g     F ro	0000000000000008 plat_marvell_gic_irq_restore
0000000004025e9c g     F ro	0000000000000054 psci_features
0000000004026854 g     F ro	000000000000001c memset
0000000004028460  w    F ro	0000000000000010 plat_marvell_calc_core_pos
000000000402b940 g       .bss	0000000000000000 __BAKERY_LOCK_START__
0000000004024d84 g     F ro	00000000000000a4 std_svc_smc_handler
0000000004025584 g     F ro	00000000000000a4 psci_get_target_local_pwr_states
00000000040248e4  w    F ro	0000000000000018 bl31_early_platform_setup
00000000040248fc g     F ro	0000000000000018 marvell_bl31_platform_setup
00000000040237cc g     F ro	0000000000000038 a3700_pm_src_uart0
000000000402b900 g     O .bss	0000000000000008 psci_plat_pm_ops
000000000402b788 g     O .bss	0000000000000002 marvell_power_domain_tree_desc
0000000004024ab4 g     F ro	000000000000000c get_arm_std_svc_args
0000000004023e84 g     F ro	0000000000000014 gicd_write_icactiver
0000000004026364 g     F ro	0000000000000120 bakery_lock_get
000000000402394c g     F ro	00000000000000e4 cpu_wins_init
0000000004026484 g     F ro	0000000000000054 bakery_lock_release
0000000004027c64 g     F ro	0000000000000070 marvell_setup_page_tables
0000000004024bac g     F ro	000000000000002c get_interrupt_type_handler
00000000040249e0 g     F ro	000000000000001c plat_get_power_domain_tree_desc
0000000004023e98 g     F ro	0000000000000010 gicd_write_ipriorityr
0000000004026550 g     F ro	0000000000000304 tf_printf
0000000004025e48 g     F ro	0000000000000054 psci_node_hw_state
0000000004023e70 g     F ro	0000000000000014 gicd_write_isactiver
0000000004028344 g     F ro	0000000000000010 dcsw_op_level2
0000000004027ed0 g     F ro	0000000000000020 init_cpu_ops
000000000402a000 g       ro	0000000000000000 __RO_END__
0000000004023cb4 g     F ro	0000000000000040 set_info
0000000004023dd4 g     F ro	0000000000000014 gicd_read_igroupr
0000000004027f4c g     F ro	0000000000000008 spin_unlock
0000000004027ec0 g     F ro	0000000000000010 prepare_cluster_pwr_dwn
000000000402aac0 g       .bss	0000000000000000 __BSS_START__
0000000004023000 g       ro	0000000000000000 __RO_START__
0000000004023808 g     F ro	00000000000000ac marvell_get_dram_cs_base_size
000000000402848c g     F ro	000000000000000c plat_crash_console_putc
000000000402b840 g     O .bss	0000000000000080 percpu_data
0000000004023ea8 g     F ro	0000000000000010 gicd_write_itargetsr
000000000402a040 g     O .data	0000000000000140 mv_cpu_wins
0000000004024010  w    F ro	0000000000000004 gicv3_rdistif_on
0000000004027f2c g     F ro	0000000000000020 spin_lock
000000000402414c g     F ro	000000000000000c gicv3_get_pending_interrupt_type
00000000040254fc g     F ro	0000000000000010 psci_query_sys_suspend_pwrstate
0000000004024b7c g     F ro	0000000000000030 get_scr_el3_from_routing_model
0000000004030000 g       xlat_table	0000000000000000 __RW_END__
0000000004024930  w    F ro	0000000000000004 bl31_platform_setup
000000000402a2c0 g       stacks	0000000000000000 __STACKS_START__
0000000004025714 g     F ro	0000000000000168 psci_do_state_coordination
0000000004027eb0 g     F ro	0000000000000010 prepare_core_pwr_dwn
0000000004027bec g     F ro	000000000000006c enable_mmu_el3
00000000040231f4 g     F ro	0000000000000010 a3700_get_sys_suspend_power_state
0000000004024480 g     F ro	0000000000000030 gicd_clr_igrpmodr
0000000004028458  w    F ro	0000000000000008 plat_my_core_pos
00000000040245b8 g     F ro	000000000000009c gicv3_spis_configure_defaults
000000000402a248 g     O .data	0000000000000008 sys_info_in_ptr
00000000040243c8 g     F ro	0000000000000060 gicv3_irq_pcpu_restore
0000000004024c30 g     F ro	000000000000013c runtime_svc_init
0000000004026998 g     F ro	000000000000001c strlen
00000000040244c4 g     F ro	000000000000001c gicr_clr_igroupr0
0000000004025e08 g     F ro	0000000000000018 psci_migrate_info_type
0000000004024854 g     F ro	000000000000000c mv_wake_up_src_config_get
0000000004028194  w      ro	0000000000000000 el3_panic
0000000004023ecc g     F ro	0000000000000030 gicd_clr_igroupr
000000000402b780 g     O .bss	0000000000000008 gicv3_driver_data
0000000004023cf4  w    F ro	000000000000000c plat_marvell_gic_driver_init
00000000040258cc g     F ro	000000000000007c psci_acquire_pwr_domain_locks
0000000004027fe0 g     F ro	00000000000000b4 el1_sysregs_context_restore
0000000004028354 g     F ro	000000000000002c zeromem16
0000000004025670 g     F ro	00000000000000a4 psci_set_pwr_domains_to_run
000000000402408c g     F ro	0000000000000084 gicv3_cpuif_enable
0000000004023e34 g     F ro	0000000000000014 gicd_write_igroupr
0000000004027e6c g       ro	0000000000000000 report_unhandled_interrupt
000000000402324c g     F ro	0000000000000044 a3700_pwr_domain_off
0000000004024708 g     F ro	0000000000000054 gicv3_ppi_sgi_configure_defaults
0000000004023290 g     F ro	00000000000002ec a3700_pwr_domain_suspend
0000000004027d88  w    F ro	0000000000000018 plat_get_my_stack
0000000004027a1c g     F ro	00000000000000dc mmap_add_region
0000000004023dfc g     F ro	0000000000000014 gicd_read_isactiver
00000000040236ec g     F ro	0000000000000090 a3700_pm_src_gpio
000000000402377c g     F ro	0000000000000050 a3700_pm_src_uart1
000000000402b908 g     O .bss	0000000000000008 psci_spd_pm



Disassembly of section ro:

0000000004023000 <bl31_entrypoint>:
 4023000:	aa0003f4 	mov	x20, x0
 4023004:	aa0103f5 	mov	x21, x1
 4023008:	940013a2 	bl	4027e90 <reset_handler>
 402300c:	d2820141 	mov	x1, #0x100a                	// #4106
 4023010:	d53e1000 	mrs	x0, sctlr_el3
 4023014:	aa010000 	orr	x0, x0, x1
 4023018:	d51e1000 	msr	sctlr_el3, x0
 402301c:	d5033fdf 	isb
 4023020:	94001394 	bl	4027e70 <init_cpu_data_ptr>
 4023024:	1002fee0 	adr	x0, 4029000 <runtime_exceptions>
 4023028:	d51ec000 	msr	vbar_el3, x0
 402302c:	d5033fdf 	isb
 4023030:	d2804700 	mov	x0, #0x238                 	// #568
 4023034:	d51e1100 	msr	scr_el3, x0
 4023038:	d50344ff 	msr	daifclr, #0x4
 402303c:	d53e1140 	mrs	x0, cptr_el3
 4023040:	12007800 	and	w0, w0, #0x7fffffff
 4023044:	120b7800 	and	w0, w0, #0xffefffff
 4023048:	12157800 	and	w0, w0, #0xfffffbff
 402304c:	d51e1140 	msr	cptr_el3, x0
 4023050:	10037d80 	adr	x0, 402a000 <__RO_END__>
 4023054:	10067d61 	adr	x1, 4030000 <__BL31_END__>
 4023058:	cb000021 	sub	x1, x1, x0
 402305c:	94001472 	bl	4028224 <inv_dcache_range>
 4023060:	58000280 	ldr	x0, 40230b0 <bl31_entrypoint+0xb0>
 4023064:	580002a1 	ldr	x1, 40230b8 <bl31_entrypoint+0xb8>
 4023068:	940014bb 	bl	4028354 <zeromem16>
 402306c:	d50040bf 	msr	spsel, #0x0
 4023070:	9400134e 	bl	4027da8 <plat_set_my_stack>
 4023074:	aa1403e0 	mov	x0, x20
 4023078:	aa1503e1 	mov	x1, x21
 402307c:	9400061a 	bl	40248e4 <bl31_early_platform_setup>
 4023080:	940002d7 	bl	4023bdc <bl31_plat_arch_setup>
 4023084:	940006a6 	bl	4024b1c <bl31_main>
 4023088:	10037bc0 	adr	x0, 402a000 <__RO_END__>
 402308c:	100390a1 	adr	x1, 402a2a0 <__DATA_END__>
 4023090:	cb000021 	sub	x1, x1, x0
 4023094:	94001457 	bl	40281f0 <clean_dcache_range>
 4023098:	1003d140 	adr	x0, 402aac0 <__STACKS_END__>
 402309c:	10044921 	adr	x1, 402b9c0 <__BAKERY_LOCK_END__>
 40230a0:	cb000021 	sub	x1, x1, x0
 40230a4:	94001453 	bl	40281f0 <clean_dcache_range>
 40230a8:	14001420 	b	4028128 <el3_exit>
 40230ac:	00000000 	.word	0x00000000
 40230b0:	0402aac0 	.word	0x0402aac0
 40230b4:	00000000 	.word	0x00000000
 40230b8:	00000f00 	.word	0x00000f00
 40230bc:	00000000 	.word	0x00000000

00000000040230c0 <bl31_warm_entrypoint>:
 40230c0:	94001374 	bl	4027e90 <reset_handler>
 40230c4:	d2820141 	mov	x1, #0x100a                	// #4106
 40230c8:	d53e1000 	mrs	x0, sctlr_el3
 40230cc:	aa010000 	orr	x0, x0, x1
 40230d0:	d51e1000 	msr	sctlr_el3, x0
 40230d4:	d5033fdf 	isb
 40230d8:	94001366 	bl	4027e70 <init_cpu_data_ptr>
 40230dc:	1002f920 	adr	x0, 4029000 <runtime_exceptions>
 40230e0:	d51ec000 	msr	vbar_el3, x0
 40230e4:	d5033fdf 	isb
 40230e8:	d2804700 	mov	x0, #0x238                 	// #568
 40230ec:	d51e1100 	msr	scr_el3, x0
 40230f0:	d50344ff 	msr	daifclr, #0x4
 40230f4:	d53e1140 	mrs	x0, cptr_el3
 40230f8:	12007800 	and	w0, w0, #0x7fffffff
 40230fc:	120b7800 	and	w0, w0, #0xffefffff
 4023100:	12157800 	and	w0, w0, #0xfffffbff
 4023104:	d51e1140 	msr	cptr_el3, x0
 4023108:	d50040bf 	msr	spsel, #0x0
 402310c:	94001327 	bl	4027da8 <plat_set_my_stack>
 4023110:	d2800020 	mov	x0, #0x1                   	// #1
 4023114:	940012f0 	bl	4027cd4 <bl31_plat_enable_mmu>
 4023118:	94000a72 	bl	4025ae0 <psci_warmboot_entrypoint>
 402311c:	14001403 	b	4028128 <el3_exit>

0000000004023120 <a3700_pm_ack_irq>:
 4023120:	d2914000 	mov	x0, #0x8a00                	// #35328
 4023124:	f2ba0000 	movk	x0, #0xd000, lsl #16
 4023128:	b9400001 	ldr	w1, [x0]
 402312c:	34000041 	cbz	w1, 4023134 <a3700_pm_ack_irq+0x14>
 4023130:	b9000001 	str	w1, [x0]
 4023134:	d2914200 	mov	x0, #0x8a10                	// #35344
 4023138:	f2ba0000 	movk	x0, #0xd000, lsl #16
 402313c:	b9400001 	ldr	w1, [x0]
 4023140:	34000041 	cbz	w1, 4023148 <a3700_pm_ack_irq+0x28>
 4023144:	b9000001 	str	w1, [x0]
 4023148:	d2914800 	mov	x0, #0x8a40                	// #35392
 402314c:	f2ba0000 	movk	x0, #0xd000, lsl #16
 4023150:	b9400001 	ldr	w1, [x0]
 4023154:	34000041 	cbz	w1, 402315c <a3700_pm_ack_irq+0x3c>
 4023158:	b9000001 	str	w1, [x0]
 402315c:	d2914a00 	mov	x0, #0x8a50                	// #35408
 4023160:	f2ba0000 	movk	x0, #0xd000, lsl #16
 4023164:	b9400001 	ldr	w1, [x0]
 4023168:	34000041 	cbz	w1, 4023170 <a3700_pm_ack_irq+0x50>
 402316c:	b9000001 	str	w1, [x0]
 4023170:	d2878200 	mov	x0, #0x3c10                	// #15376
 4023174:	f2ba0020 	movk	x0, #0xd001, lsl #16
 4023178:	b9400001 	ldr	w1, [x0]
 402317c:	34000041 	cbz	w1, 4023184 <a3700_pm_ack_irq+0x64>
 4023180:	b9000001 	str	w1, [x0]
 4023184:	d2878280 	mov	x0, #0x3c14                	// #15380
 4023188:	f2ba0020 	movk	x0, #0xd001, lsl #16
 402318c:	b9400001 	ldr	w1, [x0]
 4023190:	34000041 	cbz	w1, 4023198 <a3700_pm_ack_irq+0x78>
 4023194:	b9000001 	str	w1, [x0]
 4023198:	d2918200 	mov	x0, #0x8c10                	// #35856
 402319c:	f2ba0020 	movk	x0, #0xd001, lsl #16
 40231a0:	b9400001 	ldr	w1, [x0]
 40231a4:	34000041 	cbz	w1, 40231ac <a3700_pm_ack_irq+0x8c>
 40231a8:	b9000001 	str	w1, [x0]
 40231ac:	d65f03c0 	ret

00000000040231b0 <a3700_pwr_domain_on>:
 40231b0:	d5033f9f 	dsb	sy
 40231b4:	d2880880 	mov	x0, #0x4044                	// #16452
 40231b8:	52a02081 	mov	w1, #0x1040000             	// #17039360
 40231bc:	f2ba0020 	movk	x0, #0xd001, lsl #16
 40231c0:	b9000001 	str	w1, [x0]
 40231c4:	d29a0180 	mov	x0, #0xd00c                	// #53260
 40231c8:	f2ba0000 	movk	x0, #0xd000, lsl #16
 40231cc:	b9400001 	ldr	w1, [x0]
 40231d0:	12007821 	and	w1, w1, #0x7fffffff
 40231d4:	b9000001 	str	w1, [x0]
 40231d8:	b9400001 	ldr	w1, [x0]
 40231dc:	32010021 	orr	w1, w1, #0x80000000
 40231e0:	b9000001 	str	w1, [x0]
 40231e4:	52800000 	mov	w0, #0x0                   	// #0
 40231e8:	d65f03c0 	ret

00000000040231ec <a3700_validate_ns_entrypoint>:
 40231ec:	52800000 	mov	w0, #0x0                   	// #0
 40231f0:	d65f03c0 	ret

00000000040231f4 <a3700_get_sys_suspend_power_state>:
 40231f4:	52800041 	mov	w1, #0x2                   	// #2
 40231f8:	39000001 	strb	w1, [x0]
 40231fc:	39000401 	strb	w1, [x0,#1]
 4023200:	d65f03c0 	ret

0000000004023204 <a3700_validate_power_state>:
 4023204:	a9bf7bfd 	stp	x29, x30, [sp,#-16]!
 4023208:	b0000020 	adrp	x0, 4028000 <el1_sysregs_context_restore+0x20>
 402320c:	910003fd 	mov	x29, sp
 4023210:	91156000 	add	x0, x0, #0x558
 4023214:	94000ccf 	bl	4026550 <tf_printf>
 4023218:	940013df 	bl	4028194 <do_panic>

000000000402321c <a3700_cpu_standby>:
 402321c:	a9bf7bfd 	stp	x29, x30, [sp,#-16]!
 4023220:	b0000020 	adrp	x0, 4028000 <el1_sysregs_context_restore+0x20>
 4023224:	910003fd 	mov	x29, sp
 4023228:	91165400 	add	x0, x0, #0x595
 402322c:	94000cc9 	bl	4026550 <tf_printf>
 4023230:	940013d9 	bl	4028194 <do_panic>

0000000004023234 <a3700_system_off>:
 4023234:	a9bf7bfd 	stp	x29, x30, [sp,#-16]!
 4023238:	b0000020 	adrp	x0, 4028000 <el1_sysregs_context_restore+0x20>
 402323c:	910003fd 	mov	x29, sp
 4023240:	91172400 	add	x0, x0, #0x5c9
 4023244:	94000cc3 	bl	4026550 <tf_printf>
 4023248:	940013d3 	bl	4028194 <do_panic>

000000000402324c <a3700_pwr_domain_off>:
 402324c:	a9be7bfd 	stp	x29, x30, [sp,#-32]!
 4023250:	910003fd 	mov	x29, sp
 4023254:	f9000bf3 	str	x19, [sp,#16]
 4023258:	94001480 	bl	4028458 <plat_my_core_pos>
 402325c:	2a0003f3 	mov	w19, w0
 4023260:	940002c3 	bl	4023d6c <plat_marvell_gic_irq_pcpu_save>
 4023264:	940002b4 	bl	4023d34 <plat_marvell_gic_cpuif_disable>
 4023268:	528a01a1 	mov	w1, #0x500d                	// #20493
 402326c:	72a68001 	movk	w1, #0x3400, lsl #16
 4023270:	0b010260 	add	w0, w19, w1
 4023274:	f9400bf3 	ldr	x19, [sp,#16]
 4023278:	d37e7400 	ubfiz	x0, x0, #2, #30
 402327c:	b9400001 	ldr	w1, [x0]
 4023280:	32000021 	orr	w1, w1, #0x1
 4023284:	b9000001 	str	w1, [x0]
 4023288:	a8c27bfd 	ldp	x29, x30, [sp],#32
 402328c:	17ffffa5 	b	4023120 <a3700_pm_ack_irq>

0000000004023290 <a3700_pwr_domain_suspend>:
 4023290:	a9bd7bfd 	stp	x29, x30, [sp,#-48]!
 4023294:	910003fd 	mov	x29, sp
 4023298:	a90153f3 	stp	x19, x20, [sp,#16]
 402329c:	a9025bf5 	stp	x21, x22, [sp,#32]
 40232a0:	940002af 	bl	4023d5c <plat_marvell_gic_irq_save>
 40232a4:	f0000034 	adrp	x20, 402a000 <__RO_END__>
 40232a8:	940002b1 	bl	4023d6c <plat_marvell_gic_irq_pcpu_save>
 40232ac:	52800013 	mov	w19, #0x0                   	// #0
 40232b0:	940002a1 	bl	4023d34 <plat_marvell_gic_cpuif_disable>
 40232b4:	d2800196 	mov	x22, #0xc                   	// #12
 40232b8:	d2880581 	mov	x1, #0x402c                	// #16428
 40232bc:	91000294 	add	x20, x20, #0x0
 40232c0:	f2ba0021 	movk	x1, #0xd001, lsl #16
 40232c4:	b9400020 	ldr	w0, [x1]
 40232c8:	32100000 	orr	w0, w0, #0x10000
 40232cc:	b9000020 	str	w0, [x1]
 40232d0:	b9402820 	ldr	w0, [x1,#40]
 40232d4:	32140400 	orr	w0, w0, #0x3000
 40232d8:	b9002820 	str	w0, [x1,#40]
 40232dc:	d2880101 	mov	x1, #0x4008                	// #16392
 40232e0:	f2ba0021 	movk	x1, #0xd001, lsl #16
 40232e4:	b9400020 	ldr	w0, [x1]
 40232e8:	32050000 	orr	w0, w0, #0x8000000
 40232ec:	b9000020 	str	w0, [x1]
 40232f0:	94000559 	bl	4024854 <mv_wake_up_src_config_get>
 40232f4:	aa0003f5 	mov	x21, x0
 40232f8:	b94002a0 	ldr	w0, [x21]
 40232fc:	6b00027f 	cmp	w19, w0
 4023300:	54000302 	b.cs	4023360 <a3700_pwr_domain_suspend+0xd0>
 4023304:	2a1303e0 	mov	w0, w19
 4023308:	9b165400 	madd	x0, x0, x22, x21
 402330c:	b9400402 	ldr	w2, [x0,#4]
 4023310:	d2800000 	mov	x0, #0x0                   	// #0
 4023314:	d37cec03 	lsl	x3, x0, #4
 4023318:	2a0003e1 	mov	w1, w0
 402331c:	b8746863 	ldr	w3, [x3,x20]
 4023320:	6b03005f 	cmp	w2, w3
 4023324:	54000141 	b.ne	402334c <a3700_pwr_domain_suspend+0xbc>
 4023328:	d37c7c20 	ubfiz	x0, x1, #4, #32
 402332c:	8b000280 	add	x0, x20, x0
 4023330:	f9400401 	ldr	x1, [x0,#8]
 4023334:	b4000121 	cbz	x1, 4023358 <a3700_pwr_domain_suspend+0xc8>
 4023338:	2a1303e0 	mov	w0, w19
 402333c:	9b165400 	madd	x0, x0, x22, x21
 4023340:	91002000 	add	x0, x0, #0x8
 4023344:	d63f0020 	blr	x1
 4023348:	14000004 	b	4023358 <a3700_pwr_domain_suspend+0xc8>
 402334c:	91000400 	add	x0, x0, #0x1
 4023350:	f100101f 	cmp	x0, #0x4
 4023354:	54fffe01 	b.ne	4023314 <a3700_pwr_domain_suspend+0x84>
 4023358:	11000673 	add	w19, w19, #0x1
 402335c:	17ffffe7 	b	40232f8 <a3700_pwr_domain_suspend+0x68>
 4023360:	97ffff70 	bl	4023120 <a3700_pm_ack_irq>
 4023364:	d2880081 	mov	x1, #0x4004                	// #16388
 4023368:	d2860202 	mov	x2, #0x3010                	// #12304
 402336c:	f2ba0021 	movk	x1, #0xd001, lsl #16
 4023370:	f2ba0022 	movk	x2, #0xd001, lsl #16
 4023374:	d2880003 	mov	x3, #0x4000                	// #16384
 4023378:	f2ba0023 	movk	x3, #0xd001, lsl #16
 402337c:	b9400020 	ldr	w0, [x1]
 4023380:	320a0000 	orr	w0, w0, #0x400000
 4023384:	b9000020 	str	w0, [x1]
 4023388:	d2880100 	mov	x0, #0x4008                	// #16392
 402338c:	f2ba0020 	movk	x0, #0xd001, lsl #16
 4023390:	b9400001 	ldr	w1, [x0]
 4023394:	120c7821 	and	w1, w1, #0xfff7ffff
 4023398:	b9000001 	str	w1, [x0]
 402339c:	b9400041 	ldr	w1, [x2]
 40233a0:	12107821 	and	w1, w1, #0xffff7fff
 40233a4:	b9000041 	str	w1, [x2]
 40233a8:	d2880181 	mov	x1, #0x400c                	// #16396
 40233ac:	f2ba0021 	movk	x1, #0xd001, lsl #16
 40233b0:	b9400022 	ldr	w2, [x1]
 40233b4:	320b0042 	orr	w2, w2, #0x200000
 40233b8:	b9000022 	str	w2, [x1]
 40233bc:	b9400022 	ldr	w2, [x1]
 40233c0:	320c0042 	orr	w2, w2, #0x100000
 40233c4:	b9000022 	str	w2, [x1]
 40233c8:	d2880682 	mov	x2, #0x4034                	// #16436
 40233cc:	b9400001 	ldr	w1, [x0]
 40233d0:	f2ba0022 	movk	x2, #0xd001, lsl #16
 40233d4:	32002021 	orr	w1, w1, #0x1ff
 40233d8:	b9000001 	str	w1, [x0]
 40233dc:	b9400061 	ldr	w1, [x3]
 40233e0:	32000021 	orr	w1, w1, #0x1
 40233e4:	b9000061 	str	w1, [x3]
 40233e8:	b9400041 	ldr	w1, [x2]
 40233ec:	32000021 	orr	w1, w1, #0x1
 40233f0:	b9000041 	str	w1, [x2]
 40233f4:	d2880701 	mov	x1, #0x4038                	// #16440
 40233f8:	f2ba0021 	movk	x1, #0xd001, lsl #16
 40233fc:	b9400024 	ldr	w4, [x1]
 4023400:	32000084 	orr	w4, w4, #0x1
 4023404:	b9000024 	str	w4, [x1]
 4023408:	b9400044 	ldr	w4, [x2]
 402340c:	321e0084 	orr	w4, w4, #0x4
 4023410:	b9000044 	str	w4, [x2]
 4023414:	b9400024 	ldr	w4, [x1]
 4023418:	321e0084 	orr	w4, w4, #0x4
 402341c:	b9000024 	str	w4, [x1]
 4023420:	b9400044 	ldr	w4, [x2]
 4023424:	321f0084 	orr	w4, w4, #0x2
 4023428:	b9000044 	str	w4, [x2]
 402342c:	b9400022 	ldr	w2, [x1]
 4023430:	321f0042 	orr	w2, w2, #0x2
 4023434:	b9000022 	str	w2, [x1]
 4023438:	b9400061 	ldr	w1, [x3]
 402343c:	32040021 	orr	w1, w1, #0x10000000
 4023440:	b9000061 	str	w1, [x3]
 4023444:	b9400001 	ldr	w1, [x0]
 4023448:	32030021 	orr	w1, w1, #0x20000000
 402344c:	b9000001 	str	w1, [x0]
 4023450:	b9400001 	ldr	w1, [x0]
 4023454:	32040021 	orr	w1, w1, #0x10000000
 4023458:	b9000001 	str	w1, [x0]
 402345c:	b9400001 	ldr	w1, [x0]
 4023460:	32090021 	orr	w1, w1, #0x800000
 4023464:	b9000001 	str	w1, [x0]
 4023468:	b9400001 	ldr	w1, [x0]
 402346c:	320a0021 	orr	w1, w1, #0x400000
 4023470:	b9000001 	str	w1, [x0]
 4023474:	528002a1 	mov	w1, #0x15                  	// #21
 4023478:	b9004001 	str	w1, [x0,#64]
 402347c:	d2800400 	mov	x0, #0x20                  	// #32
 4023480:	52800041 	mov	w1, #0x2                   	// #2
 4023484:	f2ba0000 	movk	x0, #0xd000, lsl #16
 4023488:	72a22001 	movk	w1, #0x1100, lsl #16
 402348c:	b9000001 	str	w1, [x0]
 4023490:	d2800081 	mov	x1, #0x4                   	// #4
 4023494:	f2ba0001 	movk	x1, #0xd000, lsl #16
 4023498:	b9400020 	ldr	w0, [x1]
 402349c:	369fffe0 	tbz	w0, #19, 4023498 <a3700_pwr_domain_suspend+0x208>
 40234a0:	d2800a81 	mov	x1, #0x54                  	// #84
 40234a4:	d282a102 	mov	x2, #0x1508                	// #5384
 40234a8:	f2ba0001 	movk	x1, #0xd000, lsl #16
 40234ac:	f2ba0022 	movk	x2, #0xd001, lsl #16
 40234b0:	b9400020 	ldr	w0, [x1]
 40234b4:	32000400 	orr	w0, w0, #0x3
 40234b8:	b9000020 	str	w0, [x1]
 40234bc:	d2880100 	mov	x0, #0x4008                	// #16392
 40234c0:	f2ba0020 	movk	x0, #0xd001, lsl #16
 40234c4:	b9400001 	ldr	w1, [x0]
 40234c8:	12117821 	and	w1, w1, #0xffffbfff
 40234cc:	b9000001 	str	w1, [x0]
 40234d0:	b9400001 	ldr	w1, [x0]
 40234d4:	32130021 	orr	w1, w1, #0x2000
 40234d8:	b9000001 	str	w1, [x0]
 40234dc:	b9400001 	ldr	w1, [x0]
 40234e0:	32140021 	orr	w1, w1, #0x1000
 40234e4:	b9000001 	str	w1, [x0]
 40234e8:	b9400041 	ldr	w1, [x2]
 40234ec:	321a0021 	orr	w1, w1, #0x40
 40234f0:	b9000041 	str	w1, [x2]
 40234f4:	b9400001 	ldr	w1, [x0]
 40234f8:	320c0021 	orr	w1, w1, #0x100000
 40234fc:	b9000001 	str	w1, [x0]
 4023500:	d2880001 	mov	x1, #0x4000                	// #16384
 4023504:	f2ba0021 	movk	x1, #0xd001, lsl #16
 4023508:	b9400020 	ldr	w0, [x1]
 402350c:	321c0000 	orr	w0, w0, #0x10
 4023510:	b9000020 	str	w0, [x1]
 4023514:	d2920080 	mov	x0, #0x9004                	// #36868
 4023518:	f2ba0020 	movk	x0, #0xd001, lsl #16
 402351c:	b9400001 	ldr	w1, [x0]
 4023520:	320f0021 	orr	w1, w1, #0x20000
 4023524:	b9000001 	str	w1, [x0]
 4023528:	b9400001 	ldr	w1, [x0]
 402352c:	321f2821 	orr	w1, w1, #0xffe
 4023530:	b9000001 	str	w1, [x0]
 4023534:	b9400001 	ldr	w1, [x0]
 4023538:	32100021 	orr	w1, w1, #0x10000
 402353c:	b9000001 	str	w1, [x0]
 4023540:	d2920001 	mov	x1, #0x9000                	// #36864
 4023544:	f2ba0021 	movk	x1, #0xd001, lsl #16
 4023548:	b9400020 	ldr	w0, [x1]
 402354c:	32000000 	orr	w0, w0, #0x1
 4023550:	b9000020 	str	w0, [x1]
 4023554:	d2880981 	mov	x1, #0x404c                	// #16460
 4023558:	f2ba0021 	movk	x1, #0xd001, lsl #16
 402355c:	b9400020 	ldr	w0, [x1]
 4023560:	32000000 	orr	w0, w0, #0x1
 4023564:	b9000020 	str	w0, [x1]
 4023568:	d5033fdf 	isb
 402356c:	a94153f3 	ldp	x19, x20, [sp,#16]
 4023570:	a9425bf5 	ldp	x21, x22, [sp,#32]
 4023574:	a8c37bfd 	ldp	x29, x30, [sp],#48
 4023578:	d65f03c0 	ret

000000000402357c <a3700_pwr_domain_on_finish>:
 402357c:	a9bf7bfd 	stp	x29, x30, [sp,#-16]!
 4023580:	910003fd 	mov	x29, sp
 4023584:	940001f1 	bl	4023d48 <plat_marvell_gic_pcpu_init>
 4023588:	940001e6 	bl	4023d20 <plat_marvell_gic_cpuif_enable>
 402358c:	d2880980 	mov	x0, #0x404c                	// #16460
 4023590:	f2ba0020 	movk	x0, #0xd001, lsl #16
 4023594:	b9400000 	ldr	w0, [x0]
 4023598:	36000060 	tbz	w0, #0, 40235a4 <a3700_pwr_domain_on_finish+0x28>
 402359c:	a8c17bfd 	ldp	x29, x30, [sp],#16
 40235a0:	14000200 	b	4023da0 <plat_marvell_gic_irq_pcpu_restore>
 40235a4:	a8c17bfd 	ldp	x29, x30, [sp],#16
 40235a8:	d65f03c0 	ret

00000000040235ac <a3700_pwr_domain_suspend_finish>:
 40235ac:	a9b87bfd 	stp	x29, x30, [sp,#-128]!
 40235b0:	910003fd 	mov	x29, sp
 40235b4:	940001d3 	bl	4023d00 <plat_marvell_gic_init>
 40235b8:	940001eb 	bl	4023d64 <plat_marvell_gic_irq_restore>
 40235bc:	940001f9 	bl	4023da0 <plat_marvell_gic_irq_pcpu_restore>
 40235c0:	94001096 	bl	4027818 <plat_marvell_interconnect_init>
 40235c4:	9400109a 	bl	402782c <plat_marvell_interconnect_enter_coherency>
 40235c8:	940000e1 	bl	402394c <cpu_wins_init>
 40235cc:	9100a3a0 	add	x0, x29, #0x28
 40235d0:	940000b9 	bl	40238b4 <dram_win_map_build>
 40235d4:	910073a1 	add	x1, x29, #0x1c
 40235d8:	910083a0 	add	x0, x29, #0x20
 40235dc:	94000179 	bl	4023bc0 <marvell_get_io_dec_win_conf>
 40235e0:	34000080 	cbz	w0, 40235f0 <a3700_pwr_domain_suspend_finish+0x44>
 40235e4:	b0000020 	adrp	x0, 4028000 <el1_sysregs_context_restore+0x20>
 40235e8:	9117f000 	add	x0, x0, #0x5fc
 40235ec:	14000008 	b	402360c <a3700_pwr_domain_suspend_finish+0x60>
 40235f0:	b9401fa2 	ldr	w2, [x29,#28]
 40235f4:	9100a3a0 	add	x0, x29, #0x28
 40235f8:	f94013a1 	ldr	x1, [x29,#32]
 40235fc:	94000131 	bl	4023ac0 <init_io_addr_dec>
 4023600:	340000a0 	cbz	w0, 4023614 <a3700_pwr_domain_suspend_finish+0x68>
 4023604:	b0000020 	adrp	x0, 4028000 <el1_sysregs_context_restore+0x20>
 4023608:	9118c400 	add	x0, x0, #0x631
 402360c:	94000cb3 	bl	40268d8 <printf>
 4023610:	14000006 	b	4023628 <a3700_pwr_domain_suspend_finish+0x7c>
 4023614:	d2880981 	mov	x1, #0x404c                	// #16460
 4023618:	f2ba0021 	movk	x1, #0xd001, lsl #16
 402361c:	b9400020 	ldr	w0, [x1]
 4023620:	121f7800 	and	w0, w0, #0xfffffffe
 4023624:	b9000020 	str	w0, [x1]
 4023628:	a8c87bfd 	ldp	x29, x30, [sp],#128
 402362c:	d65f03c0 	ret

0000000004023630 <a3700_system_reset>:
 4023630:	d2808000 	mov	x0, #0x400                 	// #1024
 4023634:	a9bf7bfd 	stp	x29, x30, [sp,#-16]!
 4023638:	f2a08000 	movk	x0, #0x400, lsl #16
 402363c:	910003fd 	mov	x29, sp
 4023640:	b900001f 	str	wzr, [x0]
 4023644:	d5033f9f 	dsb	sy
 4023648:	d2800201 	mov	x1, #0x10                  	// #16
 402364c:	940012dc 	bl	40281bc <flush_dcache_range>
 4023650:	d2870800 	mov	x0, #0x3840                	// #14400
 4023654:	5283a3c1 	mov	w1, #0x1d1e                	// #7454
 4023658:	f2ba0020 	movk	x0, #0xd001, lsl #16
 402365c:	b9000001 	str	w1, [x0]
 4023660:	940012cd 	bl	4028194 <do_panic>

0000000004023664 <a3700_pm_en_nb_gpio>:
 4023664:	71007c1f 	cmp	w0, #0x1f
 4023668:	52800021 	mov	w1, #0x1                   	// #1
 402366c:	1ac02020 	lsl	w0, w1, w0
 4023670:	54000109 	b.ls	4023690 <a3700_pm_en_nb_gpio+0x2c>
 4023674:	d2915b02 	mov	x2, #0x8ad8                	// #35544
 4023678:	f2ba0002 	movk	x2, #0xd000, lsl #16
 402367c:	b9400041 	ldr	w1, [x2]
 4023680:	0a200021 	bic	w1, w1, w0
 4023684:	b9000041 	str	w1, [x2]
 4023688:	d2878082 	mov	x2, #0x3c04                	// #15364
 402368c:	14000007 	b	40236a8 <a3700_pm_en_nb_gpio+0x44>
 4023690:	d2915902 	mov	x2, #0x8ac8                	// #35528
 4023694:	f2ba0002 	movk	x2, #0xd000, lsl #16
 4023698:	b9400041 	ldr	w1, [x2]
 402369c:	0a200021 	bic	w1, w1, w0
 40236a0:	b9000041 	str	w1, [x2]
 40236a4:	d2878002 	mov	x2, #0x3c00                	// #15360
 40236a8:	f2ba0022 	movk	x2, #0xd001, lsl #16
 40236ac:	b9400041 	ldr	w1, [x2]
 40236b0:	2a010000 	orr	w0, w0, w1
 40236b4:	d2850001 	mov	x1, #0x2800                	// #10240
 40236b8:	f2ba0021 	movk	x1, #0xd001, lsl #16
 40236bc:	b9000040 	str	w0, [x2]
 40236c0:	b9400020 	ldr	w0, [x1]
 40236c4:	32180000 	orr	w0, w0, #0x100
 40236c8:	b9000020 	str	w0, [x1]
 40236cc:	d2880581 	mov	x1, #0x402c                	// #16428
 40236d0:	52860000 	mov	w0, #0x3000                	// #12288
 40236d4:	f2ba0021 	movk	x1, #0xd001, lsl #16
 40236d8:	72a10020 	movk	w0, #0x801, lsl #16
 40236dc:	b9400022 	ldr	w2, [x1]
 40236e0:	2a000040 	orr	w0, w2, w0
 40236e4:	b9000020 	str	w0, [x1]
 40236e8:	d65f03c0 	ret

00000000040236ec <a3700_pm_src_gpio>:
 40236ec:	b9400001 	ldr	w1, [x0]
 40236f0:	35000101 	cbnz	w1, 4023710 <a3700_pm_src_gpio+0x24>
 40236f4:	a9bf7bfd 	stp	x29, x30, [sp,#-16]!
 40236f8:	910003fd 	mov	x29, sp
 40236fc:	b9400400 	ldr	w0, [x0,#4]
 4023700:	97ffffd9 	bl	4023664 <a3700_pm_en_nb_gpio>
 4023704:	52800000 	mov	w0, #0x0                   	// #0
 4023708:	a8c17bfd 	ldp	x29, x30, [sp],#16
 402370c:	d65f03c0 	ret
 4023710:	d2880582 	mov	x2, #0x402c                	// #16428
 4023714:	b9400403 	ldr	w3, [x0,#4]
 4023718:	f2ba0022 	movk	x2, #0xd001, lsl #16
 402371c:	52860001 	mov	w1, #0x3000                	// #12288
 4023720:	72b00021 	movk	w1, #0x8001, lsl #16
 4023724:	b9400040 	ldr	w0, [x2]
 4023728:	2a010001 	orr	w1, w0, w1
 402372c:	b9000041 	str	w1, [x2]
 4023730:	d2920202 	mov	x2, #0x9010                	// #36880
 4023734:	52800020 	mov	w0, #0x1                   	// #1
 4023738:	f2ba0022 	movk	x2, #0xd001, lsl #16
 402373c:	1ac32000 	lsl	w0, w0, w3
 4023740:	b9400041 	ldr	w1, [x2]
 4023744:	32080021 	orr	w1, w1, #0x1000000
 4023748:	b9000041 	str	w1, [x2]
 402374c:	d2915d02 	mov	x2, #0x8ae8                	// #35560
 4023750:	f2ba0002 	movk	x2, #0xd000, lsl #16
 4023754:	b9400041 	ldr	w1, [x2]
 4023758:	0a200021 	bic	w1, w1, w0
 402375c:	b9000041 	str	w1, [x2]
 4023760:	d2918002 	mov	x2, #0x8c00                	// #35840
 4023764:	f2ba0022 	movk	x2, #0xd001, lsl #16
 4023768:	b9400041 	ldr	w1, [x2]
 402376c:	2a010000 	orr	w0, w0, w1
 4023770:	b9000040 	str	w0, [x2]
 4023774:	52800000 	mov	w0, #0x0                   	// #0
 4023778:	d65f03c0 	ret

000000000402377c <a3700_pm_src_uart1>:
 402377c:	d2870603 	mov	x3, #0x3830                	// #14384
 4023780:	f2ba0023 	movk	x3, #0xd001, lsl #16
 4023784:	a9bf7bfd 	stp	x29, x30, [sp,#-16]!
 4023788:	910003fd 	mov	x29, sp
 402378c:	b9400060 	ldr	w0, [x3]
 4023790:	120c7800 	and	w0, w0, #0xfff7ffff
 4023794:	b9000060 	str	w0, [x3]
 4023798:	b9400060 	ldr	w0, [x3]
 402379c:	32120000 	orr	w0, w0, #0x4000
 40237a0:	b9000060 	str	w0, [x3]
 40237a4:	52800260 	mov	w0, #0x13                  	// #19
 40237a8:	97ffffaf 	bl	4023664 <a3700_pm_en_nb_gpio>
 40237ac:	b9400060 	ldr	w0, [x3]
 40237b0:	32130000 	orr	w0, w0, #0x2000
 40237b4:	b9000060 	str	w0, [x3]
 40237b8:	52800240 	mov	w0, #0x12                  	// #18
 40237bc:	97ffffaa 	bl	4023664 <a3700_pm_en_nb_gpio>
 40237c0:	52800000 	mov	w0, #0x0                   	// #0
 40237c4:	a8c17bfd 	ldp	x29, x30, [sp],#16
 40237c8:	d65f03c0 	ret

00000000040237cc <a3700_pm_src_uart0>:
 40237cc:	d2870601 	mov	x1, #0x3830                	// #14384
 40237d0:	f2ba0021 	movk	x1, #0xd001, lsl #16
 40237d4:	a9bf7bfd 	stp	x29, x30, [sp,#-16]!
 40237d8:	910003fd 	mov	x29, sp
 40237dc:	b9400020 	ldr	w0, [x1]
 40237e0:	320f0000 	orr	w0, w0, #0x20000
 40237e4:	b9000020 	str	w0, [x1]
 40237e8:	52800320 	mov	w0, #0x19                  	// #25
 40237ec:	97ffff9e 	bl	4023664 <a3700_pm_en_nb_gpio>
 40237f0:	52800340 	mov	w0, #0x1a                  	// #26
 40237f4:	97ffff9c 	bl	4023664 <a3700_pm_en_nb_gpio>
 40237f8:	52800000 	mov	w0, #0x0                   	// #0
 40237fc:	a8c17bfd 	ldp	x29, x30, [sp],#16
 4023800:	d65f03c0 	ret

0000000004023804 <psci_arch_init>:
 4023804:	d65f03c0 	ret

0000000004023808 <marvell_get_dram_cs_base_size>:
 4023808:	7100041f 	cmp	w0, #0x1
 402380c:	54000508 	b.hi	40238ac <marvell_get_dram_cs_base_size+0xa4>
 4023810:	52800804 	mov	w4, #0x40                  	// #64
 4023814:	72a34004 	movk	w4, #0x1a00, lsl #16
 4023818:	0b040004 	add	w4, w0, w4
 402381c:	531d7080 	lsl	w0, w4, #3
 4023820:	aa0003e4 	mov	x4, x0
 4023824:	b9400005 	ldr	w5, [x0]
 4023828:	12800240 	mov	w0, #0xffffffed            	// #-19
 402382c:	36000425 	tbz	w5, #0, 40238b0 <marvell_get_dram_cs_base_size+0xa8>
 4023830:	11001084 	add	w4, w4, #0x4
 4023834:	53177ca0 	lsr	w0, w5, #23
 4023838:	b9000020 	str	w0, [x1]
 402383c:	d35050a5 	ubfx	x5, x5, #16, #5
 4023840:	b9400080 	ldr	w0, [x4]
 4023844:	b9000040 	str	w0, [x2]
 4023848:	b0000022 	adrp	x2, 4028000 <el1_sysregs_context_restore+0x20>
 402384c:	d2800000 	mov	x0, #0x0                   	// #0
 4023850:	9119a042 	add	x2, x2, #0x668
 4023854:	f100601f 	cmp	x0, #0x18
 4023858:	2a0003e4 	mov	w4, w0
 402385c:	54000200 	b.eq	402389c <marvell_get_dram_cs_base_size+0x94>
 4023860:	91000400 	add	x0, x0, #0x1
 4023864:	8b000c46 	add	x6, x2, x0, lsl #3
 4023868:	b85f80c6 	ldur	w6, [x6,#-8]
 402386c:	6b0600bf 	cmp	w5, w6
 4023870:	54ffff21 	b.ne	4023854 <marvell_get_dram_cs_base_size+0x4c>
 4023874:	8b24cc42 	add	x2, x2, w4, sxtw #3
 4023878:	71000cbf 	cmp	w5, #0x3
 402387c:	b9400442 	ldr	w2, [x2,#4]
 4023880:	b9000062 	str	w2, [x3]
 4023884:	54000108 	b.hi	40238a4 <marvell_get_dram_cs_base_size+0x9c>
 4023888:	b9400020 	ldr	w0, [x1]
 402388c:	53147c00 	lsr	w0, w0, #20
 4023890:	0b000400 	add	w0, w0, w0, lsl #1
 4023894:	6b02001f 	cmp	w0, w2
 4023898:	54000060 	b.eq	40238a4 <marvell_get_dram_cs_base_size+0x9c>
 402389c:	128001a0 	mov	w0, #0xfffffff2            	// #-14
 40238a0:	d65f03c0 	ret
 40238a4:	52800000 	mov	w0, #0x0                   	// #0
 40238a8:	d65f03c0 	ret
 40238ac:	12800000 	mov	w0, #0xffffffff            	// #-1
 40238b0:	d65f03c0 	ret

00000000040238b4 <dram_win_map_build>:
 40238b4:	a9be7bfd 	stp	x29, x30, [sp,#-32]!
 40238b8:	52800001 	mov	w1, #0x0                   	// #0
 40238bc:	d2800b02 	mov	x2, #0x58                  	// #88
 40238c0:	910003fd 	mov	x29, sp
 40238c4:	f9000bf3 	str	x19, [sp,#16]
 40238c8:	aa0003f3 	mov	x19, x0
 40238cc:	94000be2 	bl	4026854 <memset>
 40238d0:	d299e001 	mov	x1, #0xcf00                	// #52992
 40238d4:	d299ea06 	mov	x6, #0xcf50                	// #53072
 40238d8:	f2ba0001 	movk	x1, #0xd000, lsl #16
 40238dc:	91002264 	add	x4, x19, #0x8
 40238e0:	f2ba0006 	movk	x6, #0xd000, lsl #16
 40238e4:	b9400020 	ldr	w0, [x1]
 40238e8:	d3441c02 	ubfx	x2, x0, #4, #4
 40238ec:	12000000 	and	w0, w0, #0x1
 40238f0:	6b1f005f 	cmp	w2, wzr
 40238f4:	52000000 	eor	w0, w0, #0x1
 40238f8:	1a9f07e2 	cset	w2, ne
 40238fc:	2a000040 	orr	w0, w2, w0
 4023900:	350001a0 	cbnz	w0, 4023934 <dram_win_map_build+0x80>
 4023904:	b9400262 	ldr	w2, [x19]
 4023908:	b9400823 	ldr	w3, [x1,#8]
 402390c:	937c7c45 	sbfiz	x5, x2, #4, #32
 4023910:	b9400420 	ldr	w0, [x1,#4]
 4023914:	8b050087 	add	x7, x4, x5
 4023918:	d3703c63 	ubfiz	x3, x3, #16, #16
 402391c:	d3703c00 	ubfiz	x0, x0, #16, #16
 4023920:	11000442 	add	w2, w2, #0x1
 4023924:	f8256883 	str	x3, [x4,x5]
 4023928:	91404000 	add	x0, x0, #0x10, lsl #12
 402392c:	f90004e0 	str	x0, [x7,#8]
 4023930:	b9000262 	str	w2, [x19]
 4023934:	91004021 	add	x1, x1, #0x10
 4023938:	eb06003f 	cmp	x1, x6
 402393c:	54fffd41 	b.ne	40238e4 <dram_win_map_build+0x30>
 4023940:	f9400bf3 	ldr	x19, [sp,#16]
 4023944:	a8c27bfd 	ldp	x29, x30, [sp],#32
 4023948:	d65f03c0 	ret

000000000402394c <cpu_wins_init>:
 402394c:	a9bd7bfd 	stp	x29, x30, [sp,#-48]!
 4023950:	52800000 	mov	w0, #0x0                   	// #0
 4023954:	910003fd 	mov	x29, sp
 4023958:	9100b3a3 	add	x3, x29, #0x2c
 402395c:	9100a3a2 	add	x2, x29, #0x28
 4023960:	910093a1 	add	x1, x29, #0x24
 4023964:	f9000bf3 	str	x19, [sp,#16]
 4023968:	97ffffa8 	bl	4023808 <marvell_get_dram_cs_base_size>
 402396c:	b9402fb3 	ldr	w19, [x29,#44]
 4023970:	6b1f001f 	cmp	w0, wzr
 4023974:	9100b3a3 	add	x3, x29, #0x2c
 4023978:	9100a3a2 	add	x2, x29, #0x28
 402397c:	910093a1 	add	x1, x29, #0x24
 4023980:	52800020 	mov	w0, #0x1                   	// #1
 4023984:	1a9f0273 	csel	w19, w19, wzr, eq
 4023988:	97ffffa0 	bl	4023808 <marvell_get_dram_cs_base_size>
 402398c:	35000060 	cbnz	w0, 4023998 <cpu_wins_init+0x4c>
 4023990:	b9402fa0 	ldr	w0, [x29,#44]
 4023994:	0b000273 	add	w19, w19, w0
 4023998:	7120027f 	cmp	w19, #0x800
 402399c:	f0000020 	adrp	x0, 402a000 <__RO_END__>
 40239a0:	9a9f97e1 	cset	x1, hi
 40239a4:	d2801402 	mov	x2, #0xa0                  	// #160
 40239a8:	91010000 	add	x0, x0, #0x40
 40239ac:	d299ea05 	mov	x5, #0xcf50                	// #53072
 40239b0:	12801e26 	mov	w6, #0xffffff0e            	// #-242
 40239b4:	f2ba0005 	movk	x5, #0xd000, lsl #16
 40239b8:	9b020020 	madd	x0, x1, x2, x0
 40239bc:	d299e201 	mov	x1, #0xcf10                	// #53008
 40239c0:	91008000 	add	x0, x0, #0x20
 40239c4:	f2ba0001 	movk	x1, #0xd000, lsl #16
 40239c8:	b9400024 	ldr	w4, [x1]
 40239cc:	121f7882 	and	w2, w4, #0xfffffffe
 40239d0:	b9000022 	str	w2, [x1]
 40239d4:	b9400002 	ldr	w2, [x0]
 40239d8:	340001e2 	cbz	w2, 4023a14 <cpu_wins_init+0xc8>
 40239dc:	79401402 	ldrh	w2, [x0,#10]
 40239e0:	b9000822 	str	w2, [x1,#8]
 40239e4:	79403402 	ldrh	w2, [x0,#26]
 40239e8:	b9000c22 	str	w2, [x1,#12]
 40239ec:	f9400802 	ldr	x2, [x0,#16]
 40239f0:	d350fc42 	lsr	x2, x2, #16
 40239f4:	51000442 	sub	w2, w2, #0x1
 40239f8:	12003c42 	and	w2, w2, #0xffff
 40239fc:	b9000422 	str	w2, [x1,#4]
 4023a00:	0a060082 	and	w2, w4, w6
 4023a04:	b9400403 	ldr	w3, [x0,#4]
 4023a08:	2a031042 	orr	w2, w2, w3, lsl #4
 4023a0c:	32000042 	orr	w2, w2, #0x1
 4023a10:	b9000022 	str	w2, [x1]
 4023a14:	91004021 	add	x1, x1, #0x10
 4023a18:	91008000 	add	x0, x0, #0x20
 4023a1c:	eb05003f 	cmp	x1, x5
 4023a20:	54fffd41 	b.ne	40239c8 <cpu_wins_init+0x7c>
 4023a24:	f9400bf3 	ldr	x19, [sp,#16]
 4023a28:	a8c37bfd 	ldp	x29, x30, [sp],#48
 4023a2c:	d65f03c0 	ret

0000000004023a30 <set_io_addr_dec_win>:
 4023a30:	d350fc42 	lsr	x2, x2, #16
 4023a34:	b9401065 	ldr	w5, [x3,#16]
 4023a38:	51000444 	sub	w4, w2, #0x1
 4023a3c:	d350fc21 	lsr	x1, x1, #16
 4023a40:	29400866 	ldp	w6, w2, [x3]
 4023a44:	53103c21 	lsl	w1, w1, #16
 4023a48:	53185c42 	lsl	w2, w2, #8
 4023a4c:	2a044042 	orr	w2, w2, w4, lsl #16
 4023a50:	52800084 	mov	w4, #0x4                   	// #4
 4023a54:	72ba0004 	movk	w4, #0xd000, lsl #16
 4023a58:	0b0400c4 	add	w4, w6, w4
 4023a5c:	1b051004 	madd	w4, w0, w5, w4
 4023a60:	b9000081 	str	w1, [x4]
 4023a64:	b9400c64 	ldr	w4, [x3,#12]
 4023a68:	6b04001f 	cmp	w0, w4
 4023a6c:	54000102 	b.cs	4023a8c <set_io_addr_dec_win+0x5c>
 4023a70:	b9400066 	ldr	w6, [x3]
 4023a74:	52800104 	mov	w4, #0x8                   	// #8
 4023a78:	b9401065 	ldr	w5, [x3,#16]
 4023a7c:	72ba0004 	movk	w4, #0xd000, lsl #16
 4023a80:	0b0400c4 	add	w4, w6, w4
 4023a84:	1b051004 	madd	w4, w0, w5, w4
 4023a88:	b9000081 	str	w1, [x4]
 4023a8c:	b9400064 	ldr	w4, [x3]
 4023a90:	52ba0001 	mov	w1, #0xd0000000            	// #-805306368
 4023a94:	b9401065 	ldr	w5, [x3,#16]
 4023a98:	0b010084 	add	w4, w4, w1
 4023a9c:	1b051004 	madd	w4, w0, w5, w4
 4023aa0:	b9000082 	str	w2, [x4]
 4023aa4:	32000042 	orr	w2, w2, #0x1
 4023aa8:	b9401064 	ldr	w4, [x3,#16]
 4023aac:	b9400063 	ldr	w3, [x3]
 4023ab0:	0b010061 	add	w1, w3, w1
 4023ab4:	1b040400 	madd	w0, w0, w4, w1
 4023ab8:	b9000002 	str	w2, [x0]
 4023abc:	d65f03c0 	ret

0000000004023ac0 <init_io_addr_dec>:
 4023ac0:	a9bf7bfd 	stp	x29, x30, [sp,#-16]!
 4023ac4:	eb1f003f 	cmp	x1, xzr
 4023ac8:	aa0103e7 	mov	x7, x1
 4023acc:	7a5f1044 	ccmp	w2, wzr, #0x4, ne
 4023ad0:	910003fd 	mov	x29, sp
 4023ad4:	54000081 	b.ne	4023ae4 <init_io_addr_dec+0x24>
 4023ad8:	b0000020 	adrp	x0, 4028000 <el1_sysregs_context_restore+0x20>
 4023adc:	911ca000 	add	x0, x0, #0x728
 4023ae0:	14000013 	b	4023b2c <init_io_addr_dec+0x6c>
 4023ae4:	7100385f 	cmp	w2, #0xe
 4023ae8:	2a0203e1 	mov	w1, w2
 4023aec:	540000e9 	b.ls	4023b08 <init_io_addr_dec+0x48>
 4023af0:	b0000020 	adrp	x0, 4028000 <el1_sysregs_context_restore+0x20>
 4023af4:	528001c2 	mov	w2, #0xe                   	// #14
 4023af8:	911d8000 	add	x0, x0, #0x760
 4023afc:	94000a95 	bl	4026550 <tf_printf>
 4023b00:	12800000 	mov	w0, #0xffffffff            	// #-1
 4023b04:	1400002d 	b	4023bb8 <init_io_addr_dec+0xf8>
 4023b08:	aa0003ea 	mov	x10, x0
 4023b0c:	b40000c0 	cbz	x0, 4023b24 <init_io_addr_dec+0x64>
 4023b10:	52800288 	mov	w8, #0x14                  	// #20
 4023b14:	52ba000b 	mov	w11, #0xd0000000            	// #-805306368
 4023b18:	9ba87c41 	umull	x1, w2, w8
 4023b1c:	8b0100e8 	add	x8, x7, x1
 4023b20:	1400000f 	b	4023b5c <init_io_addr_dec+0x9c>
 4023b24:	b0000020 	adrp	x0, 4028000 <el1_sysregs_context_restore+0x20>
 4023b28:	911e9400 	add	x0, x0, #0x7a5
 4023b2c:	94000a89 	bl	4026550 <tf_printf>
 4023b30:	17fffff4 	b	4023b00 <init_io_addr_dec+0x40>
 4023b34:	b9400140 	ldr	w0, [x10]
 4023b38:	52800009 	mov	w9, #0x0                   	// #0
 4023b3c:	6b00003f 	cmp	w1, w0
 4023b40:	54000282 	b.cs	4023b90 <init_io_addr_dec+0xd0>
 4023b44:	aa0703e3 	mov	x3, x7
 4023b48:	d2c00022 	mov	x2, #0x100000000           	// #4294967296
 4023b4c:	d2800001 	mov	x1, #0x0                   	// #0
 4023b50:	52800000 	mov	w0, #0x0                   	// #0
 4023b54:	97ffffb7 	bl	4023a30 <set_io_addr_dec_win>
 4023b58:	910050e7 	add	x7, x7, #0x14
 4023b5c:	eb0800ff 	cmp	x7, x8
 4023b60:	52800000 	mov	w0, #0x0                   	// #0
 4023b64:	540002a0 	b.eq	4023bb8 <init_io_addr_dec+0xf8>
 4023b68:	b94008e1 	ldr	w1, [x7,#8]
 4023b6c:	6b01001f 	cmp	w0, w1
 4023b70:	54fffe22 	b.cs	4023b34 <init_io_addr_dec+0x74>
 4023b74:	b94000e1 	ldr	w1, [x7]
 4023b78:	0b0b0022 	add	w2, w1, w11
 4023b7c:	b94010e1 	ldr	w1, [x7,#16]
 4023b80:	1b010801 	madd	w1, w0, w1, w2
 4023b84:	11000400 	add	w0, w0, #0x1
 4023b88:	b900003f 	str	wzr, [x1]
 4023b8c:	17fffff7 	b	4023b68 <init_io_addr_dec+0xa8>
 4023b90:	b9400140 	ldr	w0, [x10]
 4023b94:	6b00013f 	cmp	w9, w0
 4023b98:	54fffe0a 	b.ge	4023b58 <init_io_addr_dec+0x98>
 4023b9c:	8b29d140 	add	x0, x10, w9, sxtw #4
 4023ba0:	aa0703e3 	mov	x3, x7
 4023ba4:	a9408801 	ldp	x1, x2, [x0,#8]
 4023ba8:	2a0903e0 	mov	w0, w9
 4023bac:	97ffffa1 	bl	4023a30 <set_io_addr_dec_win>
 4023bb0:	11000529 	add	w9, w9, #0x1
 4023bb4:	17fffff7 	b	4023b90 <init_io_addr_dec+0xd0>
 4023bb8:	a8c17bfd 	ldp	x29, x30, [sp],#16
 4023bbc:	d65f03c0 	ret

0000000004023bc0 <marvell_get_io_dec_win_conf>:
 4023bc0:	f0000022 	adrp	x2, 402a000 <__RO_END__>
 4023bc4:	91060042 	add	x2, x2, #0x180
 4023bc8:	f9000002 	str	x2, [x0]
 4023bcc:	52800140 	mov	w0, #0xa                   	// #10
 4023bd0:	b9000020 	str	w0, [x1]
 4023bd4:	52800000 	mov	w0, #0x0                   	// #0
 4023bd8:	d65f03c0 	ret

0000000004023bdc <bl31_plat_arch_setup>:
 4023bdc:	a9b77bfd 	stp	x29, x30, [sp,#-144]!
 4023be0:	910003fd 	mov	x29, sp
 4023be4:	a90153f3 	stp	x19, x20, [sp,#16]
 4023be8:	94000354 	bl	4024938 <marvell_bl31_plat_arch_setup>
 4023bec:	910103b4 	add	x20, x29, #0x40
 4023bf0:	d2870601 	mov	x1, #0x3830                	// #14384
 4023bf4:	52800253 	mov	w19, #0x12                  	// #18
 4023bf8:	f2ba0021 	movk	x1, #0xd001, lsl #16
 4023bfc:	b9400020 	ldr	w0, [x1]
 4023c00:	12157800 	and	w0, w0, #0xfffffbff
 4023c04:	b9000020 	str	w0, [x1]
 4023c08:	d2870081 	mov	x1, #0x3804                	// #14340
 4023c0c:	f2ba0021 	movk	x1, #0xd001, lsl #16
 4023c10:	b9400020 	ldr	w0, [x1]
 4023c14:	32040000 	orr	w0, w0, #0x10000000
 4023c18:	b9000020 	str	w0, [x1]
 4023c1c:	940003a0 	bl	4024a9c <plat_delay_timer_init>
 4023c20:	97ffff4b 	bl	402394c <cpu_wins_init>
 4023c24:	9100e3a0 	add	x0, x29, #0x38
 4023c28:	97ffff23 	bl	40238b4 <dram_win_map_build>
 4023c2c:	b9403ba1 	ldr	w1, [x29,#56]
 4023c30:	51004a60 	sub	w0, w19, #0x12
 4023c34:	6b01001f 	cmp	w0, w1
 4023c38:	540000c2 	b.cs	4023c50 <bl31_plat_arch_setup+0x74>
 4023c3c:	b9400281 	ldr	w1, [x20]
 4023c40:	51001660 	sub	w0, w19, #0x5
 4023c44:	9400001c 	bl	4023cb4 <set_info>
 4023c48:	b9400a81 	ldr	w1, [x20,#8]
 4023c4c:	14000002 	b	4023c54 <bl31_plat_arch_setup+0x78>
 4023c50:	52800001 	mov	w1, #0x0                   	// #0
 4023c54:	2a1303e0 	mov	w0, w19
 4023c58:	11000673 	add	w19, w19, #0x1
 4023c5c:	91004294 	add	x20, x20, #0x10
 4023c60:	94000015 	bl	4023cb4 <set_info>
 4023c64:	71005e7f 	cmp	w19, #0x17
 4023c68:	54fffe21 	b.ne	4023c2c <bl31_plat_arch_setup+0x50>
 4023c6c:	9100b3a1 	add	x1, x29, #0x2c
 4023c70:	9100c3a0 	add	x0, x29, #0x30
 4023c74:	97ffffd3 	bl	4023bc0 <marvell_get_io_dec_win_conf>
 4023c78:	34000080 	cbz	w0, 4023c88 <bl31_plat_arch_setup+0xac>
 4023c7c:	b0000020 	adrp	x0, 4028000 <el1_sysregs_context_restore+0x20>
 4023c80:	9117f000 	add	x0, x0, #0x5fc
 4023c84:	14000008 	b	4023ca4 <bl31_plat_arch_setup+0xc8>
 4023c88:	b9402fa2 	ldr	w2, [x29,#44]
 4023c8c:	9100e3a0 	add	x0, x29, #0x38
 4023c90:	f9401ba1 	ldr	x1, [x29,#48]
 4023c94:	97ffff8b 	bl	4023ac0 <init_io_addr_dec>
 4023c98:	34000080 	cbz	w0, 4023ca8 <bl31_plat_arch_setup+0xcc>
 4023c9c:	b0000020 	adrp	x0, 4028000 <el1_sysregs_context_restore+0x20>
 4023ca0:	9118c400 	add	x0, x0, #0x631
 4023ca4:	94000b0d 	bl	40268d8 <printf>
 4023ca8:	a94153f3 	ldp	x19, x20, [sp,#16]
 4023cac:	a8c97bfd 	ldp	x29, x30, [sp],#144
 4023cb0:	d65f03c0 	ret

0000000004023cb4 <set_info>:
 4023cb4:	f0000023 	adrp	x3, 402a000 <__RO_END__>
 4023cb8:	f0000024 	adrp	x4, 402a000 <__RO_END__>
 4023cbc:	b9425062 	ldr	w2, [x3,#592]
 4023cc0:	7100045f 	cmp	w2, #0x1
 4023cc4:	54000061 	b.ne	4023cd0 <set_info+0x1c>
 4023cc8:	f9412485 	ldr	x5, [x4,#584]
 4023ccc:	b90000bf 	str	wzr, [x5]
 4023cd0:	f9412484 	ldr	x4, [x4,#584]
 4023cd4:	937d7c45 	sbfiz	x5, x2, #3, #32
 4023cd8:	11000442 	add	w2, w2, #0x1
 4023cdc:	8b050086 	add	x6, x4, x5
 4023ce0:	b8256880 	str	w0, [x4,x5]
 4023ce4:	b9025062 	str	w2, [x3,#592]
 4023ce8:	b90004c1 	str	w1, [x6,#4]
 4023cec:	b9000482 	str	w2, [x4,#4]
 4023cf0:	d65f03c0 	ret

0000000004023cf4 <plat_marvell_gic_driver_init>:
 4023cf4:	b0000020 	adrp	x0, 4028000 <el1_sysregs_context_restore+0x20>
 4023cf8:	911fe000 	add	x0, x0, #0x7f8
 4023cfc:	14000088 	b	4023f1c <gicv3_driver_init>

0000000004023d00 <plat_marvell_gic_init>:
 4023d00:	a9bf7bfd 	stp	x29, x30, [sp,#-16]!
 4023d04:	910003fd 	mov	x29, sp
 4023d08:	94000096 	bl	4023f60 <gicv3_distif_init>
 4023d0c:	940011d3 	bl	4028458 <plat_my_core_pos>
 4023d10:	940000c1 	bl	4024014 <gicv3_rdistif_init>
 4023d14:	940011d1 	bl	4028458 <plat_my_core_pos>
 4023d18:	a8c17bfd 	ldp	x29, x30, [sp],#16
 4023d1c:	140000dc 	b	402408c <gicv3_cpuif_enable>

0000000004023d20 <plat_marvell_gic_cpuif_enable>:
 4023d20:	a9bf7bfd 	stp	x29, x30, [sp,#-16]!
 4023d24:	910003fd 	mov	x29, sp
 4023d28:	940011cc 	bl	4028458 <plat_my_core_pos>
 4023d2c:	a8c17bfd 	ldp	x29, x30, [sp],#16
 4023d30:	140000d7 	b	402408c <gicv3_cpuif_enable>

0000000004023d34 <plat_marvell_gic_cpuif_disable>:
 4023d34:	a9bf7bfd 	stp	x29, x30, [sp,#-16]!
 4023d38:	910003fd 	mov	x29, sp
 4023d3c:	940011c7 	bl	4028458 <plat_my_core_pos>
 4023d40:	a8c17bfd 	ldp	x29, x30, [sp],#16
 4023d44:	140000f3 	b	4024110 <gicv3_cpuif_disable>

0000000004023d48 <plat_marvell_gic_pcpu_init>:
 4023d48:	a9bf7bfd 	stp	x29, x30, [sp,#-16]!
 4023d4c:	910003fd 	mov	x29, sp
 4023d50:	940011c2 	bl	4028458 <plat_my_core_pos>
 4023d54:	a8c17bfd 	ldp	x29, x30, [sp],#16
 4023d58:	140000af 	b	4024014 <gicv3_rdistif_init>

0000000004023d5c <plat_marvell_gic_irq_save>:
 4023d5c:	d2ba3a00 	mov	x0, #0xd1d00000            	// #3520069632
 4023d60:	140000fe 	b	4024158 <gicv3_irq_save>

0000000004023d64 <plat_marvell_gic_irq_restore>:
 4023d64:	d2ba3a00 	mov	x0, #0xd1d00000            	// #3520069632
 4023d68:	1400013a 	b	4024250 <gicv3_irq_restore>

0000000004023d6c <plat_marvell_gic_irq_pcpu_save>:
 4023d6c:	a9be7bfd 	stp	x29, x30, [sp,#-32]!
 4023d70:	910003fd 	mov	x29, sp
 4023d74:	f9000bf3 	str	x19, [sp,#16]
 4023d78:	940011b8 	bl	4028458 <plat_my_core_pos>
 4023d7c:	f0000021 	adrp	x1, 402a000 <__RO_END__>
 4023d80:	912b0021 	add	x1, x1, #0xac0
 4023d84:	f8605833 	ldr	x19, [x1,w0,uxtw #3]
 4023d88:	940011b4 	bl	4028458 <plat_my_core_pos>
 4023d8c:	2a0003e1 	mov	w1, w0
 4023d90:	aa1303e0 	mov	x0, x19
 4023d94:	f9400bf3 	ldr	x19, [sp,#16]
 4023d98:	a8c27bfd 	ldp	x29, x30, [sp],#32
 4023d9c:	1400017c 	b	402438c <gicv3_irq_pcpu_save>

0000000004023da0 <plat_marvell_gic_irq_pcpu_restore>:
 4023da0:	a9be7bfd 	stp	x29, x30, [sp,#-32]!
 4023da4:	910003fd 	mov	x29, sp
 4023da8:	f9000bf3 	str	x19, [sp,#16]
 4023dac:	940011ab 	bl	4028458 <plat_my_core_pos>
 4023db0:	f0000021 	adrp	x1, 402a000 <__RO_END__>
 4023db4:	912b0021 	add	x1, x1, #0xac0
 4023db8:	f8605833 	ldr	x19, [x1,w0,uxtw #3]
 4023dbc:	940011a7 	bl	4028458 <plat_my_core_pos>
 4023dc0:	2a0003e1 	mov	w1, w0
 4023dc4:	aa1303e0 	mov	x0, x19
 4023dc8:	f9400bf3 	ldr	x19, [sp,#16]
 4023dcc:	a8c27bfd 	ldp	x29, x30, [sp],#32
 4023dd0:	1400017e 	b	40243c8 <gicv3_irq_pcpu_restore>

0000000004023dd4 <gicd_read_igroupr>:
 4023dd4:	53057c21 	lsr	w1, w1, #5
 4023dd8:	91020000 	add	x0, x0, #0x80
 4023ddc:	d37e6821 	ubfiz	x1, x1, #2, #27
 4023de0:	b8606820 	ldr	w0, [x1,x0]
 4023de4:	d65f03c0 	ret

0000000004023de8 <gicd_read_isenabler>:
 4023de8:	53057c21 	lsr	w1, w1, #5
 4023dec:	91040000 	add	x0, x0, #0x100
 4023df0:	d37e6821 	ubfiz	x1, x1, #2, #27
 4023df4:	b8606820 	ldr	w0, [x1,x0]
 4023df8:	d65f03c0 	ret

0000000004023dfc <gicd_read_isactiver>:
 4023dfc:	53057c21 	lsr	w1, w1, #5
 4023e00:	910c0000 	add	x0, x0, #0x300
 4023e04:	d37e6821 	ubfiz	x1, x1, #2, #27
 4023e08:	b8606820 	ldr	w0, [x1,x0]
 4023e0c:	d65f03c0 	ret

0000000004023e10 <gicd_read_itargetsr>:
 4023e10:	927e7421 	and	x1, x1, #0xfffffffc
 4023e14:	91200000 	add	x0, x0, #0x800
 4023e18:	b8606820 	ldr	w0, [x1,x0]
 4023e1c:	d65f03c0 	ret

0000000004023e20 <gicd_read_icfgr>:
 4023e20:	53047c21 	lsr	w1, w1, #4
 4023e24:	91300000 	add	x0, x0, #0xc00
 4023e28:	d37e6c21 	ubfiz	x1, x1, #2, #28
 4023e2c:	b8606820 	ldr	w0, [x1,x0]
 4023e30:	d65f03c0 	ret

0000000004023e34 <gicd_write_igroupr>:
 4023e34:	53057c21 	lsr	w1, w1, #5
 4023e38:	91020000 	add	x0, x0, #0x80
 4023e3c:	d37e6821 	ubfiz	x1, x1, #2, #27
 4023e40:	b8206822 	str	w2, [x1,x0]
 4023e44:	d65f03c0 	ret

0000000004023e48 <gicd_write_isenabler>:
 4023e48:	53057c21 	lsr	w1, w1, #5
 4023e4c:	91040000 	add	x0, x0, #0x100
 4023e50:	d37e6821 	ubfiz	x1, x1, #2, #27
 4023e54:	b8206822 	str	w2, [x1,x0]
 4023e58:	d65f03c0 	ret

0000000004023e5c <gicd_write_icenabler>:
 4023e5c:	53057c21 	lsr	w1, w1, #5
 4023e60:	91060000 	add	x0, x0, #0x180
 4023e64:	d37e6821 	ubfiz	x1, x1, #2, #27
 4023e68:	b8206822 	str	w2, [x1,x0]
 4023e6c:	d65f03c0 	ret

0000000004023e70 <gicd_write_isactiver>:
 4023e70:	53057c21 	lsr	w1, w1, #5
 4023e74:	910c0000 	add	x0, x0, #0x300
 4023e78:	d37e6821 	ubfiz	x1, x1, #2, #27
 4023e7c:	b8206822 	str	w2, [x1,x0]
 4023e80:	d65f03c0 	ret

0000000004023e84 <gicd_write_icactiver>:
 4023e84:	53057c21 	lsr	w1, w1, #5
 4023e88:	910e0000 	add	x0, x0, #0x380
 4023e8c:	d37e6821 	ubfiz	x1, x1, #2, #27
 4023e90:	b8206822 	str	w2, [x1,x0]
 4023e94:	d65f03c0 	ret

0000000004023e98 <gicd_write_ipriorityr>:
 4023e98:	927e7421 	and	x1, x1, #0xfffffffc
 4023e9c:	91100000 	add	x0, x0, #0x400
 4023ea0:	b8206822 	str	w2, [x1,x0]
 4023ea4:	d65f03c0 	ret

0000000004023ea8 <gicd_write_itargetsr>:
 4023ea8:	927e7421 	and	x1, x1, #0xfffffffc
 4023eac:	91200000 	add	x0, x0, #0x800
 4023eb0:	b8206822 	str	w2, [x1,x0]
 4023eb4:	d65f03c0 	ret

0000000004023eb8 <gicd_write_icfgr>:
 4023eb8:	53047c21 	lsr	w1, w1, #4
 4023ebc:	91300000 	add	x0, x0, #0xc00
 4023ec0:	d37e6c21 	ubfiz	x1, x1, #2, #28
 4023ec4:	b8206822 	str	w2, [x1,x0]
 4023ec8:	d65f03c0 	ret

0000000004023ecc <gicd_clr_igroupr>:
 4023ecc:	a9bf7bfd 	stp	x29, x30, [sp,#-16]!
 4023ed0:	2a0103e3 	mov	w3, w1
 4023ed4:	aa0003e4 	mov	x4, x0
 4023ed8:	910003fd 	mov	x29, sp
 4023edc:	97ffffbe 	bl	4023dd4 <gicd_read_igroupr>
 4023ee0:	2a0303e1 	mov	w1, w3
 4023ee4:	52800022 	mov	w2, #0x1                   	// #1
 4023ee8:	1ac32042 	lsl	w2, w2, w3
 4023eec:	a8c17bfd 	ldp	x29, x30, [sp],#16
 4023ef0:	0a220002 	bic	w2, w0, w2
 4023ef4:	aa0403e0 	mov	x0, x4
 4023ef8:	17ffffcf 	b	4023e34 <gicd_write_igroupr>

0000000004023efc <gicd_set_isenabler>:
 4023efc:	52800022 	mov	w2, #0x1                   	// #1
 4023f00:	1ac12042 	lsl	w2, w2, w1
 4023f04:	17ffffd1 	b	4023e48 <gicd_write_isenabler>

0000000004023f08 <gicd_set_ipriorityr>:
 4023f08:	91100000 	add	x0, x0, #0x400
 4023f0c:	2a0103e1 	mov	w1, w1
 4023f10:	53001c42 	uxtb	w2, w2
 4023f14:	38216802 	strb	w2, [x0,x1]
 4023f18:	d65f03c0 	ret

0000000004023f1c <gicv3_driver_init>:
 4023f1c:	a9be7bfd 	stp	x29, x30, [sp,#-32]!
 4023f20:	d29ffd01 	mov	x1, #0xffe8                	// #65512
 4023f24:	910003fd 	mov	x29, sp
 4023f28:	f9000bf3 	str	x19, [sp,#16]
 4023f2c:	aa0003f3 	mov	x19, x0
 4023f30:	a9400800 	ldp	x0, x2, [x0]
 4023f34:	f9401e63 	ldr	x3, [x19,#56]
 4023f38:	b8616801 	ldr	w1, [x0,x1]
 4023f3c:	b9400000 	ldr	w0, [x0]
 4023f40:	b9402a61 	ldr	w1, [x19,#40]
 4023f44:	f9401a60 	ldr	x0, [x19,#48]
 4023f48:	94000187 	bl	4024564 <gicv3_rdistif_base_addrs_probe>
 4023f4c:	90000040 	adrp	x0, 402b000 <spi_state+0x530>
 4023f50:	f903c013 	str	x19, [x0,#1920]
 4023f54:	f9400bf3 	ldr	x19, [sp,#16]
 4023f58:	a8c27bfd 	ldp	x29, x30, [sp],#32
 4023f5c:	d65f03c0 	ret

0000000004023f60 <gicv3_distif_init>:
 4023f60:	a9be7bfd 	stp	x29, x30, [sp,#-32]!
 4023f64:	910003fd 	mov	x29, sp
 4023f68:	a90153f3 	stp	x19, x20, [sp,#16]
 4023f6c:	90000053 	adrp	x19, 402b000 <spi_state+0x530>
 4023f70:	f943c260 	ldr	x0, [x19,#1920]
 4023f74:	f9400000 	ldr	x0, [x0]
 4023f78:	b9400001 	ldr	w1, [x0]
 4023f7c:	121d7021 	and	w1, w1, #0xfffffff8
 4023f80:	b9000001 	str	w1, [x0]
 4023f84:	b9400001 	ldr	w1, [x0]
 4023f88:	37ffffe1 	tbnz	w1, #31, 4023f84 <gicv3_distif_init+0x24>
 4023f8c:	b9400001 	ldr	w1, [x0]
 4023f90:	321c0421 	orr	w1, w1, #0x30
 4023f94:	b9000001 	str	w1, [x0]
 4023f98:	b9400001 	ldr	w1, [x0]
 4023f9c:	37ffffe1 	tbnz	w1, #31, 4023f98 <gicv3_distif_init+0x38>
 4023fa0:	94000186 	bl	40245b8 <gicv3_spis_configure_defaults>
 4023fa4:	52800014 	mov	w20, #0x0                   	// #0
 4023fa8:	f943c260 	ldr	x0, [x19,#1920]
 4023fac:	f9401002 	ldr	x2, [x0,#32]
 4023fb0:	b40000c2 	cbz	x2, 4023fc8 <gicv3_distif_init+0x68>
 4023fb4:	b9401401 	ldr	w1, [x0,#20]
 4023fb8:	52800003 	mov	w3, #0x0                   	// #0
 4023fbc:	f9400000 	ldr	x0, [x0]
 4023fc0:	52800094 	mov	w20, #0x4                   	// #4
 4023fc4:	940001a4 	bl	4024654 <gicv3_secure_spis_configure>
 4023fc8:	f943c260 	ldr	x0, [x19,#1920]
 4023fcc:	f9400c02 	ldr	x2, [x0,#24]
 4023fd0:	b40000c2 	cbz	x2, 4023fe8 <gicv3_distif_init+0x88>
 4023fd4:	b9401001 	ldr	w1, [x0,#16]
 4023fd8:	52800023 	mov	w3, #0x1                   	// #1
 4023fdc:	f9400000 	ldr	x0, [x0]
 4023fe0:	32000294 	orr	w20, w20, #0x1
 4023fe4:	9400019c 	bl	4024654 <gicv3_secure_spis_configure>
 4023fe8:	f943c260 	ldr	x0, [x19,#1920]
 4023fec:	f9400000 	ldr	x0, [x0]
 4023ff0:	b9400001 	ldr	w1, [x0]
 4023ff4:	2a010294 	orr	w20, w20, w1
 4023ff8:	b9000014 	str	w20, [x0]
 4023ffc:	b9400001 	ldr	w1, [x0]
 4024000:	37ffffe1 	tbnz	w1, #31, 4023ffc <gicv3_distif_init+0x9c>
 4024004:	a94153f3 	ldp	x19, x20, [sp,#16]
 4024008:	a8c27bfd 	ldp	x29, x30, [sp],#32
 402400c:	d65f03c0 	ret

0000000004024010 <gicv3_rdistif_on>:
 4024010:	d65f03c0 	ret

0000000004024014 <gicv3_rdistif_init>:
 4024014:	a9be7bfd 	stp	x29, x30, [sp,#-32]!
 4024018:	910003fd 	mov	x29, sp
 402401c:	a90153f3 	stp	x19, x20, [sp,#16]
 4024020:	f0000033 	adrp	x19, 402b000 <spi_state+0x530>
 4024024:	2a0003f4 	mov	w20, w0
 4024028:	97fffffa 	bl	4024010 <gicv3_rdistif_on>
 402402c:	f943c260 	ldr	x0, [x19,#1920]
 4024030:	f9401800 	ldr	x0, [x0,#48]
 4024034:	f8745814 	ldr	x20, [x0,w20,uxtw #3]
 4024038:	aa1403e0 	mov	x0, x20
 402403c:	940001b3 	bl	4024708 <gicv3_ppi_sgi_configure_defaults>
 4024040:	f943c260 	ldr	x0, [x19,#1920]
 4024044:	f9401002 	ldr	x2, [x0,#32]
 4024048:	b40000a2 	cbz	x2, 402405c <gicv3_rdistif_init+0x48>
 402404c:	b9401401 	ldr	w1, [x0,#20]
 4024050:	52800003 	mov	w3, #0x0                   	// #0
 4024054:	aa1403e0 	mov	x0, x20
 4024058:	940001c1 	bl	402475c <gicv3_secure_ppi_sgi_configure>
 402405c:	f943c260 	ldr	x0, [x19,#1920]
 4024060:	f9400c02 	ldr	x2, [x0,#24]
 4024064:	b40000e2 	cbz	x2, 4024080 <gicv3_rdistif_init+0x6c>
 4024068:	b9401001 	ldr	w1, [x0,#16]
 402406c:	aa1403e0 	mov	x0, x20
 4024070:	a94153f3 	ldp	x19, x20, [sp,#16]
 4024074:	a8c27bfd 	ldp	x29, x30, [sp],#32
 4024078:	52800023 	mov	w3, #0x1                   	// #1
 402407c:	140001b8 	b	402475c <gicv3_secure_ppi_sgi_configure>
 4024080:	a94153f3 	ldp	x19, x20, [sp,#16]
 4024084:	a8c27bfd 	ldp	x29, x30, [sp],#32
 4024088:	d65f03c0 	ret

000000000402408c <gicv3_cpuif_enable>:
 402408c:	f0000021 	adrp	x1, 402b000 <spi_state+0x530>
 4024090:	a9bf7bfd 	stp	x29, x30, [sp,#-16]!
 4024094:	910003fd 	mov	x29, sp
 4024098:	f943c021 	ldr	x1, [x1,#1920]
 402409c:	f9401821 	ldr	x1, [x1,#48]
 40240a0:	f8605820 	ldr	x0, [x1,w0,uxtw #3]
 40240a4:	94000122 	bl	402452c <gicv3_rdistif_mark_core_awake>
 40240a8:	d53ecca0 	mrs	x0, s3_6_c12_c12_5
 40240ac:	b2400c00 	orr	x0, x0, #0xf
 40240b0:	d51ecca0 	msr	s3_6_c12_c12_5, x0
 40240b4:	d53e1100 	mrs	x0, scr_el3
 40240b8:	32000001 	orr	w1, w0, #0x1
 40240bc:	d51e1101 	msr	scr_el3, x1
 40240c0:	d5033fdf 	isb
 40240c4:	d53cc9a1 	mrs	x1, s3_4_c12_c9_5
 40240c8:	b2400c21 	orr	x1, x1, #0xf
 40240cc:	d51cc9a1 	msr	s3_4_c12_c9_5, x1
 40240d0:	d2800021 	mov	x1, #0x1                   	// #1
 40240d4:	d518cca1 	msr	s3_0_c12_c12_5, x1
 40240d8:	d5033fdf 	isb
 40240dc:	927f7800 	and	x0, x0, #0xfffffffe
 40240e0:	d51e1100 	msr	scr_el3, x0
 40240e4:	d5033fdf 	isb
 40240e8:	d2801fe0 	mov	x0, #0xff                  	// #255
 40240ec:	d5184600 	msr	s3_0_c4_c6_0, x0
 40240f0:	d518ccc1 	msr	s3_0_c12_c12_6, x1
 40240f4:	d53ecce0 	mrs	x0, s3_6_c12_c12_7
 40240f8:	b27f0000 	orr	x0, x0, #0x2
 40240fc:	d51ecce0 	msr	s3_6_c12_c12_7, x0
 4024100:	d518cca1 	msr	s3_0_c12_c12_5, x1
 4024104:	d5033fdf 	isb
 4024108:	a8c17bfd 	ldp	x29, x30, [sp],#16
 402410c:	d65f03c0 	ret

0000000004024110 <gicv3_cpuif_disable>:
 4024110:	d53ecca1 	mrs	x1, s3_6_c12_c12_5
 4024114:	b27f0421 	orr	x1, x1, #0x6
 4024118:	d51ecca1 	msr	s3_6_c12_c12_5, x1
 402411c:	d538ccc1 	mrs	x1, s3_0_c12_c12_6
 4024120:	927ff821 	and	x1, x1, #0xfffffffffffffffe
 4024124:	d518ccc1 	msr	s3_0_c12_c12_6, x1
 4024128:	d53ecce1 	mrs	x1, s3_6_c12_c12_7
 402412c:	927ef421 	and	x1, x1, #0xfffffffffffffffc
 4024130:	d51ecce1 	msr	s3_6_c12_c12_7, x1
 4024134:	d5033fdf 	isb
 4024138:	f0000021 	adrp	x1, 402b000 <spi_state+0x530>
 402413c:	f943c021 	ldr	x1, [x1,#1920]
 4024140:	f9401821 	ldr	x1, [x1,#48]
 4024144:	f8605820 	ldr	x0, [x1,w0,uxtw #3]
 4024148:	14000100 	b	4024548 <gicv3_rdistif_mark_core_asleep>

000000000402414c <gicv3_get_pending_interrupt_type>:
 402414c:	d538c840 	mrs	x0, s3_0_c12_c8_2
 4024150:	12005c00 	and	w0, w0, #0xffffff
 4024154:	d65f03c0 	ret

0000000004024158 <gicv3_irq_save>:
 4024158:	a9bc7bfd 	stp	x29, x30, [sp,#-64]!
 402415c:	910003fd 	mov	x29, sp
 4024160:	a90153f3 	stp	x19, x20, [sp,#16]
 4024164:	b9400413 	ldr	w19, [x0,#4]
 4024168:	d0000034 	adrp	x20, 402a000 <__RO_END__>
 402416c:	f9001bf7 	str	x23, [sp,#48]
 4024170:	912b4297 	add	x23, x20, #0xad0
 4024174:	531b1273 	ubfiz	w19, w19, #5, #5
 4024178:	910402f7 	add	x23, x23, #0x100
 402417c:	a9025bf5 	stp	x21, x22, [sp,#32]
 4024180:	11008273 	add	w19, w19, #0x20
 4024184:	aa0003f5 	mov	x21, x0
 4024188:	52800416 	mov	w22, #0x20                  	// #32
 402418c:	6b1302df 	cmp	w22, w19
 4024190:	540000e2 	b.cs	40241ac <gicv3_irq_save+0x54>
 4024194:	2a1603e1 	mov	w1, w22
 4024198:	aa1503e0 	mov	x0, x21
 402419c:	110082d6 	add	w22, w22, #0x20
 40241a0:	97ffff20 	bl	4023e20 <gicd_read_icfgr>
 40241a4:	b80046e0 	str	w0, [x23],#4
 40241a8:	17fffff9 	b	402418c <gicv3_irq_save+0x34>
 40241ac:	912b4297 	add	x23, x20, #0xad0
 40241b0:	52800416 	mov	w22, #0x20                  	// #32
 40241b4:	910802f7 	add	x23, x23, #0x200
 40241b8:	6b1302df 	cmp	w22, w19
 40241bc:	540000e2 	b.cs	40241d8 <gicv3_irq_save+0x80>
 40241c0:	2a1603e1 	mov	w1, w22
 40241c4:	aa1503e0 	mov	x0, x21
 40241c8:	110082d6 	add	w22, w22, #0x20
 40241cc:	97ffff11 	bl	4023e10 <gicd_read_itargetsr>
 40241d0:	b80046e0 	str	w0, [x23],#4
 40241d4:	17fffff9 	b	40241b8 <gicv3_irq_save+0x60>
 40241d8:	d2800017 	mov	x23, #0x0                   	// #0
 40241dc:	52800416 	mov	w22, #0x20                  	// #32
 40241e0:	6b1302df 	cmp	w22, w19
 40241e4:	54000122 	b.cs	4024208 <gicv3_irq_save+0xb0>
 40241e8:	2a1603e1 	mov	w1, w22
 40241ec:	aa1503e0 	mov	x0, x21
 40241f0:	110082d6 	add	w22, w22, #0x20
 40241f4:	97fffefd 	bl	4023de8 <gicd_read_isenabler>
 40241f8:	912b4281 	add	x1, x20, #0xad0
 40241fc:	b8376820 	str	w0, [x1,x23]
 4024200:	910012f7 	add	x23, x23, #0x4
 4024204:	17fffff7 	b	40241e0 <gicv3_irq_save+0x88>
 4024208:	912b4297 	add	x23, x20, #0xad0
 402420c:	52800416 	mov	w22, #0x20                  	// #32
 4024210:	910202f7 	add	x23, x23, #0x80
 4024214:	6b1302df 	cmp	w22, w19
 4024218:	540000e2 	b.cs	4024234 <gicv3_irq_save+0xdc>
 402421c:	2a1603e1 	mov	w1, w22
 4024220:	aa1503e0 	mov	x0, x21
 4024224:	110082d6 	add	w22, w22, #0x20
 4024228:	97fffef5 	bl	4023dfc <gicd_read_isactiver>
 402422c:	b80046e0 	str	w0, [x23],#4
 4024230:	17fffff9 	b	4024214 <gicv3_irq_save+0xbc>
 4024234:	912b4280 	add	x0, x20, #0xad0
 4024238:	f9401bf7 	ldr	x23, [sp,#48]
 402423c:	a94153f3 	ldp	x19, x20, [sp,#16]
 4024240:	a9425bf5 	ldp	x21, x22, [sp,#32]
 4024244:	a8c47bfd 	ldp	x29, x30, [sp],#64
 4024248:	d280c001 	mov	x1, #0x600                 	// #1536
 402424c:	14000fdc 	b	40281bc <flush_dcache_range>

0000000004024250 <gicv3_irq_restore>:
 4024250:	a9bc7bfd 	stp	x29, x30, [sp,#-64]!
 4024254:	910003fd 	mov	x29, sp
 4024258:	a90153f3 	stp	x19, x20, [sp,#16]
 402425c:	aa0003f3 	mov	x19, x0
 4024260:	a9025bf5 	stp	x21, x22, [sp,#32]
 4024264:	b9400415 	ldr	w21, [x0,#4]
 4024268:	b9400000 	ldr	w0, [x0]
 402426c:	531b12b5 	ubfiz	w21, w21, #5, #5
 4024270:	121d7000 	and	w0, w0, #0xfffffff8
 4024274:	b9000260 	str	w0, [x19]
 4024278:	110082b5 	add	w21, w21, #0x20
 402427c:	f9001bf7 	str	x23, [sp,#48]
 4024280:	b9400260 	ldr	w0, [x19]
 4024284:	37ffffe0 	tbnz	w0, #31, 4024280 <gicv3_irq_restore+0x30>
 4024288:	d0000034 	adrp	x20, 402a000 <__RO_END__>
 402428c:	52800416 	mov	w22, #0x20                  	// #32
 4024290:	912b4297 	add	x23, x20, #0xad0
 4024294:	910402f7 	add	x23, x23, #0x100
 4024298:	6b1502df 	cmp	w22, w21
 402429c:	540000e2 	b.cs	40242b8 <gicv3_irq_restore+0x68>
 40242a0:	b84046e2 	ldr	w2, [x23],#4
 40242a4:	2a1603e1 	mov	w1, w22
 40242a8:	aa1303e0 	mov	x0, x19
 40242ac:	110082d6 	add	w22, w22, #0x20
 40242b0:	97ffff02 	bl	4023eb8 <gicd_write_icfgr>
 40242b4:	17fffff9 	b	4024298 <gicv3_irq_restore+0x48>
 40242b8:	912b4297 	add	x23, x20, #0xad0
 40242bc:	52800416 	mov	w22, #0x20                  	// #32
 40242c0:	910802f7 	add	x23, x23, #0x200
 40242c4:	6b1502df 	cmp	w22, w21
 40242c8:	540000e2 	b.cs	40242e4 <gicv3_irq_restore+0x94>
 40242cc:	b84046e2 	ldr	w2, [x23],#4
 40242d0:	2a1603e1 	mov	w1, w22
 40242d4:	aa1303e0 	mov	x0, x19
 40242d8:	110082d6 	add	w22, w22, #0x20
 40242dc:	97fffef3 	bl	4023ea8 <gicd_write_itargetsr>
 40242e0:	17fffff9 	b	40242c4 <gicv3_irq_restore+0x74>
 40242e4:	d2800017 	mov	x23, #0x0                   	// #0
 40242e8:	52800416 	mov	w22, #0x20                  	// #32
 40242ec:	6b1502df 	cmp	w22, w21
 40242f0:	540001a2 	b.cs	4024324 <gicv3_irq_restore+0xd4>
 40242f4:	2a1603e1 	mov	w1, w22
 40242f8:	12800002 	mov	w2, #0xffffffff            	// #-1
 40242fc:	aa1303e0 	mov	x0, x19
 4024300:	97fffed7 	bl	4023e5c <gicd_write_icenabler>
 4024304:	912b4280 	add	x0, x20, #0xad0
 4024308:	2a1603e1 	mov	w1, w22
 402430c:	110082d6 	add	w22, w22, #0x20
 4024310:	b8606ae2 	ldr	w2, [x23,x0]
 4024314:	aa1303e0 	mov	x0, x19
 4024318:	910012f7 	add	x23, x23, #0x4
 402431c:	97fffecb 	bl	4023e48 <gicd_write_isenabler>
 4024320:	17fffff3 	b	40242ec <gicv3_irq_restore+0x9c>
 4024324:	912b4294 	add	x20, x20, #0xad0
 4024328:	52800416 	mov	w22, #0x20                  	// #32
 402432c:	91020294 	add	x20, x20, #0x80
 4024330:	6b1502df 	cmp	w22, w21
 4024334:	54000162 	b.cs	4024360 <gicv3_irq_restore+0x110>
 4024338:	2a1603e1 	mov	w1, w22
 402433c:	12800002 	mov	w2, #0xffffffff            	// #-1
 4024340:	aa1303e0 	mov	x0, x19
 4024344:	97fffed0 	bl	4023e84 <gicd_write_icactiver>
 4024348:	b8404682 	ldr	w2, [x20],#4
 402434c:	2a1603e1 	mov	w1, w22
 4024350:	aa1303e0 	mov	x0, x19
 4024354:	110082d6 	add	w22, w22, #0x20
 4024358:	97fffec6 	bl	4023e70 <gicd_write_isactiver>
 402435c:	17fffff5 	b	4024330 <gicv3_irq_restore+0xe0>
 4024360:	b9400261 	ldr	w1, [x19]
 4024364:	528004e0 	mov	w0, #0x27                  	// #39
 4024368:	2a000020 	orr	w0, w1, w0
 402436c:	b9000260 	str	w0, [x19]
 4024370:	b9400260 	ldr	w0, [x19]
 4024374:	37ffffe0 	tbnz	w0, #31, 4024370 <gicv3_irq_restore+0x120>
 4024378:	a94153f3 	ldp	x19, x20, [sp,#16]
 402437c:	a9425bf5 	ldp	x21, x22, [sp,#32]
 4024380:	f9401bf7 	ldr	x23, [sp,#48]
 4024384:	a8c47bfd 	ldp	x29, x30, [sp],#64
 4024388:	d65f03c0 	ret

000000000402438c <gicv3_irq_pcpu_save>:
 402438c:	91404002 	add	x2, x0, #0x10, lsl #12
 4024390:	f0000023 	adrp	x3, 402b000 <spi_state+0x530>
 4024394:	91034063 	add	x3, x3, #0xd0
 4024398:	d37c7c21 	ubfiz	x1, x1, #4, #32
 402439c:	8b010060 	add	x0, x3, x1
 40243a0:	b9410044 	ldr	w4, [x2,#256]
 40243a4:	b8216864 	str	w4, [x3,x1]
 40243a8:	b9430041 	ldr	w1, [x2,#768]
 40243ac:	b9000401 	str	w1, [x0,#4]
 40243b0:	b94c0041 	ldr	w1, [x2,#3072]
 40243b4:	b9000801 	str	w1, [x0,#8]
 40243b8:	b94c0441 	ldr	w1, [x2,#3076]
 40243bc:	b9000c01 	str	w1, [x0,#12]
 40243c0:	d2800201 	mov	x1, #0x10                  	// #16
 40243c4:	14000f7e 	b	40281bc <flush_dcache_range>

00000000040243c8 <gicv3_irq_pcpu_restore>:
 40243c8:	91404002 	add	x2, x0, #0x10, lsl #12
 40243cc:	12800003 	mov	w3, #0xffffffff            	// #-1
 40243d0:	b9018043 	str	w3, [x2,#384]
 40243d4:	f9400003 	ldr	x3, [x0]
 40243d8:	371fffe3 	tbnz	w3, #3, 40243d4 <gicv3_irq_pcpu_restore+0xc>
 40243dc:	f0000023 	adrp	x3, 402b000 <spi_state+0x530>
 40243e0:	d37c7c24 	ubfiz	x4, x1, #4, #32
 40243e4:	91034065 	add	x5, x3, #0xd0
 40243e8:	b86468a4 	ldr	w4, [x5,x4]
 40243ec:	b9010044 	str	w4, [x2,#256]
 40243f0:	12800004 	mov	w4, #0xffffffff            	// #-1
 40243f4:	b9038044 	str	w4, [x2,#896]
 40243f8:	f9400004 	ldr	x4, [x0]
 40243fc:	371fffe4 	tbnz	w4, #3, 40243f8 <gicv3_irq_pcpu_restore+0x30>
 4024400:	91034063 	add	x3, x3, #0xd0
 4024404:	d37c7c21 	ubfiz	x1, x1, #4, #32
 4024408:	8b010061 	add	x1, x3, x1
 402440c:	b9400420 	ldr	w0, [x1,#4]
 4024410:	b9030040 	str	w0, [x2,#768]
 4024414:	b9400820 	ldr	w0, [x1,#8]
 4024418:	b90c0040 	str	w0, [x2,#3072]
 402441c:	b9400c20 	ldr	w0, [x1,#12]
 4024420:	b90c0440 	str	w0, [x2,#3076]
 4024424:	d65f03c0 	ret

0000000004024428 <gicd_read_igrpmodr>:
 4024428:	53057c21 	lsr	w1, w1, #5
 402442c:	91340000 	add	x0, x0, #0xd00
 4024430:	d37e6821 	ubfiz	x1, x1, #2, #27
 4024434:	b8606820 	ldr	w0, [x1,x0]
 4024438:	d65f03c0 	ret

000000000402443c <gicd_write_igrpmodr>:
 402443c:	53057c21 	lsr	w1, w1, #5
 4024440:	91340000 	add	x0, x0, #0xd00
 4024444:	d37e6821 	ubfiz	x1, x1, #2, #27
 4024448:	b8206822 	str	w2, [x1,x0]
 402444c:	d65f03c0 	ret

0000000004024450 <gicd_set_igrpmodr>:
 4024450:	a9bf7bfd 	stp	x29, x30, [sp,#-16]!
 4024454:	2a0103e3 	mov	w3, w1
 4024458:	aa0003e4 	mov	x4, x0
 402445c:	910003fd 	mov	x29, sp
 4024460:	97fffff2 	bl	4024428 <gicd_read_igrpmodr>
 4024464:	2a0303e1 	mov	w1, w3
 4024468:	52800022 	mov	w2, #0x1                   	// #1
 402446c:	1ac32042 	lsl	w2, w2, w3
 4024470:	a8c17bfd 	ldp	x29, x30, [sp],#16
 4024474:	2a000042 	orr	w2, w2, w0
 4024478:	aa0403e0 	mov	x0, x4
 402447c:	17fffff0 	b	402443c <gicd_write_igrpmodr>

0000000004024480 <gicd_clr_igrpmodr>:
 4024480:	a9bf7bfd 	stp	x29, x30, [sp,#-16]!
 4024484:	2a0103e3 	mov	w3, w1
 4024488:	aa0003e4 	mov	x4, x0
 402448c:	910003fd 	mov	x29, sp
 4024490:	97ffffe6 	bl	4024428 <gicd_read_igrpmodr>
 4024494:	2a0303e1 	mov	w1, w3
 4024498:	52800022 	mov	w2, #0x1                   	// #1
 402449c:	1ac32042 	lsl	w2, w2, w3
 40244a0:	a8c17bfd 	ldp	x29, x30, [sp],#16
 40244a4:	0a220002 	bic	w2, w0, w2
 40244a8:	aa0403e0 	mov	x0, x4
 40244ac:	17ffffe4 	b	402443c <gicd_write_igrpmodr>

00000000040244b0 <gicr_write_ipriorityr>:
 40244b0:	91404000 	add	x0, x0, #0x10, lsl #12
 40244b4:	927e7421 	and	x1, x1, #0xfffffffc
 40244b8:	91100000 	add	x0, x0, #0x400
 40244bc:	b8206822 	str	w2, [x1,x0]
 40244c0:	d65f03c0 	ret

00000000040244c4 <gicr_clr_igroupr0>:
 40244c4:	91404000 	add	x0, x0, #0x10, lsl #12
 40244c8:	52800022 	mov	w2, #0x1                   	// #1
 40244cc:	1ac12041 	lsl	w1, w2, w1
 40244d0:	b9408003 	ldr	w3, [x0,#128]
 40244d4:	0a210061 	bic	w1, w3, w1
 40244d8:	b9008001 	str	w1, [x0,#128]
 40244dc:	d65f03c0 	ret

00000000040244e0 <gicr_set_igrpmodr0>:
 40244e0:	91404000 	add	x0, x0, #0x10, lsl #12
 40244e4:	52800023 	mov	w3, #0x1                   	// #1
 40244e8:	1ac12061 	lsl	w1, w3, w1
 40244ec:	b94d0002 	ldr	w2, [x0,#3328]
 40244f0:	2a020022 	orr	w2, w1, w2
 40244f4:	b90d0002 	str	w2, [x0,#3328]
 40244f8:	d65f03c0 	ret

00000000040244fc <gicr_clr_igrpmodr0>:
 40244fc:	91404000 	add	x0, x0, #0x10, lsl #12
 4024500:	52800022 	mov	w2, #0x1                   	// #1
 4024504:	1ac12041 	lsl	w1, w2, w1
 4024508:	b94d0003 	ldr	w3, [x0,#3328]
 402450c:	0a210061 	bic	w1, w3, w1
 4024510:	b90d0001 	str	w1, [x0,#3328]
 4024514:	d65f03c0 	ret

0000000004024518 <gicr_set_isenabler0>:
 4024518:	91404000 	add	x0, x0, #0x10, lsl #12
 402451c:	52800022 	mov	w2, #0x1                   	// #1
 4024520:	1ac12041 	lsl	w1, w2, w1
 4024524:	b9010001 	str	w1, [x0,#256]
 4024528:	d65f03c0 	ret

000000000402452c <gicv3_rdistif_mark_core_awake>:
 402452c:	b9401401 	ldr	w1, [x0,#20]
 4024530:	91005002 	add	x2, x0, #0x14
 4024534:	121e7821 	and	w1, w1, #0xfffffffd
 4024538:	b9001401 	str	w1, [x0,#20]
 402453c:	b9400040 	ldr	w0, [x2]
 4024540:	3717ffe0 	tbnz	w0, #2, 402453c <gicv3_rdistif_mark_core_awake+0x10>
 4024544:	d65f03c0 	ret

0000000004024548 <gicv3_rdistif_mark_core_asleep>:
 4024548:	b9401401 	ldr	w1, [x0,#20]
 402454c:	91005002 	add	x2, x0, #0x14
 4024550:	321f0021 	orr	w1, w1, #0x2
 4024554:	b9001401 	str	w1, [x0,#20]
 4024558:	b9400040 	ldr	w0, [x2]
 402455c:	3617ffe0 	tbz	w0, #2, 4024558 <gicv3_rdistif_mark_core_asleep+0x10>
 4024560:	d65f03c0 	ret

0000000004024564 <gicv3_rdistif_base_addrs_probe>:
 4024564:	a9bd7bfd 	stp	x29, x30, [sp,#-48]!
 4024568:	910003fd 	mov	x29, sp
 402456c:	a9025bf5 	stp	x21, x22, [sp,#32]
 4024570:	a90153f3 	stp	x19, x20, [sp,#16]
 4024574:	aa0003f6 	mov	x22, x0
 4024578:	aa0203f4 	mov	x20, x2
 402457c:	aa0303f5 	mov	x21, x3
 4024580:	f9400693 	ldr	x19, [x20,#8]
 4024584:	d3485e60 	ubfx	x0, x19, #8, #16
 4024588:	b40000b5 	cbz	x21, 402459c <gicv3_rdistif_base_addrs_probe+0x38>
 402458c:	d378fe60 	lsr	x0, x19, #56
 4024590:	d360de61 	ubfx	x1, x19, #32, #24
 4024594:	aa008020 	orr	x0, x1, x0, lsl #32
 4024598:	d63f02a0 	blr	x21
 402459c:	f8205ad4 	str	x20, [x22,w0,uxtw #3]
 40245a0:	91408294 	add	x20, x20, #0x20, lsl #12
 40245a4:	3627fef3 	tbz	w19, #4, 4024580 <gicv3_rdistif_base_addrs_probe+0x1c>
 40245a8:	a94153f3 	ldp	x19, x20, [sp,#16]
 40245ac:	a9425bf5 	ldp	x21, x22, [sp,#32]
 40245b0:	a8c37bfd 	ldp	x29, x30, [sp],#48
 40245b4:	d65f03c0 	ret

00000000040245b8 <gicv3_spis_configure_defaults>:
 40245b8:	a9bd7bfd 	stp	x29, x30, [sp,#-48]!
 40245bc:	910003fd 	mov	x29, sp
 40245c0:	a90153f3 	stp	x19, x20, [sp,#16]
 40245c4:	b9400413 	ldr	w19, [x0,#4]
 40245c8:	52800414 	mov	w20, #0x20                  	// #32
 40245cc:	f90013f5 	str	x21, [sp,#32]
 40245d0:	aa0003f5 	mov	x21, x0
 40245d4:	531b1273 	ubfiz	w19, w19, #5, #5
 40245d8:	11008273 	add	w19, w19, #0x20
 40245dc:	6b13029f 	cmp	w20, w19
 40245e0:	540000e2 	b.cs	40245fc <gicv3_spis_configure_defaults+0x44>
 40245e4:	2a1403e1 	mov	w1, w20
 40245e8:	12800002 	mov	w2, #0xffffffff            	// #-1
 40245ec:	aa1503e0 	mov	x0, x21
 40245f0:	11008294 	add	w20, w20, #0x20
 40245f4:	97fffe10 	bl	4023e34 <gicd_write_igroupr>
 40245f8:	17fffff9 	b	40245dc <gicv3_spis_configure_defaults+0x24>
 40245fc:	52800414 	mov	w20, #0x20                  	// #32
 4024600:	6b13029f 	cmp	w20, w19
 4024604:	540000e2 	b.cs	4024620 <gicv3_spis_configure_defaults+0x68>
 4024608:	2a1403e1 	mov	w1, w20
 402460c:	3201c3e2 	mov	w2, #0x80808080            	// #-2139062144
 4024610:	aa1503e0 	mov	x0, x21
 4024614:	11001294 	add	w20, w20, #0x4
 4024618:	97fffe20 	bl	4023e98 <gicd_write_ipriorityr>
 402461c:	17fffff9 	b	4024600 <gicv3_spis_configure_defaults+0x48>
 4024620:	52800414 	mov	w20, #0x20                  	// #32
 4024624:	6b13029f 	cmp	w20, w19
 4024628:	540000e2 	b.cs	4024644 <gicv3_spis_configure_defaults+0x8c>
 402462c:	2a1403e1 	mov	w1, w20
 4024630:	52800002 	mov	w2, #0x0                   	// #0
 4024634:	aa1503e0 	mov	x0, x21
 4024638:	11004294 	add	w20, w20, #0x10
 402463c:	97fffe1f 	bl	4023eb8 <gicd_write_icfgr>
 4024640:	17fffff9 	b	4024624 <gicv3_spis_configure_defaults+0x6c>
 4024644:	a94153f3 	ldp	x19, x20, [sp,#16]
 4024648:	f94013f5 	ldr	x21, [sp,#32]
 402464c:	a8c37bfd 	ldp	x29, x30, [sp],#48
 4024650:	d65f03c0 	ret

0000000004024654 <gicv3_secure_spis_configure>:
 4024654:	a9bb7bfd 	stp	x29, x30, [sp,#-80]!
 4024658:	910003fd 	mov	x29, sp
 402465c:	a9025bf5 	stp	x21, x22, [sp,#32]
 4024660:	a90363f7 	stp	x23, x24, [sp,#48]
 4024664:	a90153f3 	stp	x19, x20, [sp,#16]
 4024668:	f90023f9 	str	x25, [sp,#64]
 402466c:	aa0003f4 	mov	x20, x0
 4024670:	aa0203f7 	mov	x23, x2
 4024674:	2a0303f8 	mov	w24, w3
 4024678:	2a0103f6 	mov	w22, w1
 402467c:	d2800015 	mov	x21, #0x0                   	// #0
 4024680:	91401819 	add	x25, x0, #0x6, lsl #12
 4024684:	eb1602bf 	cmp	x21, x22
 4024688:	54000340 	b.eq	40246f0 <gicv3_secure_spis_configure+0x9c>
 402468c:	b8757af3 	ldr	w19, [x23,x21,lsl #2]
 4024690:	71007e7f 	cmp	w19, #0x1f
 4024694:	540002a9 	b.ls	40246e8 <gicv3_secure_spis_configure+0x94>
 4024698:	2a1303e1 	mov	w1, w19
 402469c:	aa1403e0 	mov	x0, x20
 40246a0:	97fffe0b 	bl	4023ecc <gicd_clr_igroupr>
 40246a4:	2a1303e1 	mov	w1, w19
 40246a8:	aa1403e0 	mov	x0, x20
 40246ac:	35000078 	cbnz	w24, 40246b8 <gicv3_secure_spis_configure+0x64>
 40246b0:	97ffff68 	bl	4024450 <gicd_set_igrpmodr>
 40246b4:	14000002 	b	40246bc <gicv3_secure_spis_configure+0x68>
 40246b8:	97ffff72 	bl	4024480 <gicd_clr_igrpmodr>
 40246bc:	52800002 	mov	w2, #0x0                   	// #0
 40246c0:	2a1303e1 	mov	w1, w19
 40246c4:	aa1403e0 	mov	x0, x20
 40246c8:	97fffe10 	bl	4023f08 <gicd_set_ipriorityr>
 40246cc:	d53800a0 	mrs	x0, mpidr_el1
 40246d0:	d37d7261 	ubfiz	x1, x19, #3, #29
 40246d4:	92405c00 	and	x0, x0, #0xffffff
 40246d8:	f8396820 	str	x0, [x1,x25]
 40246dc:	2a1303e1 	mov	w1, w19
 40246e0:	aa1403e0 	mov	x0, x20
 40246e4:	97fffe06 	bl	4023efc <gicd_set_isenabler>
 40246e8:	910006b5 	add	x21, x21, #0x1
 40246ec:	17ffffe6 	b	4024684 <gicv3_secure_spis_configure+0x30>
 40246f0:	a94153f3 	ldp	x19, x20, [sp,#16]
 40246f4:	a9425bf5 	ldp	x21, x22, [sp,#32]
 40246f8:	a94363f7 	ldp	x23, x24, [sp,#48]
 40246fc:	f94023f9 	ldr	x25, [sp,#64]
 4024700:	a8c57bfd 	ldp	x29, x30, [sp],#80
 4024704:	d65f03c0 	ret

0000000004024708 <gicv3_ppi_sgi_configure_defaults>:
 4024708:	91404004 	add	x4, x0, #0x10, lsl #12
 402470c:	aa0003e5 	mov	x5, x0
 4024710:	12800000 	mov	w0, #0xffffffff            	// #-1
 4024714:	b9018080 	str	w0, [x4,#384]
 4024718:	f94000a0 	ldr	x0, [x5]
 402471c:	371fffe0 	tbnz	w0, #3, 4024718 <gicv3_ppi_sgi_configure_defaults+0x10>
 4024720:	a9bf7bfd 	stp	x29, x30, [sp,#-16]!
 4024724:	12800000 	mov	w0, #0xffffffff            	// #-1
 4024728:	52800003 	mov	w3, #0x0                   	// #0
 402472c:	910003fd 	mov	x29, sp
 4024730:	b9008080 	str	w0, [x4,#128]
 4024734:	2a0303e1 	mov	w1, w3
 4024738:	3201c3e2 	mov	w2, #0x80808080            	// #-2139062144
 402473c:	aa0503e0 	mov	x0, x5
 4024740:	97ffff5c 	bl	40244b0 <gicr_write_ipriorityr>
 4024744:	11001063 	add	w3, w3, #0x4
 4024748:	7100807f 	cmp	w3, #0x20
 402474c:	54ffff41 	b.ne	4024734 <gicv3_ppi_sgi_configure_defaults+0x2c>
 4024750:	b90c049f 	str	wzr, [x4,#3076]
 4024754:	a8c17bfd 	ldp	x29, x30, [sp],#16
 4024758:	d65f03c0 	ret

000000000402475c <gicv3_secure_ppi_sgi_configure>:
 402475c:	91404007 	add	x7, x0, #0x10, lsl #12
 4024760:	aa0003e5 	mov	x5, x0
 4024764:	a9bf7bfd 	stp	x29, x30, [sp,#-16]!
 4024768:	aa0203e9 	mov	x9, x2
 402476c:	2a0303ea 	mov	w10, w3
 4024770:	2a0103e8 	mov	w8, w1
 4024774:	d2800006 	mov	x6, #0x0                   	// #0
 4024778:	911000e7 	add	x7, x7, #0x400
 402477c:	910003fd 	mov	x29, sp
 4024780:	eb0800df 	cmp	x6, x8
 4024784:	54000280 	b.eq	40247d4 <gicv3_secure_ppi_sgi_configure+0x78>
 4024788:	b8667924 	ldr	w4, [x9,x6,lsl #2]
 402478c:	71007c9f 	cmp	w4, #0x1f
 4024790:	540001e8 	b.hi	40247cc <gicv3_secure_ppi_sgi_configure+0x70>
 4024794:	2a0403e1 	mov	w1, w4
 4024798:	aa0503e0 	mov	x0, x5
 402479c:	97ffff4a 	bl	40244c4 <gicr_clr_igroupr0>
 40247a0:	2a0403e1 	mov	w1, w4
 40247a4:	aa0503e0 	mov	x0, x5
 40247a8:	3500006a 	cbnz	w10, 40247b4 <gicv3_secure_ppi_sgi_configure+0x58>
 40247ac:	97ffff4d 	bl	40244e0 <gicr_set_igrpmodr0>
 40247b0:	14000002 	b	40247b8 <gicv3_secure_ppi_sgi_configure+0x5c>
 40247b4:	97ffff52 	bl	40244fc <gicr_clr_igrpmodr0>
 40247b8:	2a0403e0 	mov	w0, w4
 40247bc:	2a0403e1 	mov	w1, w4
 40247c0:	382068ff 	strb	wzr, [x7,x0]
 40247c4:	aa0503e0 	mov	x0, x5
 40247c8:	97ffff54 	bl	4024518 <gicr_set_isenabler0>
 40247cc:	910004c6 	add	x6, x6, #0x1
 40247d0:	17ffffec 	b	4024780 <gicv3_secure_ppi_sgi_configure+0x24>
 40247d4:	a8c17bfd 	ldp	x29, x30, [sp],#16
 40247d8:	d65f03c0 	ret

00000000040247dc <plat_ic_get_pending_interrupt_type>:
 40247dc:	a9bf7bfd 	stp	x29, x30, [sp,#-16]!
 40247e0:	910003fd 	mov	x29, sp
 40247e4:	97fffe5a 	bl	402414c <gicv3_get_pending_interrupt_type>
 40247e8:	510ff002 	sub	w2, w0, #0x3fc
 40247ec:	71000c5f 	cmp	w2, #0x3
 40247f0:	52800020 	mov	w0, #0x1                   	// #1
 40247f4:	54000088 	b.hi	4024804 <plat_ic_get_pending_interrupt_type+0x28>
 40247f8:	90000021 	adrp	x1, 4028000 <el1_sysregs_context_restore+0x20>
 40247fc:	9120e021 	add	x1, x1, #0x838
 4024800:	38624820 	ldrb	w0, [x1,w2,uxtw]
 4024804:	a8c17bfd 	ldp	x29, x30, [sp],#16
 4024808:	d65f03c0 	ret

000000000402480c <cci_init>:
 402480c:	f0000022 	adrp	x2, 402b000 <spi_state+0x530>
 4024810:	f9007840 	str	x0, [x2,#240]
 4024814:	f0000020 	adrp	x0, 402b000 <spi_state+0x530>
 4024818:	f9007c01 	str	x1, [x0,#248]
 402481c:	d65f03c0 	ret

0000000004024820 <cci_enable_snoop_dvm_reqs>:
 4024820:	f0000022 	adrp	x2, 402b000 <spi_state+0x530>
 4024824:	f0000021 	adrp	x1, 402b000 <spi_state+0x530>
 4024828:	f9407c42 	ldr	x2, [x2,#248]
 402482c:	f9407821 	ldr	x1, [x1,#240]
 4024830:	b8605840 	ldr	w0, [x2,w0,uxtw #2]
 4024834:	52800062 	mov	w2, #0x3                   	// #3
 4024838:	11000400 	add	w0, w0, #0x1
 402483c:	53144c00 	lsl	w0, w0, #12
 4024840:	93407c00 	sxtw	x0, w0
 4024844:	b8216802 	str	w2, [x0,x1]
 4024848:	b9400c20 	ldr	w0, [x1,#12]
 402484c:	3707ffe0 	tbnz	w0, #0, 4024848 <cci_enable_snoop_dvm_reqs+0x28>
 4024850:	d65f03c0 	ret

0000000004024854 <mv_wake_up_src_config_get>:
 4024854:	d0000020 	adrp	x0, 402a000 <__RO_END__>
 4024858:	91096000 	add	x0, x0, #0x258
 402485c:	d65f03c0 	ret

0000000004024860 <bl31_plat_get_next_image_ep_info>:
 4024860:	7100041f 	cmp	w0, #0x1
 4024864:	54000080 	b.eq	4024874 <bl31_plat_get_next_image_ep_info+0x14>
 4024868:	f0000020 	adrp	x0, 402b000 <spi_state+0x530>
 402486c:	91040000 	add	x0, x0, #0x100
 4024870:	d65f03c0 	ret
 4024874:	f0000020 	adrp	x0, 402b000 <spi_state+0x530>
 4024878:	91056000 	add	x0, x0, #0x158
 402487c:	d65f03c0 	ret

0000000004024880 <marvell_bl31_early_platform_setup>:
 4024880:	a9be7bfd 	stp	x29, x30, [sp,#-32]!
 4024884:	52984002 	mov	w2, #0xc200                	// #49664
 4024888:	52980001 	mov	w1, #0xc000                	// #49152
 402488c:	910003fd 	mov	x29, sp
 4024890:	f9000bf3 	str	x19, [sp,#16]
 4024894:	aa0003f3 	mov	x19, x0
 4024898:	d2840000 	mov	x0, #0x2000                	// #8192
 402489c:	72a03121 	movk	w1, #0x189, lsl #16
 40248a0:	72a00022 	movk	w2, #0x1, lsl #16
 40248a4:	f2ba0020 	movk	x0, #0xd001, lsl #16
 40248a8:	94000eba 	bl	4028390 <console_init>
 40248ac:	f9400a61 	ldr	x1, [x19,#16]
 40248b0:	b40000a1 	cbz	x1, 40248c4 <marvell_bl31_early_platform_setup+0x44>
 40248b4:	f0000020 	adrp	x0, 402b000 <spi_state+0x530>
 40248b8:	d2800b02 	mov	x2, #0x58                  	// #88
 40248bc:	91040000 	add	x0, x0, #0x100
 40248c0:	940007ec 	bl	4026870 <memcpy>
 40248c4:	f9401261 	ldr	x1, [x19,#32]
 40248c8:	f0000020 	adrp	x0, 402b000 <spi_state+0x530>
 40248cc:	d2800b02 	mov	x2, #0x58                  	// #88
 40248d0:	91056000 	add	x0, x0, #0x158
 40248d4:	940007e7 	bl	4026870 <memcpy>
 40248d8:	f9400bf3 	ldr	x19, [sp,#16]
 40248dc:	a8c27bfd 	ldp	x29, x30, [sp],#32
 40248e0:	d65f03c0 	ret

00000000040248e4 <bl31_early_platform_setup>:
 40248e4:	a9bf7bfd 	stp	x29, x30, [sp,#-16]!
 40248e8:	910003fd 	mov	x29, sp
 40248ec:	97ffffe5 	bl	4024880 <marvell_bl31_early_platform_setup>
 40248f0:	94000bca 	bl	4027818 <plat_marvell_interconnect_init>
 40248f4:	a8c17bfd 	ldp	x29, x30, [sp],#16
 40248f8:	14000bcd 	b	402782c <plat_marvell_interconnect_enter_coherency>

00000000040248fc <marvell_bl31_platform_setup>:
 40248fc:	a9bf7bfd 	stp	x29, x30, [sp,#-16]!
 4024900:	910003fd 	mov	x29, sp
 4024904:	97fffcfc 	bl	4023cf4 <plat_marvell_gic_driver_init>
 4024908:	97fffcfe 	bl	4023d00 <plat_marvell_gic_init>
 402490c:	a8c17bfd 	ldp	x29, x30, [sp],#16
 4024910:	17fffbbd 	b	4023804 <psci_arch_init>

0000000004024914 <marvell_bl31_plat_runtime_setup>:
 4024914:	52984002 	mov	w2, #0xc200                	// #49664
 4024918:	52980001 	mov	w1, #0xc000                	// #49152
 402491c:	d2840000 	mov	x0, #0x2000                	// #8192
 4024920:	72a00022 	movk	w2, #0x1, lsl #16
 4024924:	72a03121 	movk	w1, #0x189, lsl #16
 4024928:	f2ba0020 	movk	x0, #0xd001, lsl #16
 402492c:	14000e99 	b	4028390 <console_init>

0000000004024930 <bl31_platform_setup>:
 4024930:	17fffff3 	b	40248fc <marvell_bl31_platform_setup>

0000000004024934 <bl31_plat_runtime_setup>:
 4024934:	17fffff8 	b	4024914 <marvell_bl31_plat_runtime_setup>

0000000004024938 <marvell_bl31_plat_arch_setup>:
 4024938:	92a08041 	mov	x1, #0xfffffffffbfdffff    	// #-67239937
 402493c:	90000060 	adrp	x0, 4030000 <__BL31_END__>
 4024940:	a9bf7bfd 	stp	x29, x30, [sp,#-16]!
 4024944:	91000000 	add	x0, x0, #0x0
 4024948:	f29a0001 	movk	x1, #0xd000
 402494c:	8b010001 	add	x1, x0, x1
 4024950:	d0000023 	adrp	x3, 402a000 <__RO_END__>
 4024954:	f0ffffe2 	adrp	x2, 4023000 <bl31_entrypoint>
 4024958:	d2860000 	mov	x0, #0x3000                	// #12288
 402495c:	910003fd 	mov	x29, sp
 4024960:	d2800005 	mov	x5, #0x0                   	// #0
 4024964:	d2800004 	mov	x4, #0x0                   	// #0
 4024968:	91000063 	add	x3, x3, #0x0
 402496c:	91000042 	add	x2, x2, #0x0
 4024970:	f2a08040 	movk	x0, #0x402, lsl #16
 4024974:	94000cbc 	bl	4027c64 <marvell_setup_page_tables>
 4024978:	a8c17bfd 	ldp	x29, x30, [sp],#16
 402497c:	52800000 	mov	w0, #0x0                   	// #0
 4024980:	14000c9b 	b	4027bec <enable_mmu_el3>

0000000004024984 <plat_get_syscnt_freq2>:
 4024984:	52978400 	mov	w0, #0xbc20                	// #48160
 4024988:	72a017c0 	movk	w0, #0xbe, lsl #16
 402498c:	d65f03c0 	ret

0000000004024990 <marvell_program_mailbox>:
 4024990:	d2808002 	mov	x2, #0x400                 	// #1024
 4024994:	d28ecd81 	mov	x1, #0x766c                	// #30316
 4024998:	f2a08002 	movk	x2, #0x400, lsl #16
 402499c:	f2adae41 	movk	x1, #0x6d72, lsl #16
 40249a0:	f9000041 	str	x1, [x2]
 40249a4:	d2808101 	mov	x1, #0x408                 	// #1032
 40249a8:	f2a08001 	movk	x1, #0x400, lsl #16
 40249ac:	f9000020 	str	x0, [x1]
 40249b0:	d2800201 	mov	x1, #0x10                  	// #16
 40249b4:	aa0203e0 	mov	x0, x2
 40249b8:	14000e01 	b	40281bc <flush_dcache_range>

00000000040249bc <plat_setup_psci_ops>:
 40249bc:	a9bf7bfd 	stp	x29, x30, [sp,#-16]!
 40249c0:	90000022 	adrp	x2, 4028000 <el1_sysregs_context_restore+0x20>
 40249c4:	910003fd 	mov	x29, sp
 40249c8:	91138042 	add	x2, x2, #0x4e0
 40249cc:	f9000022 	str	x2, [x1]
 40249d0:	97fffff0 	bl	4024990 <marvell_program_mailbox>
 40249d4:	52800000 	mov	w0, #0x0                   	// #0
 40249d8:	a8c17bfd 	ldp	x29, x30, [sp],#16
 40249dc:	d65f03c0 	ret

00000000040249e0 <plat_get_power_domain_tree_desc>:
 40249e0:	f0000021 	adrp	x1, 402b000 <spi_state+0x530>
 40249e4:	52800022 	mov	w2, #0x1                   	// #1
 40249e8:	911e2020 	add	x0, x1, #0x788
 40249ec:	391e2022 	strb	w2, [x1,#1928]
 40249f0:	52800041 	mov	w1, #0x2                   	// #2
 40249f4:	39000401 	strb	w1, [x0,#1]
 40249f8:	d65f03c0 	ret

00000000040249fc <marvell_check_mpidr>:
 40249fc:	d2a01fe2 	mov	x2, #0xff0000              	// #16711680
 4024a00:	b2405fe1 	mov	x1, #0xffffff              	// #16777215
 4024a04:	f2c01fe2 	movk	x2, #0xff, lsl #32
 4024a08:	f2c01fe1 	movk	x1, #0xff, lsl #32
 4024a0c:	ea02001f 	tst	x0, x2
 4024a10:	8a010001 	and	x1, x0, x1
 4024a14:	540000e1 	b.ne	4024a30 <marvell_check_mpidr+0x34>
 4024a18:	d3483c20 	ubfx	x0, x1, #8, #8
 4024a1c:	12001c21 	and	w1, w1, #0xff
 4024a20:	6b1f001f 	cmp	w0, wzr
 4024a24:	7a410822 	ccmp	w1, #0x1, #0x2, eq
 4024a28:	5a9f93e0 	csetm	w0, hi
 4024a2c:	d65f03c0 	ret
 4024a30:	12800000 	mov	w0, #0xffffffff            	// #-1
 4024a34:	d65f03c0 	ret

0000000004024a38 <plat_core_pos_by_mpidr>:
 4024a38:	a9bf7bfd 	stp	x29, x30, [sp,#-16]!
 4024a3c:	aa0003e3 	mov	x3, x0
 4024a40:	910003fd 	mov	x29, sp
 4024a44:	97ffffee 	bl	40249fc <marvell_check_mpidr>
 4024a48:	3100041f 	cmn	w0, #0x1
 4024a4c:	54000080 	b.eq	4024a5c <plat_core_pos_by_mpidr+0x24>
 4024a50:	a8c17bfd 	ldp	x29, x30, [sp],#16
 4024a54:	aa0303e0 	mov	x0, x3
 4024a58:	14000e82 	b	4028460 <plat_marvell_calc_core_pos>
 4024a5c:	a8c17bfd 	ldp	x29, x30, [sp],#16
 4024a60:	d65f03c0 	ret

0000000004024a64 <plat_get_target_pwr_state>:
 4024a64:	51000442 	sub	w2, w2, #0x1
 4024a68:	52800040 	mov	w0, #0x2                   	// #2
 4024a6c:	91000442 	add	x2, x2, #0x1
 4024a70:	8b020022 	add	x2, x1, x2
 4024a74:	38401423 	ldrb	w3, [x1],#1
 4024a78:	6b00007f 	cmp	w3, w0
 4024a7c:	1a803060 	csel	w0, w3, w0, cc
 4024a80:	eb02003f 	cmp	x1, x2
 4024a84:	53001c00 	uxtb	w0, w0
 4024a88:	54ffff61 	b.ne	4024a74 <plat_get_target_pwr_state+0x10>
 4024a8c:	d65f03c0 	ret

0000000004024a90 <plat_get_timer_value>:
 4024a90:	d53be020 	mrs	x0, cntpct_el0
 4024a94:	2a2003e0 	mvn	w0, w0
 4024a98:	d65f03c0 	ret

0000000004024a9c <plat_delay_timer_init>:
 4024a9c:	90000020 	adrp	x0, 4028000 <el1_sysregs_context_restore+0x20>
 4024aa0:	91210000 	add	x0, x0, #0x840
 4024aa4:	14000001 	b	4024aa8 <timer_init>

0000000004024aa8 <timer_init>:
 4024aa8:	f0000021 	adrp	x1, 402b000 <spi_state+0x530>
 4024aac:	f900d820 	str	x0, [x1,#432]
 4024ab0:	d65f03c0 	ret

0000000004024ab4 <get_arm_std_svc_args>:
 4024ab4:	90000020 	adrp	x0, 4028000 <el1_sysregs_context_restore+0x20>
 4024ab8:	91230000 	add	x0, x0, #0x8c0
 4024abc:	d65f03c0 	ret

0000000004024ac0 <bl31_prepare_next_image_entry>:
 4024ac0:	a9be7bfd 	stp	x29, x30, [sp,#-32]!
 4024ac4:	910003fd 	mov	x29, sp
 4024ac8:	a90153f3 	stp	x19, x20, [sp,#16]
 4024acc:	d5380400 	mrs	x0, id_aa64pfr0_el1
 4024ad0:	d3441c00 	ubfx	x0, x0, #4, #4
 4024ad4:	f100041f 	cmp	x0, #0x1
 4024ad8:	540000a1 	b.ne	4024aec <bl31_prepare_next_image_entry+0x2c>
 4024adc:	90000020 	adrp	x0, 4028000 <el1_sysregs_context_restore+0x20>
 4024ae0:	91214000 	add	x0, x0, #0x850
 4024ae4:	9400069b 	bl	4026550 <tf_printf>
 4024ae8:	94000dab 	bl	4028194 <do_panic>
 4024aec:	d0000020 	adrp	x0, 402a000 <__RO_END__>
 4024af0:	b9429013 	ldr	w19, [x0,#656]
 4024af4:	2a1303e0 	mov	w0, w19
 4024af8:	97ffff5a 	bl	4024860 <bl31_plat_get_next_image_ep_info>
 4024afc:	aa0003f4 	mov	x20, x0
 4024b00:	94000676 	bl	40264d8 <print_entry_point_info>
 4024b04:	aa1403e0 	mov	x0, x20
 4024b08:	94000113 	bl	4024f54 <cm_init_my_context>
 4024b0c:	2a1303e0 	mov	w0, w19
 4024b10:	a94153f3 	ldp	x19, x20, [sp,#16]
 4024b14:	a8c27bfd 	ldp	x29, x30, [sp],#32
 4024b18:	1400011a 	b	4024f80 <cm_prepare_el3_exit>

0000000004024b1c <bl31_main>:
 4024b1c:	a9be7bfd 	stp	x29, x30, [sp,#-32]!
 4024b20:	90000021 	adrp	x1, 4028000 <el1_sysregs_context_restore+0x20>
 4024b24:	910003fd 	mov	x29, sp
 4024b28:	f9000bf3 	str	x19, [sp,#16]
 4024b2c:	90000033 	adrp	x19, 4028000 <el1_sysregs_context_restore+0x20>
 4024b30:	91229e73 	add	x19, x19, #0x8a7
 4024b34:	91126021 	add	x1, x1, #0x498
 4024b38:	aa1303e0 	mov	x0, x19
 4024b3c:	94000685 	bl	4026550 <tf_printf>
 4024b40:	90000021 	adrp	x1, 4028000 <el1_sysregs_context_restore+0x20>
 4024b44:	aa1303e0 	mov	x0, x19
 4024b48:	91130021 	add	x1, x1, #0x4c0
 4024b4c:	94000681 	bl	4026550 <tf_printf>
 4024b50:	97ffff78 	bl	4024930 <bl31_platform_setup>
 4024b54:	940000f4 	bl	4024f24 <cm_init>
 4024b58:	94000036 	bl	4024c30 <runtime_svc_init>
 4024b5c:	f0000020 	adrp	x0, 402b000 <spi_state+0x530>
 4024b60:	f940dc00 	ldr	x0, [x0,#440]
 4024b64:	b4000040 	cbz	x0, 4024b6c <bl31_main+0x50>
 4024b68:	d63f0000 	blr	x0
 4024b6c:	97ffffd5 	bl	4024ac0 <bl31_prepare_next_image_entry>
 4024b70:	f9400bf3 	ldr	x19, [sp,#16]
 4024b74:	a8c27bfd 	ldp	x29, x30, [sp],#32
 4024b78:	17ffff6f 	b	4024934 <bl31_plat_runtime_setup>

0000000004024b7c <get_scr_el3_from_routing_model>:
 4024b7c:	f0000021 	adrp	x1, 402b000 <spi_state+0x530>
 4024b80:	91070022 	add	x2, x1, #0x1c0
 4024b84:	2a0003e1 	mov	w1, w0
 4024b88:	8b010840 	add	x0, x2, x1, lsl #2
 4024b8c:	b9403c03 	ldr	w3, [x0,#60]
 4024b90:	8b010840 	add	x0, x2, x1, lsl #2
 4024b94:	8b010841 	add	x1, x2, x1, lsl #2
 4024b98:	b9400c00 	ldr	w0, [x0,#12]
 4024b9c:	b9402421 	ldr	w1, [x1,#36]
 4024ba0:	2a000060 	orr	w0, w3, w0
 4024ba4:	2a010000 	orr	w0, w0, w1
 4024ba8:	d65f03c0 	ret

0000000004024bac <get_interrupt_type_handler>:
 4024bac:	7100081f 	cmp	w0, #0x2
 4024bb0:	54000069 	b.ls	4024bbc <get_interrupt_type_handler+0x10>
 4024bb4:	d2800000 	mov	x0, #0x0                   	// #0
 4024bb8:	d65f03c0 	ret
 4024bbc:	d2800301 	mov	x1, #0x18                  	// #24
 4024bc0:	2a0003e0 	mov	w0, w0
 4024bc4:	9b017c00 	mul	x0, x0, x1
 4024bc8:	f0000021 	adrp	x1, 402b000 <spi_state+0x530>
 4024bcc:	91070021 	add	x1, x1, #0x1c0
 4024bd0:	f8606820 	ldr	x0, [x1,x0]
 4024bd4:	d65f03c0 	ret

0000000004024bd8 <cm_get_context>:
 4024bd8:	d53ed041 	mrs	x1, tpidr_el3
 4024bdc:	f8605820 	ldr	x0, [x1,w0,uxtw #3]
 4024be0:	d65f03c0 	ret

0000000004024be4 <cm_get_context_by_index>:
 4024be4:	a9be7bfd 	stp	x29, x30, [sp,#-32]!
 4024be8:	910003fd 	mov	x29, sp
 4024bec:	f9000bf3 	str	x19, [sp,#16]
 4024bf0:	2a0103f3 	mov	w19, w1
 4024bf4:	94000ca4 	bl	4027e84 <_cpu_data_by_index>
 4024bf8:	f8735800 	ldr	x0, [x0,w19,uxtw #3]
 4024bfc:	f9400bf3 	ldr	x19, [sp,#16]
 4024c00:	a8c27bfd 	ldp	x29, x30, [sp],#32
 4024c04:	d65f03c0 	ret

0000000004024c08 <cm_set_context_by_index>:
 4024c08:	a9be7bfd 	stp	x29, x30, [sp,#-32]!
 4024c0c:	910003fd 	mov	x29, sp
 4024c10:	a90153f3 	stp	x19, x20, [sp,#16]
 4024c14:	2a0203f3 	mov	w19, w2
 4024c18:	aa0103f4 	mov	x20, x1
 4024c1c:	94000c9a 	bl	4027e84 <_cpu_data_by_index>
 4024c20:	f8335814 	str	x20, [x0,w19,uxtw #3]
 4024c24:	a94153f3 	ldp	x19, x20, [sp,#16]
 4024c28:	a8c27bfd 	ldp	x29, x30, [sp],#32
 4024c2c:	d65f03c0 	ret

0000000004024c30 <runtime_svc_init>:
 4024c30:	a9bb7bfd 	stp	x29, x30, [sp,#-80]!
 4024c34:	910003fd 	mov	x29, sp
 4024c38:	a90153f3 	stp	x19, x20, [sp,#16]
 4024c3c:	90000034 	adrp	x20, 4028000 <el1_sysregs_context_restore+0x20>
 4024c40:	90000033 	adrp	x19, 4028000 <el1_sysregs_context_restore+0x20>
 4024c44:	912e4294 	add	x20, x20, #0xb90
 4024c48:	912ec273 	add	x19, x19, #0xbb0
 4024c4c:	cb140273 	sub	x19, x19, x20
 4024c50:	a9025bf5 	stp	x21, x22, [sp,#32]
 4024c54:	a90363f7 	stp	x23, x24, [sp,#48]
 4024c58:	a9046bf9 	stp	x25, x26, [sp,#64]
 4024c5c:	f1007e7f 	cmp	x19, #0x1f
 4024c60:	540007a9 	b.ls	4024d54 <runtime_svc_init+0x124>
 4024c64:	f0000035 	adrp	x21, 402b000 <spi_state+0x530>
 4024c68:	f0000039 	adrp	x25, 402b000 <spi_state+0x530>
 4024c6c:	911e42b5 	add	x21, x21, #0x790
 4024c70:	d2801002 	mov	x2, #0x80                  	// #128
 4024c74:	12800001 	mov	w1, #0xffffffff            	// #-1
 4024c78:	aa1503e0 	mov	x0, x21
 4024c7c:	90000036 	adrp	x22, 4028000 <el1_sysregs_context_restore+0x20>
 4024c80:	d345fe73 	lsr	x19, x19, #5
 4024c84:	940006f4 	bl	4026854 <memset>
 4024c88:	d2800018 	mov	x24, #0x0                   	// #0
 4024c8c:	f9010734 	str	x20, [x25,#520]
 4024c90:	528007f7 	mov	w23, #0x3f                  	// #63
 4024c94:	912342d6 	add	x22, x22, #0x8d0
 4024c98:	f9410720 	ldr	x0, [x25,#520]
 4024c9c:	d37beb1a 	lsl	x26, x24, #5
 4024ca0:	ab1a0014 	adds	x20, x0, x26
 4024ca4:	540004e0 	b.eq	4024d40 <runtime_svc_init+0x110>
 4024ca8:	39400681 	ldrb	w1, [x20,#1]
 4024cac:	387a6800 	ldrb	w0, [x0,x26]
 4024cb0:	6b01001f 	cmp	w0, w1
 4024cb4:	7a579022 	ccmp	w1, w23, #0x2, ls
 4024cb8:	54000448 	b.hi	4024d40 <runtime_svc_init+0x110>
 4024cbc:	39400a80 	ldrb	w0, [x20,#2]
 4024cc0:	7100041f 	cmp	w0, #0x1
 4024cc4:	540003e8 	b.hi	4024d40 <runtime_svc_init+0x110>
 4024cc8:	f9400a80 	ldr	x0, [x20,#16]
 4024ccc:	b5000080 	cbnz	x0, 4024cdc <runtime_svc_init+0xac>
 4024cd0:	f9400e80 	ldr	x0, [x20,#24]
 4024cd4:	b5000100 	cbnz	x0, 4024cf4 <runtime_svc_init+0xc4>
 4024cd8:	1400001a 	b	4024d40 <runtime_svc_init+0x110>
 4024cdc:	d63f0000 	blr	x0
 4024ce0:	340000a0 	cbz	w0, 4024cf4 <runtime_svc_init+0xc4>
 4024ce4:	f9400681 	ldr	x1, [x20,#8]
 4024ce8:	aa1603e0 	mov	x0, x22
 4024cec:	94000619 	bl	4026550 <tf_printf>
 4024cf0:	14000010 	b	4024d30 <runtime_svc_init+0x100>
 4024cf4:	f9410721 	ldr	x1, [x25,#520]
 4024cf8:	39400a80 	ldrb	w0, [x20,#2]
 4024cfc:	8b1a0022 	add	x2, x1, x26
 4024d00:	387a6821 	ldrb	w1, [x1,x26]
 4024d04:	531a0000 	ubfiz	w0, w0, #6, #1
 4024d08:	39400442 	ldrb	w2, [x2,#1]
 4024d0c:	12001421 	and	w1, w1, #0x3f
 4024d10:	2a000021 	orr	w1, w1, w0
 4024d14:	12001442 	and	w2, w2, #0x3f
 4024d18:	2a000040 	orr	w0, w2, w0
 4024d1c:	6b00003f 	cmp	w1, w0
 4024d20:	5400008c 	b.gt	4024d30 <runtime_svc_init+0x100>
 4024d24:	3821cab8 	strb	w24, [x21,w1,sxtw]
 4024d28:	11000421 	add	w1, w1, #0x1
 4024d2c:	17fffffc 	b	4024d1c <runtime_svc_init+0xec>
 4024d30:	91000718 	add	x24, x24, #0x1
 4024d34:	eb18027f 	cmp	x19, x24
 4024d38:	54fffb01 	b.ne	4024c98 <runtime_svc_init+0x68>
 4024d3c:	14000006 	b	4024d54 <runtime_svc_init+0x124>
 4024d40:	90000020 	adrp	x0, 4028000 <el1_sysregs_context_restore+0x20>
 4024d44:	aa1403e1 	mov	x1, x20
 4024d48:	91240000 	add	x0, x0, #0x900
 4024d4c:	94000601 	bl	4026550 <tf_printf>
 4024d50:	94000d11 	bl	4028194 <do_panic>
 4024d54:	a94153f3 	ldp	x19, x20, [sp,#16]
 4024d58:	a9425bf5 	ldp	x21, x22, [sp,#32]
 4024d5c:	a94363f7 	ldp	x23, x24, [sp,#48]
 4024d60:	a9446bf9 	ldp	x25, x26, [sp,#64]
 4024d64:	a8c57bfd 	ldp	x29, x30, [sp],#80
 4024d68:	d65f03c0 	ret

0000000004024d6c <std_svc_setup>:
 4024d6c:	a9bf7bfd 	stp	x29, x30, [sp,#-16]!
 4024d70:	529ffc00 	mov	w0, #0xffe0                	// #65504
 4024d74:	910003fd 	mov	x29, sp
 4024d78:	97ffff4f 	bl	4024ab4 <get_arm_std_svc_args>
 4024d7c:	a8c17bfd 	ldp	x29, x30, [sp],#16
 4024d80:	140004b5 	b	4026054 <psci_setup>

0000000004024d84 <std_svc_smc_handler>:
 4024d84:	a9be7bfd 	stp	x29, x30, [sp,#-32]!
 4024d88:	721b281f 	tst	w0, #0xffe0
 4024d8c:	910003fd 	mov	x29, sp
 4024d90:	f9000bf3 	str	x19, [sp,#16]
 4024d94:	aa0603f3 	mov	x19, x6
 4024d98:	54000061 	b.ne	4024da4 <std_svc_smc_handler+0x20>
 4024d9c:	94000455 	bl	4025ef0 <psci_smc_handler>
 4024da0:	1400001d 	b	4024e14 <std_svc_smc_handler+0x90>
 4024da4:	2a0003e8 	mov	w8, w0
 4024da8:	529fe020 	mov	w0, #0xff01                	// #65281
 4024dac:	72b08000 	movk	w0, #0x8400, lsl #16
 4024db0:	6b00011f 	cmp	w8, w0
 4024db4:	54000140 	b.eq	4024ddc <std_svc_smc_handler+0x58>
 4024db8:	11000800 	add	w0, w0, #0x2
 4024dbc:	6b00011f 	cmp	w8, w0
 4024dc0:	54000220 	b.eq	4024e04 <std_svc_smc_handler+0x80>
 4024dc4:	529fe000 	mov	w0, #0xff00                	// #65280
 4024dc8:	72b08000 	movk	w0, #0x8400, lsl #16
 4024dcc:	6b00011f 	cmp	w8, w0
 4024dd0:	54000201 	b.ne	4024e10 <std_svc_smc_handler+0x8c>
 4024dd4:	d2800240 	mov	x0, #0x12                  	// #18
 4024dd8:	1400000f 	b	4024e14 <std_svc_smc_handler+0x90>
 4024ddc:	90000020 	adrp	x0, 4028000 <el1_sysregs_context_restore+0x20>
 4024de0:	9124e000 	add	x0, x0, #0x938
 4024de4:	b9400c01 	ldr	w1, [x0,#12]
 4024de8:	f9000cc1 	str	x1, [x6,#24]
 4024dec:	b9400801 	ldr	w1, [x0,#8]
 4024df0:	b9400400 	ldr	w0, [x0,#4]
 4024df4:	a90084c0 	stp	x0, x1, [x6,#8]
 4024df8:	d2920b60 	mov	x0, #0x905b                	// #36955
 4024dfc:	f2a211a0 	movk	x0, #0x108d, lsl #16
 4024e00:	14000005 	b	4024e14 <std_svc_smc_handler+0x90>
 4024e04:	d2800020 	mov	x0, #0x1                   	// #1
 4024e08:	a90000df 	stp	xzr, x0, [x6]
 4024e0c:	14000003 	b	4024e18 <std_svc_smc_handler+0x94>
 4024e10:	b2407fe0 	mov	x0, #0xffffffff            	// #4294967295
 4024e14:	f9000260 	str	x0, [x19]
 4024e18:	aa1303e0 	mov	x0, x19
 4024e1c:	f9400bf3 	ldr	x19, [sp,#16]
 4024e20:	a8c27bfd 	ldp	x29, x30, [sp],#32
 4024e24:	d65f03c0 	ret

0000000004024e28 <cm_init_context_common>:
 4024e28:	a9bd7bfd 	stp	x29, x30, [sp,#-48]!
 4024e2c:	d2804202 	mov	x2, #0x210                 	// #528
 4024e30:	910003fd 	mov	x29, sp
 4024e34:	a9025bf5 	stp	x21, x22, [sp,#32]
 4024e38:	a90153f3 	stp	x19, x20, [sp,#16]
 4024e3c:	b9400436 	ldr	w22, [x1,#4]
 4024e40:	aa0103f4 	mov	x20, x1
 4024e44:	52800001 	mov	w1, #0x0                   	// #0
 4024e48:	aa0003f5 	mov	x21, x0
 4024e4c:	120002d6 	and	w22, w22, #0x1
 4024e50:	94000681 	bl	4026854 <memset>
 4024e54:	d53e1100 	mrs	x0, scr_el3
 4024e58:	1281a0e1 	mov	w1, #0xfffff2f8            	// #-3336
 4024e5c:	0a000020 	and	w0, w1, w0
 4024e60:	b9401281 	ldr	w1, [x20,#16]
 4024e64:	2a160000 	orr	w0, w0, w22
 4024e68:	d3441021 	ubfx	x1, x1, #4, #1
 4024e6c:	32160002 	orr	w2, w0, #0x400
 4024e70:	6b1f003f 	cmp	w1, wzr
 4024e74:	b9400681 	ldr	w1, [x20,#4]
 4024e78:	1a800040 	csel	w0, w2, w0, eq
 4024e7c:	121e0021 	and	w1, w1, #0x4
 4024e80:	32150002 	orr	w2, w0, #0x800
 4024e84:	6b1f003f 	cmp	w1, wzr
 4024e88:	1a801040 	csel	w0, w2, w0, ne
 4024e8c:	121c7813 	and	w19, w0, #0xfffffff7
 4024e90:	2a1603e0 	mov	w0, w22
 4024e94:	97ffff3a 	bl	4024b7c <get_scr_el3_from_routing_model>
 4024e98:	2a000260 	orr	w0, w19, w0
 4024e9c:	b9400681 	ldr	w1, [x20,#4]
 4024ea0:	b9401282 	ldr	w2, [x20,#16]
 4024ea4:	121f0021 	and	w1, w1, #0x2
 4024ea8:	d3441043 	ubfx	x3, x2, #4, #1
 4024eac:	6b1f003f 	cmp	w1, wzr
 4024eb0:	d2a04001 	mov	x1, #0x2000000             	// #33554432
 4024eb4:	9a9f1021 	csel	x1, x1, xzr, ne
 4024eb8:	35000083 	cbnz	w3, 4024ec8 <cm_init_context_common+0xa0>
 4024ebc:	d2810004 	mov	x4, #0x800                 	// #2048
 4024ec0:	f2a61a04 	movk	x4, #0x30d0, lsl #16
 4024ec4:	14000003 	b	4024ed0 <cm_init_context_common+0xa8>
 4024ec8:	d2810304 	mov	x4, #0x818                 	// #2072
 4024ecc:	f2a01804 	movk	x4, #0xc0, lsl #16
 4024ed0:	aa040021 	orr	x1, x1, x4
 4024ed4:	f9009aa1 	str	x1, [x21,#304]
 4024ed8:	35000083 	cbnz	w3, 4024ee8 <cm_init_context_common+0xc0>
 4024edc:	d3420c41 	ubfx	x1, x2, #2, #2
 4024ee0:	7100083f 	cmp	w1, #0x2
 4024ee4:	14000003 	b	4024ef0 <cm_init_context_common+0xc8>
 4024ee8:	12000c41 	and	w1, w2, #0xf
 4024eec:	7100283f 	cmp	w1, #0xa
 4024ef0:	54000041 	b.ne	4024ef8 <cm_init_context_common+0xd0>
 4024ef4:	32180000 	orr	w0, w0, #0x100
 4024ef8:	f90082a0 	str	x0, [x21,#256]
 4024efc:	2a0203e2 	mov	w2, w2
 4024f00:	f9400680 	ldr	x0, [x20,#8]
 4024f04:	91006281 	add	x1, x20, #0x18
 4024f08:	a94153f3 	ldp	x19, x20, [sp,#16]
 4024f0c:	a91102a2 	stp	x2, x0, [x21,#272]
 4024f10:	aa1503e0 	mov	x0, x21
 4024f14:	d2800802 	mov	x2, #0x40                  	// #64
 4024f18:	a9425bf5 	ldp	x21, x22, [sp,#32]
 4024f1c:	a8c37bfd 	ldp	x29, x30, [sp],#48
 4024f20:	14000654 	b	4026870 <memcpy>

0000000004024f24 <cm_init>:
 4024f24:	d65f03c0 	ret

0000000004024f28 <cm_init_context_by_index>:
 4024f28:	a9be7bfd 	stp	x29, x30, [sp,#-32]!
 4024f2c:	910003fd 	mov	x29, sp
 4024f30:	f9000bf3 	str	x19, [sp,#16]
 4024f34:	aa0103f3 	mov	x19, x1
 4024f38:	b9400421 	ldr	w1, [x1,#4]
 4024f3c:	12000021 	and	w1, w1, #0x1
 4024f40:	97ffff29 	bl	4024be4 <cm_get_context_by_index>
 4024f44:	aa1303e1 	mov	x1, x19
 4024f48:	f9400bf3 	ldr	x19, [sp,#16]
 4024f4c:	a8c27bfd 	ldp	x29, x30, [sp],#32
 4024f50:	17ffffb6 	b	4024e28 <cm_init_context_common>

0000000004024f54 <cm_init_my_context>:
 4024f54:	a9be7bfd 	stp	x29, x30, [sp,#-32]!
 4024f58:	910003fd 	mov	x29, sp
 4024f5c:	f9000bf3 	str	x19, [sp,#16]
 4024f60:	aa0003f3 	mov	x19, x0
 4024f64:	b9400400 	ldr	w0, [x0,#4]
 4024f68:	12000000 	and	w0, w0, #0x1
 4024f6c:	97ffff1b 	bl	4024bd8 <cm_get_context>
 4024f70:	aa1303e1 	mov	x1, x19
 4024f74:	f9400bf3 	ldr	x19, [sp,#16]
 4024f78:	a8c27bfd 	ldp	x29, x30, [sp],#32
 4024f7c:	17ffffab 	b	4024e28 <cm_init_context_common>

0000000004024f80 <cm_prepare_el3_exit>:
 4024f80:	a9be7bfd 	stp	x29, x30, [sp,#-32]!
 4024f84:	910003fd 	mov	x29, sp
 4024f88:	a90153f3 	stp	x19, x20, [sp,#16]
 4024f8c:	2a0003f4 	mov	w20, w0
 4024f90:	97ffff12 	bl	4024bd8 <cm_get_context>
 4024f94:	7100069f 	cmp	w20, #0x1
 4024f98:	aa0003f3 	mov	x19, x0
 4024f9c:	54000401 	b.ne	402501c <cm_prepare_el3_exit+0x9c>
 4024fa0:	f9408000 	ldr	x0, [x0,#256]
 4024fa4:	36400100 	tbz	w0, #8, 4024fc4 <cm_prepare_el3_exit+0x44>
 4024fa8:	f9409a60 	ldr	x0, [x19,#304]
 4024fac:	52810601 	mov	w1, #0x830                 	// #2096
 4024fb0:	72a618a1 	movk	w1, #0x30c5, lsl #16
 4024fb4:	12067800 	and	w0, w0, #0xfdffffff
 4024fb8:	2a010000 	orr	w0, w0, w1
 4024fbc:	d51c1000 	msr	sctlr_el2, x0
 4024fc0:	14000017 	b	402501c <cm_prepare_el3_exit+0x9c>
 4024fc4:	d5380401 	mrs	x1, id_aa64pfr0_el1
 4024fc8:	f2780c3f 	tst	x1, #0xf00
 4024fcc:	54000280 	b.eq	402501c <cm_prepare_el3_exit+0x9c>
 4024fd0:	12160000 	and	w0, w0, #0x400
 4024fd4:	d2800001 	mov	x1, #0x0                   	// #0
 4024fd8:	6b1f001f 	cmp	w0, wzr
 4024fdc:	d2b00000 	mov	x0, #0x80000000            	// #2147483648
 4024fe0:	9a9f1000 	csel	x0, x0, xzr, ne
 4024fe4:	d51c1100 	msr	hcr_el2, x0
 4024fe8:	d53c1140 	mrs	x0, cptr_el2
 4024fec:	529f7fe2 	mov	w2, #0xfbff                	// #64511
 4024ff0:	72affde2 	movk	w2, #0x7fef, lsl #16
 4024ff4:	0a000040 	and	w0, w2, w0
 4024ff8:	d51c1140 	msr	cptr_el2, x0
 4024ffc:	d2800060 	mov	x0, #0x3                   	// #3
 4025000:	d51ce100 	msr	cnthctl_el2, x0
 4025004:	d51ce061 	msr	cntvoff_el2, x1
 4025008:	d5380000 	mrs	x0, midr_el1
 402500c:	d51c0000 	msr	vpidr_el2, x0
 4025010:	d53800a0 	mrs	x0, mpidr_el1
 4025014:	d51c00a0 	msr	vmpidr_el2, x0
 4025018:	d51c2101 	msr	vttbr_el2, x1
 402501c:	91048260 	add	x0, x19, #0x120
 4025020:	94000bf0 	bl	4027fe0 <el1_sysregs_context_restore>
 4025024:	d50041bf 	msr	spsel, #0x1
 4025028:	9100027f 	mov	sp, x19
 402502c:	d50040bf 	msr	spsel, #0x0
 4025030:	a94153f3 	ldp	x19, x20, [sp,#16]
 4025034:	a8c27bfd 	ldp	x29, x30, [sp],#32
 4025038:	d65f03c0 	ret

000000000402503c <psci_do_cpu_off>:
 402503c:	a9bc7bfd 	stp	x29, x30, [sp,#-64]!
 4025040:	910003fd 	mov	x29, sp
 4025044:	a90153f3 	stp	x19, x20, [sp,#16]
 4025048:	f90013f5 	str	x21, [sp,#32]
 402504c:	2a0003f4 	mov	w20, w0
 4025050:	94000d02 	bl	4028458 <plat_my_core_pos>
 4025054:	2a0003e1 	mov	w1, w0
 4025058:	2a0003f5 	mov	w21, w0
 402505c:	2a1403e0 	mov	w0, w20
 4025060:	9400021b 	bl	40258cc <psci_acquire_pwr_domain_locks>
 4025064:	d0000020 	adrp	x0, 402b000 <spi_state+0x530>
 4025068:	f9448400 	ldr	x0, [x0,#2312]
 402506c:	b5000220 	cbnz	x0, 40250b0 <psci_do_cpu_off+0x74>
 4025070:	52800040 	mov	w0, #0x2                   	// #2
 4025074:	9100e3a1 	add	x1, x29, #0x38
 4025078:	3900e3a0 	strb	w0, [x29,#56]
 402507c:	52800013 	mov	w19, #0x0                   	// #0
 4025080:	3900e7a0 	strb	w0, [x29,#57]
 4025084:	2a1403e0 	mov	w0, w20
 4025088:	940001a3 	bl	4025714 <psci_do_state_coordination>
 402508c:	9100e3a0 	add	x0, x29, #0x38
 4025090:	940001fb 	bl	402587c <psci_find_max_off_lvl>
 4025094:	94000bb0 	bl	4027f54 <psci_do_pwrdown_cache_maintenance>
 4025098:	d0000020 	adrp	x0, 402b000 <spi_state+0x530>
 402509c:	f9448000 	ldr	x0, [x0,#2304]
 40250a0:	f9400801 	ldr	x1, [x0,#16]
 40250a4:	9100e3a0 	add	x0, x29, #0x38
 40250a8:	d63f0020 	blr	x1
 40250ac:	14000007 	b	40250c8 <psci_do_cpu_off+0x8c>
 40250b0:	f9400401 	ldr	x1, [x0,#8]
 40250b4:	b4fffde1 	cbz	x1, 4025070 <psci_do_cpu_off+0x34>
 40250b8:	d2800000 	mov	x0, #0x0                   	// #0
 40250bc:	d63f0020 	blr	x1
 40250c0:	2a0003f3 	mov	w19, w0
 40250c4:	34fffd60 	cbz	w0, 4025070 <psci_do_cpu_off+0x34>
 40250c8:	2a1503e1 	mov	w1, w21
 40250cc:	2a1403e0 	mov	w0, w20
 40250d0:	9400021e 	bl	4025948 <psci_release_pwr_domain_locks>
 40250d4:	35000293 	cbnz	w19, 4025124 <psci_do_cpu_off+0xe8>
 40250d8:	d53ed040 	mrs	x0, tpidr_el3
 40250dc:	d2800081 	mov	x1, #0x4                   	// #4
 40250e0:	91006000 	add	x0, x0, #0x18
 40250e4:	94000c36 	bl	40281bc <flush_dcache_range>
 40250e8:	d53ed040 	mrs	x0, tpidr_el3
 40250ec:	52800021 	mov	w1, #0x1                   	// #1
 40250f0:	b9001801 	str	w1, [x0,#24]
 40250f4:	d5033b9f 	dsb	ish
 40250f8:	d53ed040 	mrs	x0, tpidr_el3
 40250fc:	d2800081 	mov	x1, #0x4                   	// #4
 4025100:	91006000 	add	x0, x0, #0x18
 4025104:	94000c48 	bl	4028224 <inv_dcache_range>
 4025108:	d0000020 	adrp	x0, 402b000 <spi_state+0x530>
 402510c:	f9448000 	ldr	x0, [x0,#2304]
 4025110:	f9401801 	ldr	x1, [x0,#48]
 4025114:	b4000061 	cbz	x1, 4025120 <psci_do_cpu_off+0xe4>
 4025118:	9100e3a0 	add	x0, x29, #0x38
 402511c:	d63f0020 	blr	x1
 4025120:	94000bad 	bl	4027fd4 <psci_power_down_wfi>
 4025124:	2a1303e0 	mov	w0, w19
 4025128:	f94013f5 	ldr	x21, [sp,#32]
 402512c:	a94153f3 	ldp	x19, x20, [sp,#16]
 4025130:	a8c47bfd 	ldp	x29, x30, [sp],#64
 4025134:	d65f03c0 	ret

0000000004025138 <psci_cpu_on_start>:
 4025138:	a9bc7bfd 	stp	x29, x30, [sp,#-64]!
 402513c:	910003fd 	mov	x29, sp
 4025140:	a90153f3 	stp	x19, x20, [sp,#16]
 4025144:	a9025bf5 	stp	x21, x22, [sp,#32]
 4025148:	f9001bf7 	str	x23, [sp,#48]
 402514c:	aa0003f6 	mov	x22, x0
 4025150:	aa0103f7 	mov	x23, x1
 4025154:	d0000034 	adrp	x20, 402b000 <spi_state+0x530>
 4025158:	97fffe38 	bl	4024a38 <plat_core_pos_by_mpidr>
 402515c:	2a0003f3 	mov	w19, w0
 4025160:	d37c7e60 	ubfiz	x0, x19, #4, #32
 4025164:	91230294 	add	x20, x20, #0x8c0
 4025168:	8b140014 	add	x20, x0, x20
 402516c:	12800075 	mov	w21, #0xfffffffc            	// #-4
 4025170:	91003294 	add	x20, x20, #0xc
 4025174:	aa1403e0 	mov	x0, x20
 4025178:	94000b6d 	bl	4027f2c <spin_lock>
 402517c:	2a1303e0 	mov	w0, w19
 4025180:	94000b41 	bl	4027e84 <_cpu_data_by_index>
 4025184:	b9401800 	ldr	w0, [x0,#24]
 4025188:	340006a0 	cbz	w0, 402525c <psci_cpu_on_start+0x124>
 402518c:	7100081f 	cmp	w0, #0x2
 4025190:	12800095 	mov	w21, #0xfffffffb            	// #-5
 4025194:	54000640 	b.eq	402525c <psci_cpu_on_start+0x124>
 4025198:	d0000020 	adrp	x0, 402b000 <spi_state+0x530>
 402519c:	f9448400 	ldr	x0, [x0,#2312]
 40251a0:	b40000a0 	cbz	x0, 40251b4 <psci_cpu_on_start+0x7c>
 40251a4:	f9400001 	ldr	x1, [x0]
 40251a8:	b4000061 	cbz	x1, 40251b4 <psci_cpu_on_start+0x7c>
 40251ac:	aa1603e0 	mov	x0, x22
 40251b0:	d63f0020 	blr	x1
 40251b4:	2a1303e0 	mov	w0, w19
 40251b8:	52800055 	mov	w21, #0x2                   	// #2
 40251bc:	94000b32 	bl	4027e84 <_cpu_data_by_index>
 40251c0:	b9001815 	str	w21, [x0,#24]
 40251c4:	2a1303e0 	mov	w0, w19
 40251c8:	94000b2f 	bl	4027e84 <_cpu_data_by_index>
 40251cc:	91006000 	add	x0, x0, #0x18
 40251d0:	d2800081 	mov	x1, #0x4                   	// #4
 40251d4:	94000bfa 	bl	40281bc <flush_dcache_range>
 40251d8:	2a1303e0 	mov	w0, w19
 40251dc:	94000b2a 	bl	4027e84 <_cpu_data_by_index>
 40251e0:	b9401800 	ldr	w0, [x0,#24]
 40251e4:	6b15001f 	cmp	w0, w21
 40251e8:	54000120 	b.eq	402520c <psci_cpu_on_start+0xd4>
 40251ec:	2a1303e0 	mov	w0, w19
 40251f0:	94000b25 	bl	4027e84 <_cpu_data_by_index>
 40251f4:	b9001815 	str	w21, [x0,#24]
 40251f8:	2a1303e0 	mov	w0, w19
 40251fc:	94000b22 	bl	4027e84 <_cpu_data_by_index>
 4025200:	91006000 	add	x0, x0, #0x18
 4025204:	d2800081 	mov	x1, #0x4                   	// #4
 4025208:	94000bed 	bl	40281bc <flush_dcache_range>
 402520c:	d0000020 	adrp	x0, 402b000 <spi_state+0x530>
 4025210:	f9448000 	ldr	x0, [x0,#2304]
 4025214:	f9400401 	ldr	x1, [x0,#8]
 4025218:	aa1603e0 	mov	x0, x22
 402521c:	d63f0020 	blr	x1
 4025220:	2a0003f5 	mov	w21, w0
 4025224:	350000a0 	cbnz	w0, 4025238 <psci_cpu_on_start+0x100>
 4025228:	aa1703e1 	mov	x1, x23
 402522c:	2a1303e0 	mov	w0, w19
 4025230:	97ffff3e 	bl	4024f28 <cm_init_context_by_index>
 4025234:	1400000a 	b	402525c <psci_cpu_on_start+0x124>
 4025238:	2a1303e0 	mov	w0, w19
 402523c:	94000b12 	bl	4027e84 <_cpu_data_by_index>
 4025240:	52800021 	mov	w1, #0x1                   	// #1
 4025244:	b9001801 	str	w1, [x0,#24]
 4025248:	2a1303e0 	mov	w0, w19
 402524c:	94000b0e 	bl	4027e84 <_cpu_data_by_index>
 4025250:	91006000 	add	x0, x0, #0x18
 4025254:	d2800081 	mov	x1, #0x4                   	// #4
 4025258:	94000bd9 	bl	40281bc <flush_dcache_range>
 402525c:	aa1403e0 	mov	x0, x20
 4025260:	94000b3b 	bl	4027f4c <spin_unlock>
 4025264:	f9401bf7 	ldr	x23, [sp,#48]
 4025268:	2a1503e0 	mov	w0, w21
 402526c:	a94153f3 	ldp	x19, x20, [sp,#16]
 4025270:	a9425bf5 	ldp	x21, x22, [sp,#32]
 4025274:	a8c47bfd 	ldp	x29, x30, [sp],#64
 4025278:	d65f03c0 	ret

000000000402527c <psci_cpu_on_finish>:
 402527c:	a9bd7bfd 	stp	x29, x30, [sp,#-48]!
 4025280:	910003fd 	mov	x29, sp
 4025284:	f90013f5 	str	x21, [sp,#32]
 4025288:	2a0003f5 	mov	w21, w0
 402528c:	d0000020 	adrp	x0, 402b000 <spi_state+0x530>
 4025290:	a90153f3 	stp	x19, x20, [sp,#16]
 4025294:	d0000033 	adrp	x19, 402b000 <spi_state+0x530>
 4025298:	d37c7eb4 	ubfiz	x20, x21, #4, #32
 402529c:	f9448000 	ldr	x0, [x0,#2304]
 40252a0:	f9401002 	ldr	x2, [x0,#32]
 40252a4:	aa0103e0 	mov	x0, x1
 40252a8:	d63f0040 	blr	x2
 40252ac:	94000b3d 	bl	4027fa0 <psci_do_pwrup_cache_maintenance>
 40252b0:	94000362 	bl	4026038 <psci_arch_setup>
 40252b4:	91230260 	add	x0, x19, #0x8c0
 40252b8:	8b000294 	add	x20, x20, x0
 40252bc:	91003294 	add	x20, x20, #0xc
 40252c0:	aa1403e0 	mov	x0, x20
 40252c4:	94000b1a 	bl	4027f2c <spin_lock>
 40252c8:	aa1403e0 	mov	x0, x20
 40252cc:	94000b20 	bl	4027f4c <spin_unlock>
 40252d0:	d0000020 	adrp	x0, 402b000 <spi_state+0x530>
 40252d4:	f9448400 	ldr	x0, [x0,#2312]
 40252d8:	b40000a0 	cbz	x0, 40252ec <psci_cpu_on_finish+0x70>
 40252dc:	f9400c01 	ldr	x1, [x0,#24]
 40252e0:	b4000061 	cbz	x1, 40252ec <psci_cpu_on_finish+0x70>
 40252e4:	d2800000 	mov	x0, #0x0                   	// #0
 40252e8:	d63f0020 	blr	x1
 40252ec:	d53800a1 	mrs	x1, mpidr_el1
 40252f0:	91230273 	add	x19, x19, #0x8c0
 40252f4:	d37c7eb5 	ubfiz	x21, x21, #4, #32
 40252f8:	b2405fe0 	mov	x0, #0xffffff              	// #16777215
 40252fc:	f2c01fe0 	movk	x0, #0xff, lsl #32
 4025300:	8a000020 	and	x0, x1, x0
 4025304:	f8356a60 	str	x0, [x19,x21]
 4025308:	a94153f3 	ldp	x19, x20, [sp,#16]
 402530c:	f94013f5 	ldr	x21, [sp,#32]
 4025310:	52800020 	mov	w0, #0x1                   	// #1
 4025314:	a8c37bfd 	ldp	x29, x30, [sp],#48
 4025318:	17ffff1a 	b	4024f80 <cm_prepare_el3_exit>

000000000402531c <psci_cpu_suspend_start>:
 402531c:	a9bb7bfd 	stp	x29, x30, [sp,#-80]!
 4025320:	910003fd 	mov	x29, sp
 4025324:	a90153f3 	stp	x19, x20, [sp,#16]
 4025328:	a90363f7 	stp	x23, x24, [sp,#48]
 402532c:	2a0103f3 	mov	w19, w1
 4025330:	2a0303f7 	mov	w23, w3
 4025334:	a9025bf5 	stp	x21, x22, [sp,#32]
 4025338:	aa0003f8 	mov	x24, x0
 402533c:	aa0203f5 	mov	x21, x2
 4025340:	94000c46 	bl	4028458 <plat_my_core_pos>
 4025344:	2a0003e1 	mov	w1, w0
 4025348:	2a0003f4 	mov	w20, w0
 402534c:	2a1303e0 	mov	w0, w19
 4025350:	9400015f 	bl	40258cc <psci_acquire_pwr_domain_locks>
 4025354:	d538c100 	mrs	x0, isr_el1
 4025358:	52800036 	mov	w22, #0x1                   	// #1
 402535c:	b50003e0 	cbnz	x0, 40253d8 <psci_cpu_suspend_start+0xbc>
 4025360:	aa1503e1 	mov	x1, x21
 4025364:	2a1303e0 	mov	w0, w19
 4025368:	940000eb 	bl	4025714 <psci_do_state_coordination>
 402536c:	340002b7 	cbz	w23, 40253c0 <psci_cpu_suspend_start+0xa4>
 4025370:	aa1503e0 	mov	x0, x21
 4025374:	94000142 	bl	402587c <psci_find_max_off_lvl>
 4025378:	2a0003f6 	mov	w22, w0
 402537c:	d53ed040 	mrs	x0, tpidr_el3
 4025380:	39007013 	strb	w19, [x0,#28]
 4025384:	d53ed040 	mrs	x0, tpidr_el3
 4025388:	d2800021 	mov	x1, #0x1                   	// #1
 402538c:	91007000 	add	x0, x0, #0x1c
 4025390:	94000b8b 	bl	40281bc <flush_dcache_range>
 4025394:	d0000020 	adrp	x0, 402b000 <spi_state+0x530>
 4025398:	f9448400 	ldr	x0, [x0,#2312]
 402539c:	b40000a0 	cbz	x0, 40253b0 <psci_cpu_suspend_start+0x94>
 40253a0:	f9400801 	ldr	x1, [x0,#16]
 40253a4:	b4000061 	cbz	x1, 40253b0 <psci_cpu_suspend_start+0x94>
 40253a8:	2a1603e0 	mov	w0, w22
 40253ac:	d63f0020 	blr	x1
 40253b0:	aa1803e0 	mov	x0, x24
 40253b4:	97fffee8 	bl	4024f54 <cm_init_my_context>
 40253b8:	2a1603e0 	mov	w0, w22
 40253bc:	94000ae6 	bl	4027f54 <psci_do_pwrdown_cache_maintenance>
 40253c0:	d0000020 	adrp	x0, 402b000 <spi_state+0x530>
 40253c4:	52800016 	mov	w22, #0x0                   	// #0
 40253c8:	f9448000 	ldr	x0, [x0,#2304]
 40253cc:	f9400c01 	ldr	x1, [x0,#24]
 40253d0:	aa1503e0 	mov	x0, x21
 40253d4:	d63f0020 	blr	x1
 40253d8:	2a1403e1 	mov	w1, w20
 40253dc:	2a1303e0 	mov	w0, w19
 40253e0:	9400015a 	bl	4025948 <psci_release_pwr_domain_locks>
 40253e4:	35000336 	cbnz	w22, 4025448 <psci_cpu_suspend_start+0x12c>
 40253e8:	d0000036 	adrp	x22, 402b000 <spi_state+0x530>
 40253ec:	340000f7 	cbz	w23, 4025408 <psci_cpu_suspend_start+0xec>
 40253f0:	f94482c0 	ldr	x0, [x22,#2304]
 40253f4:	f9401801 	ldr	x1, [x0,#48]
 40253f8:	b4000061 	cbz	x1, 4025404 <psci_cpu_suspend_start+0xe8>
 40253fc:	aa1503e0 	mov	x0, x21
 4025400:	d63f0020 	blr	x1
 4025404:	94000af4 	bl	4027fd4 <psci_power_down_wfi>
 4025408:	d503207f 	wfi
 402540c:	2a1403e1 	mov	w1, w20
 4025410:	2a1303e0 	mov	w0, w19
 4025414:	9400012e 	bl	40258cc <psci_acquire_pwr_domain_locks>
 4025418:	910123a1 	add	x1, x29, #0x48
 402541c:	2a1303e0 	mov	w0, w19
 4025420:	94000059 	bl	4025584 <psci_get_target_local_pwr_states>
 4025424:	f94482c0 	ldr	x0, [x22,#2304]
 4025428:	f9401401 	ldr	x1, [x0,#40]
 402542c:	910123a0 	add	x0, x29, #0x48
 4025430:	d63f0020 	blr	x1
 4025434:	2a1303e0 	mov	w0, w19
 4025438:	9400008e 	bl	4025670 <psci_set_pwr_domains_to_run>
 402543c:	2a1403e1 	mov	w1, w20
 4025440:	2a1303e0 	mov	w0, w19
 4025444:	94000141 	bl	4025948 <psci_release_pwr_domain_locks>
 4025448:	a94153f3 	ldp	x19, x20, [sp,#16]
 402544c:	a9425bf5 	ldp	x21, x22, [sp,#32]
 4025450:	a94363f7 	ldp	x23, x24, [sp,#48]
 4025454:	a8c57bfd 	ldp	x29, x30, [sp],#80
 4025458:	d65f03c0 	ret

000000000402545c <psci_cpu_suspend_finish>:
 402545c:	d0000020 	adrp	x0, 402b000 <spi_state+0x530>
 4025460:	a9be7bfd 	stp	x29, x30, [sp,#-32]!
 4025464:	910003fd 	mov	x29, sp
 4025468:	f9448000 	ldr	x0, [x0,#2304]
 402546c:	a90153f3 	stp	x19, x20, [sp,#16]
 4025470:	aa0103f4 	mov	x20, x1
 4025474:	f9401401 	ldr	x1, [x0,#40]
 4025478:	aa1403e0 	mov	x0, x20
 402547c:	d63f0020 	blr	x1
 4025480:	94000ac8 	bl	4027fa0 <psci_do_pwrup_cache_maintenance>
 4025484:	97fffd40 	bl	4024984 <plat_get_syscnt_freq2>
 4025488:	2a0003e0 	mov	w0, w0
 402548c:	d51be000 	msr	cntfrq_el0, x0
 4025490:	d0000033 	adrp	x19, 402b000 <spi_state+0x530>
 4025494:	f9448660 	ldr	x0, [x19,#2312]
 4025498:	b4000120 	cbz	x0, 40254bc <psci_cpu_suspend_finish+0x60>
 402549c:	f9400800 	ldr	x0, [x0,#16]
 40254a0:	b40000e0 	cbz	x0, 40254bc <psci_cpu_suspend_finish+0x60>
 40254a4:	aa1403e0 	mov	x0, x20
 40254a8:	940000f5 	bl	402587c <psci_find_max_off_lvl>
 40254ac:	2a0003e0 	mov	w0, w0
 40254b0:	f9448661 	ldr	x1, [x19,#2312]
 40254b4:	f9401021 	ldr	x1, [x1,#32]
 40254b8:	d63f0020 	blr	x1
 40254bc:	d53ed040 	mrs	x0, tpidr_el3
 40254c0:	52800041 	mov	w1, #0x2                   	// #2
 40254c4:	39007001 	strb	w1, [x0,#28]
 40254c8:	52800020 	mov	w0, #0x1                   	// #1
 40254cc:	a94153f3 	ldp	x19, x20, [sp,#16]
 40254d0:	a8c27bfd 	ldp	x29, x30, [sp],#32
 40254d4:	17fffeab 	b	4024f80 <cm_prepare_el3_exit>

00000000040254d8 <psci_validate_power_state>:
 40254d8:	52bf9fc2 	mov	w2, #0xfcfe0000            	// #-50462720
 40254dc:	6a02001f 	tst	w0, w2
 40254e0:	540000a1 	b.ne	40254f4 <psci_validate_power_state+0x1c>
 40254e4:	d0000022 	adrp	x2, 402b000 <spi_state+0x530>
 40254e8:	f9448042 	ldr	x2, [x2,#2304]
 40254ec:	f9402442 	ldr	x2, [x2,#72]
 40254f0:	d61f0040 	br	x2
 40254f4:	12800020 	mov	w0, #0xfffffffe            	// #-2
 40254f8:	d65f03c0 	ret

00000000040254fc <psci_query_sys_suspend_pwrstate>:
 40254fc:	d0000021 	adrp	x1, 402b000 <spi_state+0x530>
 4025500:	f9448021 	ldr	x1, [x1,#2304]
 4025504:	f9402c21 	ldr	x1, [x1,#88]
 4025508:	d61f0020 	br	x1

000000000402550c <psci_is_last_on_cpu>:
 402550c:	a9be7bfd 	stp	x29, x30, [sp,#-32]!
 4025510:	910003fd 	mov	x29, sp
 4025514:	f9000bf3 	str	x19, [sp,#16]
 4025518:	94000bd0 	bl	4028458 <plat_my_core_pos>
 402551c:	34000180 	cbz	w0, 402554c <psci_is_last_on_cpu+0x40>
 4025520:	2a0003f3 	mov	w19, w0
 4025524:	52800000 	mov	w0, #0x0                   	// #0
 4025528:	94000a57 	bl	4027e84 <_cpu_data_by_index>
 402552c:	b9401801 	ldr	w1, [x0,#24]
 4025530:	52800000 	mov	w0, #0x0                   	// #0
 4025534:	7100043f 	cmp	w1, #0x1
 4025538:	54000161 	b.ne	4025564 <psci_is_last_on_cpu+0x58>
 402553c:	7100067f 	cmp	w19, #0x1
 4025540:	54000061 	b.ne	402554c <psci_is_last_on_cpu+0x40>
 4025544:	52800020 	mov	w0, #0x1                   	// #1
 4025548:	14000007 	b	4025564 <psci_is_last_on_cpu+0x58>
 402554c:	52800020 	mov	w0, #0x1                   	// #1
 4025550:	94000a4d 	bl	4027e84 <_cpu_data_by_index>
 4025554:	b9401800 	ldr	w0, [x0,#24]
 4025558:	7100041f 	cmp	w0, #0x1
 402555c:	54ffff40 	b.eq	4025544 <psci_is_last_on_cpu+0x38>
 4025560:	52800000 	mov	w0, #0x0                   	// #0
 4025564:	f9400bf3 	ldr	x19, [sp,#16]
 4025568:	a8c27bfd 	ldp	x29, x30, [sp],#32
 402556c:	d65f03c0 	ret

0000000004025570 <psci_init_req_local_pwr_states>:
 4025570:	d2800042 	mov	x2, #0x2                   	// #2
 4025574:	d0000020 	adrp	x0, 402b000 <spi_state+0x530>
 4025578:	2a0203e1 	mov	w1, w2
 402557c:	91084000 	add	x0, x0, #0x210
 4025580:	140004b5 	b	4026854 <memset>

0000000004025584 <psci_get_target_local_pwr_states>:
 4025584:	a9bc7bfd 	stp	x29, x30, [sp,#-64]!
 4025588:	910003fd 	mov	x29, sp
 402558c:	a9025bf5 	stp	x21, x22, [sp,#32]
 4025590:	f9001bf7 	str	x23, [sp,#48]
 4025594:	aa0103f5 	mov	x21, x1
 4025598:	a90153f3 	stp	x19, x20, [sp,#16]
 402559c:	2a0003f7 	mov	w23, w0
 40255a0:	d53ed040 	mrs	x0, tpidr_el3
 40255a4:	39407400 	ldrb	w0, [x0,#29]
 40255a8:	d0000036 	adrp	x22, 402b000 <spi_state+0x530>
 40255ac:	39000020 	strb	w0, [x1]
 40255b0:	52800033 	mov	w19, #0x1                   	// #1
 40255b4:	912382d6 	add	x22, x22, #0x8e0
 40255b8:	94000ba8 	bl	4028458 <plat_my_core_pos>
 40255bc:	d37c7c00 	ubfiz	x0, x0, #4, #32
 40255c0:	d0000021 	adrp	x1, 402b000 <spi_state+0x530>
 40255c4:	91230021 	add	x1, x1, #0x8c0
 40255c8:	8b000020 	add	x0, x1, x0
 40255cc:	b9400814 	ldr	w20, [x0,#8]
 40255d0:	6b17027f 	cmp	w19, w23
 40255d4:	54000168 	b.hi	4025600 <psci_get_target_local_pwr_states+0x7c>
 40255d8:	d37c7e94 	ubfiz	x20, x20, #4, #32
 40255dc:	d2800201 	mov	x1, #0x10                  	// #16
 40255e0:	8b160294 	add	x20, x20, x22
 40255e4:	aa1403e0 	mov	x0, x20
 40255e8:	94000af5 	bl	40281bc <flush_dcache_range>
 40255ec:	39403280 	ldrb	w0, [x20,#12]
 40255f0:	38334aa0 	strb	w0, [x21,w19,uxtw]
 40255f4:	11000673 	add	w19, w19, #0x1
 40255f8:	b9400a94 	ldr	w20, [x20,#8]
 40255fc:	17fffff5 	b	40255d0 <psci_get_target_local_pwr_states+0x4c>
 4025600:	7100067f 	cmp	w19, #0x1
 4025604:	54000088 	b.hi	4025614 <psci_get_target_local_pwr_states+0x90>
 4025608:	38334abf 	strb	wzr, [x21,w19,uxtw]
 402560c:	11000673 	add	w19, w19, #0x1
 4025610:	17fffffc 	b	4025600 <psci_get_target_local_pwr_states+0x7c>
 4025614:	a94153f3 	ldp	x19, x20, [sp,#16]
 4025618:	a9425bf5 	ldp	x21, x22, [sp,#32]
 402561c:	f9401bf7 	ldr	x23, [sp,#48]
 4025620:	a8c47bfd 	ldp	x29, x30, [sp],#64
 4025624:	d65f03c0 	ret

0000000004025628 <psci_get_parent_pwr_domain_nodes>:
 4025628:	d0000023 	adrp	x3, 402b000 <spi_state+0x530>
 402562c:	d37c7c00 	ubfiz	x0, x0, #4, #32
 4025630:	91230063 	add	x3, x3, #0x8c0
 4025634:	d0000024 	adrp	x4, 402b000 <spi_state+0x530>
 4025638:	8b000060 	add	x0, x3, x0
 402563c:	91238084 	add	x4, x4, #0x8e0
 4025640:	d2800003 	mov	x3, #0x0                   	// #0
 4025644:	b9400800 	ldr	w0, [x0,#8]
 4025648:	11000465 	add	w5, w3, #0x1
 402564c:	6b05003f 	cmp	w1, w5
 4025650:	540000e3 	b.cc	402566c <psci_get_parent_pwr_domain_nodes+0x44>
 4025654:	b8237840 	str	w0, [x2,x3,lsl #2]
 4025658:	d37c7c00 	ubfiz	x0, x0, #4, #32
 402565c:	8b000080 	add	x0, x4, x0
 4025660:	91000463 	add	x3, x3, #0x1
 4025664:	b9400800 	ldr	w0, [x0,#8]
 4025668:	17fffff8 	b	4025648 <psci_get_parent_pwr_domain_nodes+0x20>
 402566c:	d65f03c0 	ret

0000000004025670 <psci_set_pwr_domains_to_run>:
 4025670:	a9bd7bfd 	stp	x29, x30, [sp,#-48]!
 4025674:	910003fd 	mov	x29, sp
 4025678:	a9025bf5 	stp	x21, x22, [sp,#32]
 402567c:	a90153f3 	stp	x19, x20, [sp,#16]
 4025680:	2a0003f5 	mov	w21, w0
 4025684:	94000b75 	bl	4028458 <plat_my_core_pos>
 4025688:	2a0003f6 	mov	w22, w0
 402568c:	d0000020 	adrp	x0, 402b000 <spi_state+0x530>
 4025690:	91230000 	add	x0, x0, #0x8c0
 4025694:	8b161000 	add	x0, x0, x22, lsl #4
 4025698:	b9400813 	ldr	w19, [x0,#8]
 402569c:	34000275 	cbz	w21, 40256e8 <psci_set_pwr_domains_to_run+0x78>
 40256a0:	d0000020 	adrp	x0, 402b000 <spi_state+0x530>
 40256a4:	d37c7e73 	ubfiz	x19, x19, #4, #32
 40256a8:	91238014 	add	x20, x0, #0x8e0
 40256ac:	d2800201 	mov	x1, #0x10                  	// #16
 40256b0:	8b130293 	add	x19, x20, x19
 40256b4:	aa1303e0 	mov	x0, x19
 40256b8:	3900327f 	strb	wzr, [x19,#12]
 40256bc:	94000ac0 	bl	40281bc <flush_dcache_range>
 40256c0:	d0000020 	adrp	x0, 402b000 <spi_state+0x530>
 40256c4:	710006bf 	cmp	w21, #0x1
 40256c8:	91084000 	add	x0, x0, #0x210
 40256cc:	3836681f 	strb	wzr, [x0,x22]
 40256d0:	540000c9 	b.ls	40256e8 <psci_set_pwr_domains_to_run+0x78>
 40256d4:	b9400a60 	ldr	w0, [x19,#8]
 40256d8:	d2800201 	mov	x1, #0x10                  	// #16
 40256dc:	8b001280 	add	x0, x20, x0, lsl #4
 40256e0:	3900301f 	strb	wzr, [x0,#12]
 40256e4:	94000ab6 	bl	40281bc <flush_dcache_range>
 40256e8:	d53ed040 	mrs	x0, tpidr_el3
 40256ec:	b900181f 	str	wzr, [x0,#24]
 40256f0:	d53ed040 	mrs	x0, tpidr_el3
 40256f4:	3900741f 	strb	wzr, [x0,#29]
 40256f8:	d53ed040 	mrs	x0, tpidr_el3
 40256fc:	a94153f3 	ldp	x19, x20, [sp,#16]
 4025700:	a9425bf5 	ldp	x21, x22, [sp,#32]
 4025704:	a8c37bfd 	ldp	x29, x30, [sp],#48
 4025708:	d2800101 	mov	x1, #0x8                   	// #8
 402570c:	91006000 	add	x0, x0, #0x18
 4025710:	14000aab 	b	40281bc <flush_dcache_range>

0000000004025714 <psci_do_state_coordination>:
 4025714:	a9b97bfd 	stp	x29, x30, [sp,#-112]!
 4025718:	910003fd 	mov	x29, sp
 402571c:	a9025bf5 	stp	x21, x22, [sp,#32]
 4025720:	a9046bf9 	stp	x25, x26, [sp,#64]
 4025724:	a90153f3 	stp	x19, x20, [sp,#16]
 4025728:	a90363f7 	stp	x23, x24, [sp,#48]
 402572c:	a90573fb 	stp	x27, x28, [sp,#80]
 4025730:	aa0103f6 	mov	x22, x1
 4025734:	2a0003f7 	mov	w23, w0
 4025738:	d0000035 	adrp	x21, 402b000 <spi_state+0x530>
 402573c:	94000b47 	bl	4028458 <plat_my_core_pos>
 4025740:	2a0003fb 	mov	w27, w0
 4025744:	912302a0 	add	x0, x21, #0x8c0
 4025748:	d37c7f61 	ubfiz	x1, x27, #4, #32
 402574c:	d0000039 	adrp	x25, 402b000 <spi_state+0x530>
 4025750:	8b010001 	add	x1, x0, x1
 4025754:	d000003a 	adrp	x26, 402b000 <spi_state+0x530>
 4025758:	d2800014 	mov	x20, #0x0                   	// #0
 402575c:	91084339 	add	x25, x25, #0x210
 4025760:	9123835a 	add	x26, x26, #0x8e0
 4025764:	b9400821 	ldr	w1, [x1,#8]
 4025768:	11000698 	add	w24, w20, #0x1
 402576c:	2a1403f3 	mov	w19, w20
 4025770:	6b1802ff 	cmp	w23, w24
 4025774:	54000283 	b.cc	40257c4 <psci_do_state_coordination+0xb0>
 4025778:	d37c7c21 	ubfiz	x1, x1, #4, #32
 402577c:	8b1402c3 	add	x3, x22, x20
 4025780:	d37ffa82 	lsl	x2, x20, #1
 4025784:	8b3b4320 	add	x0, x25, w27, uxtw
 4025788:	8b01035c 	add	x28, x26, x1
 402578c:	f90037a3 	str	x3, [x29,#104]
 4025790:	b8616b41 	ldr	w1, [x26,x1]
 4025794:	39400464 	ldrb	w4, [x3,#1]
 4025798:	38226804 	strb	w4, [x0,x2]
 402579c:	8b344421 	add	x1, x1, w20, uxtw #1
 40257a0:	b9400782 	ldr	w2, [x28,#4]
 40257a4:	8b010321 	add	x1, x25, x1
 40257a8:	2a1803e0 	mov	w0, w24
 40257ac:	91000694 	add	x20, x20, #0x1
 40257b0:	97fffcad 	bl	4024a64 <plat_get_target_pwr_state>
 40257b4:	53001c01 	uxtb	w1, w0
 40257b8:	f94037a3 	ldr	x3, [x29,#104]
 40257bc:	39000460 	strb	w0, [x3,#1]
 40257c0:	35000161 	cbnz	w1, 40257ec <psci_do_state_coordination+0xd8>
 40257c4:	11000a61 	add	w1, w19, #0x2
 40257c8:	6b0102ff 	cmp	w23, w1
 40257cc:	54000143 	b.cc	40257f4 <psci_do_state_coordination+0xe0>
 40257d0:	d0000020 	adrp	x0, 402b000 <spi_state+0x530>
 40257d4:	38616ac2 	ldrb	w2, [x22,x1]
 40257d8:	91084000 	add	x0, x0, #0x210
 40257dc:	8b384418 	add	x24, x0, w24, uxtw #1
 40257e0:	383b4b02 	strb	w2, [x24,w27,uxtw]
 40257e4:	38216adf 	strb	wzr, [x22,x1]
 40257e8:	14000003 	b	40257f4 <psci_do_state_coordination+0xe0>
 40257ec:	b9400b81 	ldr	w1, [x28,#8]
 40257f0:	17ffffde 	b	4025768 <psci_do_state_coordination+0x54>
 40257f4:	d53ed040 	mrs	x0, tpidr_el3
 40257f8:	394002c1 	ldrb	w1, [x22]
 40257fc:	39007401 	strb	w1, [x0,#29]
 4025800:	d53ed040 	mrs	x0, tpidr_el3
 4025804:	d2800021 	mov	x1, #0x1                   	// #1
 4025808:	91007400 	add	x0, x0, #0x1d
 402580c:	912302b5 	add	x21, x21, #0x8c0
 4025810:	52800034 	mov	w20, #0x1                   	// #1
 4025814:	94000a6a 	bl	40281bc <flush_dcache_range>
 4025818:	94000b10 	bl	4028458 <plat_my_core_pos>
 402581c:	d37c7c00 	ubfiz	x0, x0, #4, #32
 4025820:	8b0002a0 	add	x0, x21, x0
 4025824:	d0000035 	adrp	x21, 402b000 <spi_state+0x530>
 4025828:	912382b5 	add	x21, x21, #0x8e0
 402582c:	b9400813 	ldr	w19, [x0,#8]
 4025830:	6b1402ff 	cmp	w23, w20
 4025834:	54000163 	b.cc	4025860 <psci_do_state_coordination+0x14c>
 4025838:	d37c7e73 	ubfiz	x19, x19, #4, #32
 402583c:	38744ac0 	ldrb	w0, [x22,w20,uxtw]
 4025840:	8b1302b3 	add	x19, x21, x19
 4025844:	d2800201 	mov	x1, #0x10                  	// #16
 4025848:	11000694 	add	w20, w20, #0x1
 402584c:	39003260 	strb	w0, [x19,#12]
 4025850:	aa1303e0 	mov	x0, x19
 4025854:	94000a5a 	bl	40281bc <flush_dcache_range>
 4025858:	b9400a73 	ldr	w19, [x19,#8]
 402585c:	17fffff5 	b	4025830 <psci_do_state_coordination+0x11c>
 4025860:	a94153f3 	ldp	x19, x20, [sp,#16]
 4025864:	a9425bf5 	ldp	x21, x22, [sp,#32]
 4025868:	a94363f7 	ldp	x23, x24, [sp,#48]
 402586c:	a9446bf9 	ldp	x25, x26, [sp,#64]
 4025870:	a94573fb 	ldp	x27, x28, [sp,#80]
 4025874:	a8c77bfd 	ldp	x29, x30, [sp],#112
 4025878:	d65f03c0 	ret

000000000402587c <psci_find_max_off_lvl>:
 402587c:	39400401 	ldrb	w1, [x0,#1]
 4025880:	7100083f 	cmp	w1, #0x2
 4025884:	540000e0 	b.eq	40258a0 <psci_find_max_off_lvl+0x24>
 4025888:	39400001 	ldrb	w1, [x0]
 402588c:	52800040 	mov	w0, #0x2                   	// #2
 4025890:	6b00003f 	cmp	w1, w0
 4025894:	54000081 	b.ne	40258a4 <psci_find_max_off_lvl+0x28>
 4025898:	52800000 	mov	w0, #0x0                   	// #0
 402589c:	d65f03c0 	ret
 40258a0:	52800020 	mov	w0, #0x1                   	// #1
 40258a4:	d65f03c0 	ret

00000000040258a8 <psci_find_target_suspend_lvl>:
 40258a8:	39400401 	ldrb	w1, [x0,#1]
 40258ac:	350000c1 	cbnz	w1, 40258c4 <psci_find_target_suspend_lvl+0x1c>
 40258b0:	39400001 	ldrb	w1, [x0]
 40258b4:	52800040 	mov	w0, #0x2                   	// #2
 40258b8:	34000081 	cbz	w1, 40258c8 <psci_find_target_suspend_lvl+0x20>
 40258bc:	52800000 	mov	w0, #0x0                   	// #0
 40258c0:	d65f03c0 	ret
 40258c4:	52800020 	mov	w0, #0x1                   	// #1
 40258c8:	d65f03c0 	ret

00000000040258cc <psci_acquire_pwr_domain_locks>:
 40258cc:	a9bc7bfd 	stp	x29, x30, [sp,#-64]!
 40258d0:	d37c7c21 	ubfiz	x1, x1, #4, #32
 40258d4:	910003fd 	mov	x29, sp
 40258d8:	f9001bf7 	str	x23, [sp,#48]
 40258dc:	2a0003f7 	mov	w23, w0
 40258e0:	d0000020 	adrp	x0, 402b000 <spi_state+0x530>
 40258e4:	91230000 	add	x0, x0, #0x8c0
 40258e8:	8b010001 	add	x1, x0, x1
 40258ec:	a90153f3 	stp	x19, x20, [sp,#16]
 40258f0:	a9025bf5 	stp	x21, x22, [sp,#32]
 40258f4:	b9400833 	ldr	w19, [x1,#8]
 40258f8:	d0000035 	adrp	x21, 402b000 <spi_state+0x530>
 40258fc:	d0000036 	adrp	x22, 402b000 <spi_state+0x530>
 4025900:	52800034 	mov	w20, #0x1                   	// #1
 4025904:	912502b5 	add	x21, x21, #0x940
 4025908:	912382d6 	add	x22, x22, #0x8e0
 402590c:	6b17029f 	cmp	w20, w23
 4025910:	54000128 	b.hi	4025934 <psci_acquire_pwr_domain_locks+0x68>
 4025914:	d37c7e73 	ubfiz	x19, x19, #4, #32
 4025918:	11000694 	add	w20, w20, #0x1
 402591c:	8b1302d3 	add	x19, x22, x19
 4025920:	39403a60 	ldrb	w0, [x19,#14]
 4025924:	8b0006a0 	add	x0, x21, x0, lsl #1
 4025928:	9400028f 	bl	4026364 <bakery_lock_get>
 402592c:	b9400a73 	ldr	w19, [x19,#8]
 4025930:	17fffff7 	b	402590c <psci_acquire_pwr_domain_locks+0x40>
 4025934:	a94153f3 	ldp	x19, x20, [sp,#16]
 4025938:	a9425bf5 	ldp	x21, x22, [sp,#32]
 402593c:	f9401bf7 	ldr	x23, [sp,#48]
 4025940:	a8c47bfd 	ldp	x29, x30, [sp],#64
 4025944:	d65f03c0 	ret

0000000004025948 <psci_release_pwr_domain_locks>:
 4025948:	a9bc7bfd 	stp	x29, x30, [sp,#-64]!
 402594c:	910003fd 	mov	x29, sp
 4025950:	910103a2 	add	x2, x29, #0x40
 4025954:	f90013f5 	str	x21, [sp,#32]
 4025958:	a90153f3 	stp	x19, x20, [sp,#16]
 402595c:	d0000035 	adrp	x21, 402b000 <spi_state+0x530>
 4025960:	2a0003f3 	mov	w19, w0
 4025964:	d0000034 	adrp	x20, 402b000 <spi_state+0x530>
 4025968:	2a0103e0 	mov	w0, w1
 402596c:	b81f8c5f 	str	wzr, [x2,#-8]!
 4025970:	2a1303e1 	mov	w1, w19
 4025974:	91250294 	add	x20, x20, #0x940
 4025978:	912382b5 	add	x21, x21, #0x8e0
 402597c:	97ffff2b 	bl	4025628 <psci_get_parent_pwr_domain_nodes>
 4025980:	6b1f027f 	cmp	w19, wzr
 4025984:	5400014d 	b.le	40259ac <psci_release_pwr_domain_locks+0x64>
 4025988:	51000673 	sub	w19, w19, #0x1
 402598c:	910103a0 	add	x0, x29, #0x40
 4025990:	8b33c800 	add	x0, x0, w19, sxtw #2
 4025994:	b85f8000 	ldur	w0, [x0,#-8]
 4025998:	8b0012a0 	add	x0, x21, x0, lsl #4
 402599c:	39403800 	ldrb	w0, [x0,#14]
 40259a0:	8b000680 	add	x0, x20, x0, lsl #1
 40259a4:	940002b8 	bl	4026484 <bakery_lock_release>
 40259a8:	17fffff6 	b	4025980 <psci_release_pwr_domain_locks+0x38>
 40259ac:	a94153f3 	ldp	x19, x20, [sp,#16]
 40259b0:	f94013f5 	ldr	x21, [sp,#32]
 40259b4:	a8c47bfd 	ldp	x29, x30, [sp],#64
 40259b8:	d65f03c0 	ret

00000000040259bc <psci_validate_mpidr>:
 40259bc:	a9bf7bfd 	stp	x29, x30, [sp,#-16]!
 40259c0:	910003fd 	mov	x29, sp
 40259c4:	97fffc1d 	bl	4024a38 <plat_core_pos_by_mpidr>
 40259c8:	6b1f001f 	cmp	w0, wzr
 40259cc:	12800020 	mov	w0, #0xfffffffe            	// #-2
 40259d0:	1a9fb000 	csel	w0, w0, wzr, lt
 40259d4:	a8c17bfd 	ldp	x29, x30, [sp],#16
 40259d8:	d65f03c0 	ret

00000000040259dc <psci_validate_entry_point>:
 40259dc:	a9bb7bfd 	stp	x29, x30, [sp,#-80]!
 40259e0:	910003fd 	mov	x29, sp
 40259e4:	a90153f3 	stp	x19, x20, [sp,#16]
 40259e8:	aa0003f3 	mov	x19, x0
 40259ec:	d0000020 	adrp	x0, 402b000 <spi_state+0x530>
 40259f0:	a9025bf5 	stp	x21, x22, [sp,#32]
 40259f4:	aa0103f5 	mov	x21, x1
 40259f8:	f9448000 	ldr	x0, [x0,#2304]
 40259fc:	a9046bf9 	stp	x25, x26, [sp,#64]
 4025a00:	a90363f7 	stp	x23, x24, [sp,#48]
 4025a04:	f9402801 	ldr	x1, [x0,#80]
 4025a08:	aa0203fa 	mov	x26, x2
 4025a0c:	b50000e1 	cbnz	x1, 4025a28 <psci_validate_entry_point+0x4c>
 4025a10:	d53e1118 	mrs	x24, scr_el3
 4025a14:	d5381000 	mrs	x0, sctlr_el1
 4025a18:	92780319 	and	x25, x24, #0x100
 4025a1c:	36400118 	tbz	w24, #8, 4025a3c <psci_validate_entry_point+0x60>
 4025a20:	d53c1000 	mrs	x0, sctlr_el2
 4025a24:	14000006 	b	4025a3c <psci_validate_entry_point+0x60>
 4025a28:	aa1503e0 	mov	x0, x21
 4025a2c:	d63f0020 	blr	x1
 4025a30:	34ffff00 	cbz	w0, 4025a10 <psci_validate_entry_point+0x34>
 4025a34:	12800100 	mov	w0, #0xfffffff7            	// #-9
 4025a38:	14000024 	b	4025ac8 <psci_validate_entry_point+0xec>
 4025a3c:	92670001 	and	x1, x0, #0x2000000
 4025a40:	d2800076 	mov	x22, #0x3                   	// #3
 4025a44:	eb1f003f 	cmp	x1, xzr
 4025a48:	d3596414 	ubfx	x20, x0, #25, #1
 4025a4c:	52800b01 	mov	w1, #0x58                  	// #88
 4025a50:	9a9f16c0 	csinc	x0, x22, xzr, ne
 4025a54:	52800037 	mov	w23, #0x1                   	// #1
 4025a58:	79000661 	strh	w1, [x19,#2]
 4025a5c:	b9000660 	str	w0, [x19,#4]
 4025a60:	d2800802 	mov	x2, #0x40                  	// #64
 4025a64:	39000277 	strb	w23, [x19]
 4025a68:	52800001 	mov	w1, #0x0                   	// #0
 4025a6c:	39000677 	strb	w23, [x19,#1]
 4025a70:	91006260 	add	x0, x19, #0x18
 4025a74:	f9000675 	str	x21, [x19,#8]
 4025a78:	94000377 	bl	4026854 <memset>
 4025a7c:	f9000e7a 	str	x26, [x19,#24]
 4025a80:	36500118 	tbz	w24, #10, 4025aa0 <psci_validate_entry_point+0xc4>
 4025a84:	3707fd95 	tbnz	w21, #0, 4025a34 <psci_validate_entry_point+0x58>
 4025a88:	eb1f033f 	cmp	x25, xzr
 4025a8c:	52800040 	mov	w0, #0x2                   	// #2
 4025a90:	1a971000 	csel	w0, w0, w23, ne
 4025a94:	52807821 	mov	w1, #0x3c1                 	// #961
 4025a98:	2a000820 	orr	w0, w1, w0, lsl #2
 4025a9c:	14000009 	b	4025ac0 <psci_validate_entry_point+0xe4>
 4025aa0:	eb1f033f 	cmp	x25, xzr
 4025aa4:	52800140 	mov	w0, #0xa                   	// #10
 4025aa8:	1a8002c0 	csel	w0, w22, w0, eq
 4025aac:	531b02b5 	ubfiz	w21, w21, #5, #1
 4025ab0:	52803a01 	mov	w1, #0x1d0                 	// #464
 4025ab4:	2a142400 	orr	w0, w0, w20, lsl #9
 4025ab8:	2a0102b5 	orr	w21, w21, w1
 4025abc:	2a0002a0 	orr	w0, w21, w0
 4025ac0:	b9001260 	str	w0, [x19,#16]
 4025ac4:	52800000 	mov	w0, #0x0                   	// #0
 4025ac8:	a94153f3 	ldp	x19, x20, [sp,#16]
 4025acc:	a9425bf5 	ldp	x21, x22, [sp,#32]
 4025ad0:	a94363f7 	ldp	x23, x24, [sp,#48]
 4025ad4:	a9446bf9 	ldp	x25, x26, [sp,#64]
 4025ad8:	a8c57bfd 	ldp	x29, x30, [sp],#80
 4025adc:	d65f03c0 	ret

0000000004025ae0 <psci_warmboot_entrypoint>:
 4025ae0:	a9bd7bfd 	stp	x29, x30, [sp,#-48]!
 4025ae4:	910003fd 	mov	x29, sp
 4025ae8:	a90153f3 	stp	x19, x20, [sp,#16]
 4025aec:	94000a5b 	bl	4028458 <plat_my_core_pos>
 4025af0:	2a0003f4 	mov	w20, w0
 4025af4:	790053bf 	strh	wzr, [x29,#40]
 4025af8:	d53ed040 	mrs	x0, tpidr_el3
 4025afc:	b9401800 	ldr	w0, [x0,#24]
 4025b00:	7100041f 	cmp	w0, #0x1
 4025b04:	540000a1 	b.ne	4025b18 <psci_warmboot_entrypoint+0x38>
 4025b08:	f0000000 	adrp	x0, 4028000 <el1_sysregs_context_restore+0x20>
 4025b0c:	91252000 	add	x0, x0, #0x948
 4025b10:	94000290 	bl	4026550 <tf_printf>
 4025b14:	940009a0 	bl	4028194 <do_panic>
 4025b18:	d53ed040 	mrs	x0, tpidr_el3
 4025b1c:	39407013 	ldrb	w19, [x0,#28]
 4025b20:	2a1403e1 	mov	w1, w20
 4025b24:	71000a7f 	cmp	w19, #0x2
 4025b28:	1a9f1673 	csinc	w19, w19, wzr, ne
 4025b2c:	2a1303e0 	mov	w0, w19
 4025b30:	97ffff67 	bl	40258cc <psci_acquire_pwr_domain_locks>
 4025b34:	9100a3a1 	add	x1, x29, #0x28
 4025b38:	2a1303e0 	mov	w0, w19
 4025b3c:	97fffe92 	bl	4025584 <psci_get_target_local_pwr_states>
 4025b40:	d53ed040 	mrs	x0, tpidr_el3
 4025b44:	b9401800 	ldr	w0, [x0,#24]
 4025b48:	9100a3a1 	add	x1, x29, #0x28
 4025b4c:	7100081f 	cmp	w0, #0x2
 4025b50:	2a1403e0 	mov	w0, w20
 4025b54:	54000061 	b.ne	4025b60 <psci_warmboot_entrypoint+0x80>
 4025b58:	97fffdc9 	bl	402527c <psci_cpu_on_finish>
 4025b5c:	14000002 	b	4025b64 <psci_warmboot_entrypoint+0x84>
 4025b60:	97fffe3f 	bl	402545c <psci_cpu_suspend_finish>
 4025b64:	2a1303e0 	mov	w0, w19
 4025b68:	97fffec2 	bl	4025670 <psci_set_pwr_domains_to_run>
 4025b6c:	2a1403e1 	mov	w1, w20
 4025b70:	2a1303e0 	mov	w0, w19
 4025b74:	97ffff75 	bl	4025948 <psci_release_pwr_domain_locks>
 4025b78:	a94153f3 	ldp	x19, x20, [sp,#16]
 4025b7c:	a8c37bfd 	ldp	x29, x30, [sp],#48
 4025b80:	d65f03c0 	ret

0000000004025b84 <psci_spd_migrate_info>:
 4025b84:	d0000021 	adrp	x1, 402b000 <spi_state+0x530>
 4025b88:	f9448421 	ldr	x1, [x1,#2312]
 4025b8c:	b4000081 	cbz	x1, 4025b9c <psci_spd_migrate_info+0x18>
 4025b90:	f9401821 	ldr	x1, [x1,#48]
 4025b94:	b4000041 	cbz	x1, 4025b9c <psci_spd_migrate_info+0x18>
 4025b98:	d61f0020 	br	x1
 4025b9c:	12800000 	mov	w0, #0xffffffff            	// #-1
 4025ba0:	d65f03c0 	ret

0000000004025ba4 <psci_print_power_domain_map>:
 4025ba4:	d65f03c0 	ret

0000000004025ba8 <psci_cpu_on>:
 4025ba8:	a9b77bfd 	stp	x29, x30, [sp,#-144]!
 4025bac:	910003fd 	mov	x29, sp
 4025bb0:	a90153f3 	stp	x19, x20, [sp,#16]
 4025bb4:	f90013f5 	str	x21, [sp,#32]
 4025bb8:	aa0003f3 	mov	x19, x0
 4025bbc:	aa0103f4 	mov	x20, x1
 4025bc0:	aa0203f5 	mov	x21, x2
 4025bc4:	97ffff7e 	bl	40259bc <psci_validate_mpidr>
 4025bc8:	35000140 	cbnz	w0, 4025bf0 <psci_cpu_on+0x48>
 4025bcc:	aa1503e2 	mov	x2, x21
 4025bd0:	aa1403e1 	mov	x1, x20
 4025bd4:	9100e3a0 	add	x0, x29, #0x38
 4025bd8:	97ffff81 	bl	40259dc <psci_validate_entry_point>
 4025bdc:	350000c0 	cbnz	w0, 4025bf4 <psci_cpu_on+0x4c>
 4025be0:	9100e3a1 	add	x1, x29, #0x38
 4025be4:	aa1303e0 	mov	x0, x19
 4025be8:	97fffd54 	bl	4025138 <psci_cpu_on_start>
 4025bec:	14000002 	b	4025bf4 <psci_cpu_on+0x4c>
 4025bf0:	12800020 	mov	w0, #0xfffffffe            	// #-2
 4025bf4:	a94153f3 	ldp	x19, x20, [sp,#16]
 4025bf8:	f94013f5 	ldr	x21, [sp,#32]
 4025bfc:	a8c97bfd 	ldp	x29, x30, [sp],#144
 4025c00:	d65f03c0 	ret

0000000004025c04 <psci_cpu_suspend>:
 4025c04:	a9b67bfd 	stp	x29, x30, [sp,#-160]!
 4025c08:	910003fd 	mov	x29, sp
 4025c0c:	a90153f3 	stp	x19, x20, [sp,#16]
 4025c10:	910283b4 	add	x20, x29, #0xa0
 4025c14:	f9001bf7 	str	x23, [sp,#48]
 4025c18:	a9025bf5 	stp	x21, x22, [sp,#32]
 4025c1c:	aa0103f6 	mov	x22, x1
 4025c20:	2a0003f3 	mov	w19, w0
 4025c24:	781a0e9f 	strh	wzr, [x20,#-96]!
 4025c28:	aa0203f7 	mov	x23, x2
 4025c2c:	aa1403e1 	mov	x1, x20
 4025c30:	97fffe2a 	bl	40254d8 <psci_validate_power_state>
 4025c34:	350004e0 	cbnz	w0, 4025cd0 <psci_cpu_suspend+0xcc>
 4025c38:	aa1403e0 	mov	x0, x20
 4025c3c:	d3504273 	ubfx	x19, x19, #16, #1
 4025c40:	97ffff1a 	bl	40258a8 <psci_find_target_suspend_lvl>
 4025c44:	7100081f 	cmp	w0, #0x2
 4025c48:	2a0003f5 	mov	w21, w0
 4025c4c:	540000a1 	b.ne	4025c60 <psci_cpu_suspend+0x5c>
 4025c50:	f0000000 	adrp	x0, 4028000 <el1_sysregs_context_restore+0x20>
 4025c54:	91264000 	add	x0, x0, #0x990
 4025c58:	9400023e 	bl	4026550 <tf_printf>
 4025c5c:	9400094e 	bl	4028194 <do_panic>
 4025c60:	2a000260 	orr	w0, w19, w0
 4025c64:	350001c0 	cbnz	w0, 4025c9c <psci_cpu_suspend+0x98>
 4025c68:	d0000020 	adrp	x0, 402b000 <spi_state+0x530>
 4025c6c:	f9448001 	ldr	x1, [x0,#2304]
 4025c70:	12800020 	mov	w0, #0xfffffffe            	// #-2
 4025c74:	f9400022 	ldr	x2, [x1]
 4025c78:	b40002c2 	cbz	x2, 4025cd0 <psci_cpu_suspend+0xcc>
 4025c7c:	394103a0 	ldrb	w0, [x29,#64]
 4025c80:	d53ed042 	mrs	x2, tpidr_el3
 4025c84:	39007440 	strb	w0, [x2,#29]
 4025c88:	f9400021 	ldr	x1, [x1]
 4025c8c:	d63f0020 	blr	x1
 4025c90:	d53ed040 	mrs	x0, tpidr_el3
 4025c94:	3900741f 	strb	wzr, [x0,#29]
 4025c98:	14000007 	b	4025cb4 <psci_cpu_suspend+0xb0>
 4025c9c:	35000113 	cbnz	w19, 4025cbc <psci_cpu_suspend+0xb8>
 4025ca0:	2a1303e3 	mov	w3, w19
 4025ca4:	aa1403e2 	mov	x2, x20
 4025ca8:	2a1503e1 	mov	w1, w21
 4025cac:	910123a0 	add	x0, x29, #0x48
 4025cb0:	97fffd9b 	bl	402531c <psci_cpu_suspend_start>
 4025cb4:	52800000 	mov	w0, #0x0                   	// #0
 4025cb8:	14000006 	b	4025cd0 <psci_cpu_suspend+0xcc>
 4025cbc:	aa1703e2 	mov	x2, x23
 4025cc0:	aa1603e1 	mov	x1, x22
 4025cc4:	910123a0 	add	x0, x29, #0x48
 4025cc8:	97ffff45 	bl	40259dc <psci_validate_entry_point>
 4025ccc:	34fffea0 	cbz	w0, 4025ca0 <psci_cpu_suspend+0x9c>
 4025cd0:	a94153f3 	ldp	x19, x20, [sp,#16]
 4025cd4:	a9425bf5 	ldp	x21, x22, [sp,#32]
 4025cd8:	f9401bf7 	ldr	x23, [sp,#48]
 4025cdc:	a8ca7bfd 	ldp	x29, x30, [sp],#160
 4025ce0:	d65f03c0 	ret

0000000004025ce4 <psci_system_suspend>:
 4025ce4:	a9b87bfd 	stp	x29, x30, [sp,#-128]!
 4025ce8:	910003fd 	mov	x29, sp
 4025cec:	a90153f3 	stp	x19, x20, [sp,#16]
 4025cf0:	aa0003f3 	mov	x19, x0
 4025cf4:	aa0103f4 	mov	x20, x1
 4025cf8:	97fffe05 	bl	402550c <psci_is_last_on_cpu>
 4025cfc:	340001e0 	cbz	w0, 4025d38 <psci_system_suspend+0x54>
 4025d00:	aa1303e1 	mov	x1, x19
 4025d04:	aa1403e2 	mov	x2, x20
 4025d08:	9100a3a0 	add	x0, x29, #0x28
 4025d0c:	97ffff34 	bl	40259dc <psci_validate_entry_point>
 4025d10:	2a0003f3 	mov	w19, w0
 4025d14:	35000140 	cbnz	w0, 4025d3c <psci_system_suspend+0x58>
 4025d18:	910083a0 	add	x0, x29, #0x20
 4025d1c:	97fffdf8 	bl	40254fc <psci_query_sys_suspend_pwrstate>
 4025d20:	52800023 	mov	w3, #0x1                   	// #1
 4025d24:	910083a2 	add	x2, x29, #0x20
 4025d28:	2a0303e1 	mov	w1, w3
 4025d2c:	9100a3a0 	add	x0, x29, #0x28
 4025d30:	97fffd7b 	bl	402531c <psci_cpu_suspend_start>
 4025d34:	14000002 	b	4025d3c <psci_system_suspend+0x58>
 4025d38:	12800053 	mov	w19, #0xfffffffd            	// #-3
 4025d3c:	2a1303e0 	mov	w0, w19
 4025d40:	a94153f3 	ldp	x19, x20, [sp,#16]
 4025d44:	a8c87bfd 	ldp	x29, x30, [sp],#128
 4025d48:	d65f03c0 	ret

0000000004025d4c <psci_cpu_off>:
 4025d4c:	52800020 	mov	w0, #0x1                   	// #1
 4025d50:	17fffcbb 	b	402503c <psci_do_cpu_off>

0000000004025d54 <psci_affinity_info>:
 4025d54:	35000181 	cbnz	w1, 4025d84 <psci_affinity_info+0x30>
 4025d58:	a9bf7bfd 	stp	x29, x30, [sp,#-16]!
 4025d5c:	910003fd 	mov	x29, sp
 4025d60:	97fffb36 	bl	4024a38 <plat_core_pos_by_mpidr>
 4025d64:	3100041f 	cmn	w0, #0x1
 4025d68:	54000061 	b.ne	4025d74 <psci_affinity_info+0x20>
 4025d6c:	12800020 	mov	w0, #0xfffffffe            	// #-2
 4025d70:	14000003 	b	4025d7c <psci_affinity_info+0x28>
 4025d74:	94000844 	bl	4027e84 <_cpu_data_by_index>
 4025d78:	b9401800 	ldr	w0, [x0,#24]
 4025d7c:	a8c17bfd 	ldp	x29, x30, [sp],#16
 4025d80:	d65f03c0 	ret
 4025d84:	12800020 	mov	w0, #0xfffffffe            	// #-2
 4025d88:	d65f03c0 	ret

0000000004025d8c <psci_migrate>:
 4025d8c:	a9bd7bfd 	stp	x29, x30, [sp,#-48]!
 4025d90:	910003fd 	mov	x29, sp
 4025d94:	f9000bf3 	str	x19, [sp,#16]
 4025d98:	aa0003f3 	mov	x19, x0
 4025d9c:	9100a3a0 	add	x0, x29, #0x28
 4025da0:	97ffff79 	bl	4025b84 <psci_spd_migrate_info>
 4025da4:	340000a0 	cbz	w0, 4025db8 <psci_migrate+0x2c>
 4025da8:	7100041f 	cmp	w0, #0x1
 4025dac:	12800041 	mov	w1, #0xfffffffd            	// #-3
 4025db0:	5a9f0021 	csinv	w1, w1, wzr, eq
 4025db4:	14000011 	b	4025df8 <psci_migrate+0x6c>
 4025db8:	d53800a0 	mrs	x0, mpidr_el1
 4025dbc:	f94017a2 	ldr	x2, [x29,#40]
 4025dc0:	128000c1 	mov	w1, #0xfffffff9            	// #-7
 4025dc4:	eb00005f 	cmp	x2, x0
 4025dc8:	54000181 	b.ne	4025df8 <psci_migrate+0x6c>
 4025dcc:	aa1303e0 	mov	x0, x19
 4025dd0:	97fffefb 	bl	40259bc <psci_validate_mpidr>
 4025dd4:	12800021 	mov	w1, #0xfffffffe            	// #-2
 4025dd8:	35000100 	cbnz	w0, 4025df8 <psci_migrate+0x6c>
 4025ddc:	d53800a0 	mrs	x0, mpidr_el1
 4025de0:	d0000021 	adrp	x1, 402b000 <spi_state+0x530>
 4025de4:	f9448421 	ldr	x1, [x1,#2312]
 4025de8:	f9401422 	ldr	x2, [x1,#40]
 4025dec:	aa1303e1 	mov	x1, x19
 4025df0:	d63f0040 	blr	x2
 4025df4:	2a0003e1 	mov	w1, w0
 4025df8:	f9400bf3 	ldr	x19, [sp,#16]
 4025dfc:	2a0103e0 	mov	w0, w1
 4025e00:	a8c37bfd 	ldp	x29, x30, [sp],#48
 4025e04:	d65f03c0 	ret

0000000004025e08 <psci_migrate_info_type>:
 4025e08:	a9be7bfd 	stp	x29, x30, [sp,#-32]!
 4025e0c:	910003fd 	mov	x29, sp
 4025e10:	910063a0 	add	x0, x29, #0x18
 4025e14:	97ffff5c 	bl	4025b84 <psci_spd_migrate_info>
 4025e18:	a8c27bfd 	ldp	x29, x30, [sp],#32
 4025e1c:	d65f03c0 	ret

0000000004025e20 <psci_migrate_info_up_cpu>:
 4025e20:	a9be7bfd 	stp	x29, x30, [sp,#-32]!
 4025e24:	910003fd 	mov	x29, sp
 4025e28:	910063a0 	add	x0, x29, #0x18
 4025e2c:	97ffff56 	bl	4025b84 <psci_spd_migrate_info>
 4025e30:	7100041f 	cmp	w0, #0x1
 4025e34:	f9400fa1 	ldr	x1, [x29,#24]
 4025e38:	92800020 	mov	x0, #0xfffffffffffffffe    	// #-2
 4025e3c:	a8c27bfd 	ldp	x29, x30, [sp],#32
 4025e40:	9a809020 	csel	x0, x1, x0, ls
 4025e44:	d65f03c0 	ret

0000000004025e48 <psci_node_hw_state>:
 4025e48:	a9be7bfd 	stp	x29, x30, [sp,#-32]!
 4025e4c:	910003fd 	mov	x29, sp
 4025e50:	a90153f3 	stp	x19, x20, [sp,#16]
 4025e54:	2a0103f3 	mov	w19, w1
 4025e58:	aa0003f4 	mov	x20, x0
 4025e5c:	97fffed8 	bl	40259bc <psci_validate_mpidr>
 4025e60:	7100067f 	cmp	w19, #0x1
 4025e64:	7a5f9000 	ccmp	w0, wzr, #0x0, ls
 4025e68:	54000121 	b.ne	4025e8c <psci_node_hw_state+0x44>
 4025e6c:	d0000020 	adrp	x0, 402b000 <spi_state+0x530>
 4025e70:	2a1303e1 	mov	w1, w19
 4025e74:	f9448000 	ldr	x0, [x0,#2304]
 4025e78:	f9403802 	ldr	x2, [x0,#112]
 4025e7c:	aa1403e0 	mov	x0, x20
 4025e80:	a94153f3 	ldp	x19, x20, [sp,#16]
 4025e84:	a8c27bfd 	ldp	x29, x30, [sp],#32
 4025e88:	d61f0040 	br	x2
 4025e8c:	12800020 	mov	w0, #0xfffffffe            	// #-2
 4025e90:	a94153f3 	ldp	x19, x20, [sp,#16]
 4025e94:	a8c27bfd 	ldp	x29, x30, [sp],#32
 4025e98:	d65f03c0 	ret

0000000004025e9c <psci_features>:
 4025e9c:	2a0003e1 	mov	w1, w0
 4025ea0:	d0000020 	adrp	x0, 402b000 <spi_state+0x530>
 4025ea4:	b9491003 	ldr	w3, [x0,#2320]
 4025ea8:	36f00081 	tbz	w1, #30, 4025eb8 <psci_features+0x1c>
 4025eac:	528c1740 	mov	w0, #0x60ba                	// #24762
 4025eb0:	72a00060 	movk	w0, #0x3, lsl #16
 4025eb4:	0a000063 	and	w3, w3, w0
 4025eb8:	d3587422 	ubfx	x2, x1, #24, #6
 4025ebc:	12800000 	mov	w0, #0xffffffff            	// #-1
 4025ec0:	7100105f 	cmp	w2, #0x4
 4025ec4:	54000141 	b.ne	4025eec <psci_features+0x50>
 4025ec8:	d3505c22 	ubfx	x2, x1, #16, #8
 4025ecc:	35000102 	cbnz	w2, 4025eec <psci_features+0x50>
 4025ed0:	531f7c22 	lsr	w2, w1, #31
 4025ed4:	340000c2 	cbz	w2, 4025eec <psci_features+0x50>
 4025ed8:	721b283f 	tst	w1, #0xffe0
 4025edc:	54000081 	b.ne	4025eec <psci_features+0x50>
 4025ee0:	1ac12041 	lsl	w1, w2, w1
 4025ee4:	6a03003f 	tst	w1, w3
 4025ee8:	5a9f13e0 	csetm	w0, eq
 4025eec:	d65f03c0 	ret

0000000004025ef0 <psci_smc_handler>:
 4025ef0:	a9bf7bfd 	stp	x29, x30, [sp,#-16]!
 4025ef4:	910003fd 	mov	x29, sp
 4025ef8:	360009a7 	tbz	w7, #0, 402602c <psci_smc_handler+0x13c>
 4025efc:	aa0103e4 	mov	x4, x1
 4025f00:	aa0203e1 	mov	x1, x2
 4025f04:	52800022 	mov	w2, #0x1                   	// #1
 4025f08:	2a0003e5 	mov	w5, w0
 4025f0c:	1ac02042 	lsl	w2, w2, w0
 4025f10:	d0000020 	adrp	x0, 402b000 <spi_state+0x530>
 4025f14:	b9491006 	ldr	w6, [x0,#2320]
 4025f18:	b2407fe0 	mov	x0, #0xffffffff            	// #4294967295
 4025f1c:	6a06005f 	tst	w2, w6
 4025f20:	54000880 	b.eq	4026030 <psci_smc_handler+0x140>
 4025f24:	aa0303e2 	mov	x2, x3
 4025f28:	2a0503e3 	mov	w3, w5
 4025f2c:	aa0403e0 	mov	x0, x4
 4025f30:	37f00483 	tbnz	w3, #30, 4025fc0 <psci_smc_handler+0xd0>
 4025f34:	52af8005 	mov	w5, #0x7c000000            	// #2080374784
 4025f38:	92407c84 	and	x4, x4, #0xffffffff
 4025f3c:	0b050063 	add	w3, w3, w5
 4025f40:	92407c26 	and	x6, x1, #0xffffffff
 4025f44:	7100387f 	cmp	w3, #0xe
 4025f48:	92407c42 	and	x2, x2, #0xffffffff
 4025f4c:	54000708 	b.hi	402602c <psci_smc_handler+0x13c>
 4025f50:	f0000005 	adrp	x5, 4028000 <el1_sysregs_context_restore+0x20>
 4025f54:	9125c0a5 	add	x5, x5, #0x970
 4025f58:	386348a3 	ldrb	w3, [x5,w3,uxtw]
 4025f5c:	10000065 	adr	x5, 4025f68 <psci_smc_handler+0x78>
 4025f60:	8b2388a3 	add	x3, x5, w3, sxtb #2
 4025f64:	d61f0060 	br	x3
 4025f68:	97ffff79 	bl	4025d4c <psci_cpu_off>
 4025f6c:	1400002c 	b	402601c <psci_smc_handler+0x12c>
 4025f70:	aa0603e1 	mov	x1, x6
 4025f74:	1400001d 	b	4025fe8 <psci_smc_handler+0xf8>
 4025f78:	aa0603e1 	mov	x1, x6
 4025f7c:	aa0403e0 	mov	x0, x4
 4025f80:	1400001c 	b	4025ff0 <psci_smc_handler+0x100>
 4025f84:	aa0403e0 	mov	x0, x4
 4025f88:	1400001c 	b	4025ff8 <psci_smc_handler+0x108>
 4025f8c:	aa0403e0 	mov	x0, x4
 4025f90:	1400001c 	b	4026000 <psci_smc_handler+0x110>
 4025f94:	97ffff9d 	bl	4025e08 <psci_migrate_info_type>
 4025f98:	14000021 	b	402601c <psci_smc_handler+0x12c>
 4025f9c:	aa0403e0 	mov	x0, x4
 4025fa0:	1400001c 	b	4026010 <psci_smc_handler+0x120>
 4025fa4:	aa0603e1 	mov	x1, x6
 4025fa8:	aa0403e0 	mov	x0, x4
 4025fac:	1400001b 	b	4026018 <psci_smc_handler+0x128>
 4025fb0:	940000d3 	bl	40262fc <psci_system_off>
 4025fb4:	940000df 	bl	4026330 <psci_system_reset>
 4025fb8:	97ffffb9 	bl	4025e9c <psci_features>
 4025fbc:	14000018 	b	402601c <psci_smc_handler+0x12c>
 4025fc0:	12b88004 	mov	w4, #0x3bffffff            	// #1006632959
 4025fc4:	0b0400a3 	add	w3, w5, w4
 4025fc8:	7100347f 	cmp	w3, #0xd
 4025fcc:	54000308 	b.hi	402602c <psci_smc_handler+0x13c>
 4025fd0:	f0000004 	adrp	x4, 4028000 <el1_sysregs_context_restore+0x20>
 4025fd4:	91260084 	add	x4, x4, #0x980
 4025fd8:	38634883 	ldrb	w3, [x4,w3,uxtw]
 4025fdc:	10000064 	adr	x4, 4025fe8 <psci_smc_handler+0xf8>
 4025fe0:	8b238883 	add	x3, x4, w3, sxtb #2
 4025fe4:	d61f0060 	br	x3
 4025fe8:	97ffff07 	bl	4025c04 <psci_cpu_suspend>
 4025fec:	1400000c 	b	402601c <psci_smc_handler+0x12c>
 4025ff0:	97fffeee 	bl	4025ba8 <psci_cpu_on>
 4025ff4:	1400000a 	b	402601c <psci_smc_handler+0x12c>
 4025ff8:	97ffff57 	bl	4025d54 <psci_affinity_info>
 4025ffc:	14000008 	b	402601c <psci_smc_handler+0x12c>
 4026000:	97ffff63 	bl	4025d8c <psci_migrate>
 4026004:	14000006 	b	402601c <psci_smc_handler+0x12c>
 4026008:	a8c17bfd 	ldp	x29, x30, [sp],#16
 402600c:	17ffff85 	b	4025e20 <psci_migrate_info_up_cpu>
 4026010:	97ffff8e 	bl	4025e48 <psci_node_hw_state>
 4026014:	14000002 	b	402601c <psci_smc_handler+0x12c>
 4026018:	97ffff33 	bl	4025ce4 <psci_system_suspend>
 402601c:	93407c00 	sxtw	x0, w0
 4026020:	14000004 	b	4026030 <psci_smc_handler+0x140>
 4026024:	d2a00020 	mov	x0, #0x10000               	// #65536
 4026028:	14000002 	b	4026030 <psci_smc_handler+0x140>
 402602c:	b2407fe0 	mov	x0, #0xffffffff            	// #4294967295
 4026030:	a8c17bfd 	ldp	x29, x30, [sp],#16
 4026034:	d65f03c0 	ret

0000000004026038 <psci_arch_setup>:
 4026038:	a9bf7bfd 	stp	x29, x30, [sp,#-16]!
 402603c:	910003fd 	mov	x29, sp
 4026040:	97fffa51 	bl	4024984 <plat_get_syscnt_freq2>
 4026044:	2a0003e0 	mov	w0, w0
 4026048:	d51be000 	msr	cntfrq_el0, x0
 402604c:	a8c17bfd 	ldp	x29, x30, [sp],#16
 4026050:	140007a0 	b	4027ed0 <init_cpu_ops>

0000000004026054 <psci_setup>:
 4026054:	a9b77bfd 	stp	x29, x30, [sp,#-144]!
 4026058:	910003fd 	mov	x29, sp
 402605c:	a9025bf5 	stp	x21, x22, [sp,#32]
 4026060:	a9046bf9 	stp	x25, x26, [sp,#64]
 4026064:	a90153f3 	stp	x19, x20, [sp,#16]
 4026068:	a90363f7 	stp	x23, x24, [sp,#48]
 402606c:	aa0003f6 	mov	x22, x0
 4026070:	52800035 	mov	w21, #0x1                   	// #1
 4026074:	a90573fb 	stp	x27, x28, [sp,#80]
 4026078:	b0000037 	adrp	x23, 402b000 <spi_state+0x530>
 402607c:	97ffffef 	bl	4026038 <psci_arch_setup>
 4026080:	b0000039 	adrp	x25, 402b000 <spi_state+0x530>
 4026084:	97fffa57 	bl	40249e0 <plat_get_power_domain_tree_desc>
 4026088:	52800014 	mov	w20, #0x0                   	// #0
 402608c:	aa0003e5 	mov	x5, x0
 4026090:	2a1503fa 	mov	w26, w21
 4026094:	912302f7 	add	x23, x23, #0x8c0
 4026098:	91088339 	add	x25, x25, #0x220
 402609c:	0b1402a4 	add	w4, w21, w20
 40260a0:	52800018 	mov	w24, #0x0                   	// #0
 40260a4:	52800015 	mov	w21, #0x0                   	// #0
 40260a8:	6b04029f 	cmp	w20, w4
 40260ac:	540006a0 	b.eq	4026180 <psci_setup+0x12c>
 40260b0:	387448bb 	ldrb	w27, [x5,w20,uxtw]
 40260b4:	2a1803f3 	mov	w19, w24
 40260b8:	5100069c 	sub	w28, w20, #0x1
 40260bc:	0b180360 	add	w0, w27, w24
 40260c0:	6b00027f 	cmp	w19, w0
 40260c4:	54000562 	b.cs	4026170 <psci_setup+0x11c>
 40260c8:	3400019a 	cbz	w26, 40260f8 <psci_setup+0xa4>
 40260cc:	b0000021 	adrp	x1, 402b000 <spi_state+0x530>
 40260d0:	d37c7e60 	ubfiz	x0, x19, #4, #32
 40260d4:	91238021 	add	x1, x1, #0x8e0
 40260d8:	8b000020 	add	x0, x1, x0
 40260dc:	52800021 	mov	w1, #0x1                   	// #1
 40260e0:	39003813 	strb	w19, [x0,#14]
 40260e4:	39003401 	strb	w1, [x0,#13]
 40260e8:	52800041 	mov	w1, #0x2                   	// #2
 40260ec:	b900081c 	str	w28, [x0,#8]
 40260f0:	39003001 	strb	w1, [x0,#12]
 40260f4:	1400001d 	b	4026168 <psci_setup+0x114>
 40260f8:	2a1303e3 	mov	w3, w19
 40260fc:	b9007ba4 	str	w4, [x29,#120]
 4026100:	d37cec60 	lsl	x0, x3, #4
 4026104:	8b0002e1 	add	x1, x23, x0
 4026108:	a9068fa5 	stp	x5, x3, [x29,#104]
 402610c:	b900083c 	str	w28, [x1,#8]
 4026110:	92800001 	mov	x1, #0xffffffffffffffff    	// #-1
 4026114:	f8206ae1 	str	x1, [x23,x0]
 4026118:	2a1303e0 	mov	w0, w19
 402611c:	9400075a 	bl	4027e84 <_cpu_data_by_index>
 4026120:	aa0003e1 	mov	x1, x0
 4026124:	91006000 	add	x0, x0, #0x18
 4026128:	52800022 	mov	w2, #0x1                   	// #1
 402612c:	b9007fa2 	str	w2, [x29,#124]
 4026130:	b9001822 	str	w2, [x1,#24]
 4026134:	52800041 	mov	w1, #0x2                   	// #2
 4026138:	39001001 	strb	w1, [x0,#4]
 402613c:	39001401 	strb	w1, [x0,#5]
 4026140:	d2800101 	mov	x1, #0x8                   	// #8
 4026144:	9400081e 	bl	40281bc <flush_dcache_range>
 4026148:	f9403ba3 	ldr	x3, [x29,#112]
 402614c:	d2804201 	mov	x1, #0x210                 	// #528
 4026150:	b9407fa2 	ldr	w2, [x29,#124]
 4026154:	2a1303e0 	mov	w0, w19
 4026158:	9b016461 	madd	x1, x3, x1, x25
 402615c:	97fffaab 	bl	4024c08 <cm_set_context_by_index>
 4026160:	b9407ba4 	ldr	w4, [x29,#120]
 4026164:	f94037a5 	ldr	x5, [x29,#104]
 4026168:	11000673 	add	w19, w19, #0x1
 402616c:	17ffffd4 	b	40260bc <psci_setup+0x68>
 4026170:	0b1b02b5 	add	w21, w21, w27
 4026174:	11000694 	add	w20, w20, #0x1
 4026178:	2a1303f8 	mov	w24, w19
 402617c:	17ffffcb 	b	40260a8 <psci_setup+0x54>
 4026180:	3400007a 	cbz	w26, 402618c <psci_setup+0x138>
 4026184:	5280001a 	mov	w26, #0x0                   	// #0
 4026188:	17ffffc5 	b	402609c <psci_setup+0x48>
 402618c:	b0000034 	adrp	x20, 402b000 <spi_state+0x530>
 4026190:	52800015 	mov	w21, #0x0                   	// #0
 4026194:	52800013 	mov	w19, #0x0                   	// #0
 4026198:	91238294 	add	x20, x20, #0x8e0
 402619c:	2a1303e0 	mov	w0, w19
 40261a0:	910223a2 	add	x2, x29, #0x88
 40261a4:	52800021 	mov	w1, #0x1                   	// #1
 40261a8:	97fffd20 	bl	4025628 <psci_get_parent_pwr_domain_nodes>
 40261ac:	b9408ba0 	ldr	w0, [x29,#136]
 40261b0:	6b0002bf 	cmp	w21, w0
 40261b4:	54000060 	b.eq	40261c0 <psci_setup+0x16c>
 40261b8:	d37c7c01 	ubfiz	x1, x0, #4, #32
 40261bc:	b8216a93 	str	w19, [x20,x1]
 40261c0:	d37c7c01 	ubfiz	x1, x0, #4, #32
 40261c4:	11000673 	add	w19, w19, #0x1
 40261c8:	8b010281 	add	x1, x20, x1
 40261cc:	71000a7f 	cmp	w19, #0x2
 40261d0:	2a0003f5 	mov	w21, w0
 40261d4:	b9400422 	ldr	w2, [x1,#4]
 40261d8:	11000442 	add	w2, w2, #0x1
 40261dc:	b9000422 	str	w2, [x1,#4]
 40261e0:	54fffde1 	b.ne	402619c <psci_setup+0x148>
 40261e4:	9400089d 	bl	4028458 <plat_my_core_pos>
 40261e8:	d53800a2 	mrs	x2, mpidr_el1
 40261ec:	b2405fe1 	mov	x1, #0xffffff              	// #16777215
 40261f0:	d37c7c00 	ubfiz	x0, x0, #4, #32
 40261f4:	f2c01fe1 	movk	x1, #0xff, lsl #32
 40261f8:	b0000033 	adrp	x19, 402b000 <spi_state+0x530>
 40261fc:	8a010042 	and	x2, x2, x1
 4026200:	b0000021 	adrp	x1, 402b000 <spi_state+0x530>
 4026204:	91230021 	add	x1, x1, #0x8c0
 4026208:	91240274 	add	x20, x19, #0x900
 402620c:	f8206822 	str	x2, [x1,x0]
 4026210:	97fffcd8 	bl	4025570 <psci_init_req_local_pwr_states>
 4026214:	52800020 	mov	w0, #0x1                   	// #1
 4026218:	97fffd16 	bl	4025670 <psci_set_pwr_domains_to_run>
 402621c:	f94006c0 	ldr	x0, [x22,#8]
 4026220:	aa1403e1 	mov	x1, x20
 4026224:	97fff9e6 	bl	40249bc <plat_setup_psci_ops>
 4026228:	d2800101 	mov	x1, #0x8                   	// #8
 402622c:	aa1403e0 	mov	x0, x20
 4026230:	940007e3 	bl	40281bc <flush_dcache_range>
 4026234:	b0000020 	adrp	x0, 402b000 <spi_state+0x530>
 4026238:	52808221 	mov	w1, #0x411                 	// #1041
 402623c:	b9091001 	str	w1, [x0,#2320]
 4026240:	f9448261 	ldr	x1, [x19,#2304]
 4026244:	f9400822 	ldr	x2, [x1,#16]
 4026248:	b4000062 	cbz	x2, 4026254 <psci_setup+0x200>
 402624c:	528082a2 	mov	w2, #0x415                 	// #1045
 4026250:	b9091002 	str	w2, [x0,#2320]
 4026254:	f9400422 	ldr	x2, [x1,#8]
 4026258:	b40000c2 	cbz	x2, 4026270 <psci_setup+0x21c>
 402625c:	f9401022 	ldr	x2, [x1,#32]
 4026260:	b4000082 	cbz	x2, 4026270 <psci_setup+0x21c>
 4026264:	b9491002 	ldr	w2, [x0,#2320]
 4026268:	321d0042 	orr	w2, w2, #0x8
 402626c:	b9091002 	str	w2, [x0,#2320]
 4026270:	f9400c22 	ldr	x2, [x1,#24]
 4026274:	b4000162 	cbz	x2, 40262a0 <psci_setup+0x24c>
 4026278:	f9401422 	ldr	x2, [x1,#40]
 402627c:	b4000122 	cbz	x2, 40262a0 <psci_setup+0x24c>
 4026280:	b9491003 	ldr	w3, [x0,#2320]
 4026284:	321f0062 	orr	w2, w3, #0x2
 4026288:	b9091002 	str	w2, [x0,#2320]
 402628c:	f9402c22 	ldr	x2, [x1,#88]
 4026290:	b4000082 	cbz	x2, 40262a0 <psci_setup+0x24c>
 4026294:	52880042 	mov	w2, #0x4002                	// #16386
 4026298:	2a020062 	orr	w2, w3, w2
 402629c:	b9091002 	str	w2, [x0,#2320]
 40262a0:	f9401c22 	ldr	x2, [x1,#56]
 40262a4:	b4000082 	cbz	x2, 40262b4 <psci_setup+0x260>
 40262a8:	b9491002 	ldr	w2, [x0,#2320]
 40262ac:	32180042 	orr	w2, w2, #0x100
 40262b0:	b9091002 	str	w2, [x0,#2320]
 40262b4:	f9402022 	ldr	x2, [x1,#64]
 40262b8:	b4000082 	cbz	x2, 40262c8 <psci_setup+0x274>
 40262bc:	b9491002 	ldr	w2, [x0,#2320]
 40262c0:	32170042 	orr	w2, w2, #0x200
 40262c4:	b9091002 	str	w2, [x0,#2320]
 40262c8:	f9403821 	ldr	x1, [x1,#112]
 40262cc:	b4000081 	cbz	x1, 40262dc <psci_setup+0x288>
 40262d0:	b9491001 	ldr	w1, [x0,#2320]
 40262d4:	32130021 	orr	w1, w1, #0x2000
 40262d8:	b9091001 	str	w1, [x0,#2320]
 40262dc:	a94153f3 	ldp	x19, x20, [sp,#16]
 40262e0:	a9425bf5 	ldp	x21, x22, [sp,#32]
 40262e4:	a94363f7 	ldp	x23, x24, [sp,#48]
 40262e8:	a9446bf9 	ldp	x25, x26, [sp,#64]
 40262ec:	a94573fb 	ldp	x27, x28, [sp,#80]
 40262f0:	52800000 	mov	w0, #0x0                   	// #0
 40262f4:	a8c97bfd 	ldp	x29, x30, [sp],#144
 40262f8:	d65f03c0 	ret

00000000040262fc <psci_system_off>:
 40262fc:	a9bf7bfd 	stp	x29, x30, [sp,#-16]!
 4026300:	910003fd 	mov	x29, sp
 4026304:	97fffe28 	bl	4025ba4 <psci_print_power_domain_map>
 4026308:	b0000020 	adrp	x0, 402b000 <spi_state+0x530>
 402630c:	f9448400 	ldr	x0, [x0,#2312]
 4026310:	b4000080 	cbz	x0, 4026320 <psci_system_off+0x24>
 4026314:	f9401c00 	ldr	x0, [x0,#56]
 4026318:	b4000040 	cbz	x0, 4026320 <psci_system_off+0x24>
 402631c:	d63f0000 	blr	x0
 4026320:	b0000020 	adrp	x0, 402b000 <spi_state+0x530>
 4026324:	f9448000 	ldr	x0, [x0,#2304]
 4026328:	f9401c00 	ldr	x0, [x0,#56]
 402632c:	d63f0000 	blr	x0

0000000004026330 <psci_system_reset>:
 4026330:	a9bf7bfd 	stp	x29, x30, [sp,#-16]!
 4026334:	910003fd 	mov	x29, sp
 4026338:	97fffe1b 	bl	4025ba4 <psci_print_power_domain_map>
 402633c:	b0000020 	adrp	x0, 402b000 <spi_state+0x530>
 4026340:	f9448400 	ldr	x0, [x0,#2312]
 4026344:	b4000080 	cbz	x0, 4026354 <psci_system_reset+0x24>
 4026348:	f9402000 	ldr	x0, [x0,#64]
 402634c:	b4000040 	cbz	x0, 4026354 <psci_system_reset+0x24>
 4026350:	d63f0000 	blr	x0
 4026354:	b0000020 	adrp	x0, 402b000 <spi_state+0x530>
 4026358:	f9448000 	ldr	x0, [x0,#2304]
 402635c:	f9402000 	ldr	x0, [x0,#64]
 4026360:	d63f0000 	blr	x0

0000000004026364 <bakery_lock_get>:
 4026364:	a9be7bfd 	stp	x29, x30, [sp,#-32]!
 4026368:	910003fd 	mov	x29, sp
 402636c:	f9000bf3 	str	x19, [sp,#16]
 4026370:	aa0003f3 	mov	x19, x0
 4026374:	94000839 	bl	4028458 <plat_my_core_pos>
 4026378:	d53e1001 	mrs	x1, sctlr_el3
 402637c:	d0fdfec3 	adrp	x3, 0 <CPU_MIDR>
 4026380:	2a0003e2 	mov	w2, w0
 4026384:	91010063 	add	x3, x3, #0x40
 4026388:	52800025 	mov	w5, #0x1                   	// #1
 402638c:	9b037c42 	mul	x2, x2, x3
 4026390:	8b130044 	add	x4, x2, x19
 4026394:	78336845 	strh	w5, [x2,x19]
 4026398:	121e0025 	and	w5, w1, #0x4
 402639c:	36100061 	tbz	w1, #2, 40263a8 <bakery_lock_get+0x44>
 40263a0:	d50b7a24 	dc	cvac, x4
 40263a4:	14000002 	b	40263ac <bakery_lock_get+0x48>
 40263a8:	d5087624 	dc	ivac, x4
 40263ac:	d5033b9f 	dsb	ish
 40263b0:	34000120 	cbz	w0, 40263d4 <bakery_lock_get+0x70>
 40263b4:	350000c5 	cbnz	w5, 40263cc <bakery_lock_get+0x68>
 40263b8:	79400261 	ldrh	w1, [x19]
 40263bc:	7100041f 	cmp	w0, #0x1
 40263c0:	d3413c21 	ubfx	x1, x1, #1, #15
 40263c4:	540000a1 	b.ne	40263d8 <bakery_lock_get+0x74>
 40263c8:	1400000b 	b	40263f4 <bakery_lock_get+0x90>
 40263cc:	d50b7e33 	dc	civac, x19
 40263d0:	17fffffa 	b	40263b8 <bakery_lock_get+0x54>
 40263d4:	52800001 	mov	w1, #0x0                   	// #0
 40263d8:	8b130066 	add	x6, x3, x19
 40263dc:	34000045 	cbz	w5, 40263e4 <bakery_lock_get+0x80>
 40263e0:	d50b7e26 	dc	civac, x6
 40263e4:	78736866 	ldrh	w6, [x3,x19]
 40263e8:	d3413cc6 	ubfx	x6, x6, #1, #15
 40263ec:	6b06003f 	cmp	w1, w6
 40263f0:	1a862021 	csel	w1, w1, w6, cs
 40263f4:	11000421 	add	w1, w1, #0x1
 40263f8:	531f3826 	ubfiz	w6, w1, #1, #15
 40263fc:	78336846 	strh	w6, [x2,x19]
 4026400:	34000065 	cbz	w5, 402640c <bakery_lock_get+0xa8>
 4026404:	d50b7a24 	dc	cvac, x4
 4026408:	14000002 	b	4026410 <bakery_lock_get+0xac>
 402640c:	d5087624 	dc	ivac, x4
 4026410:	d5033b9f 	dsb	ish
 4026414:	52800004 	mov	w4, #0x0                   	// #0
 4026418:	2a012001 	orr	w1, w0, w1, lsl #8
 402641c:	6b04001f 	cmp	w0, w4
 4026420:	54000240 	b.eq	4026468 <bakery_lock_get+0x104>
 4026424:	34000045 	cbz	w5, 402642c <bakery_lock_get+0xc8>
 4026428:	d50b7e33 	dc	civac, x19
 402642c:	79400262 	ldrh	w2, [x19]
 4026430:	53003c42 	uxth	w2, w2
 4026434:	3707ff82 	tbnz	w2, #0, 4026424 <bakery_lock_get+0xc0>
 4026438:	53017c42 	lsr	w2, w2, #1
 402643c:	34000162 	cbz	w2, 4026468 <bakery_lock_get+0x104>
 4026440:	2a022086 	orr	w6, w4, w2, lsl #8
 4026444:	6b06003f 	cmp	w1, w6
 4026448:	54000109 	b.ls	4026468 <bakery_lock_get+0x104>
 402644c:	d503205f 	wfe
 4026450:	34000045 	cbz	w5, 4026458 <bakery_lock_get+0xf4>
 4026454:	d50b7e33 	dc	civac, x19
 4026458:	79400266 	ldrh	w6, [x19]
 402645c:	d3413cc6 	ubfx	x6, x6, #1, #15
 4026460:	6b06005f 	cmp	w2, w6
 4026464:	54ffff40 	b.eq	402644c <bakery_lock_get+0xe8>
 4026468:	11000484 	add	w4, w4, #0x1
 402646c:	8b030273 	add	x19, x19, x3
 4026470:	7100089f 	cmp	w4, #0x2
 4026474:	54fffd41 	b.ne	402641c <bakery_lock_get+0xb8>
 4026478:	f9400bf3 	ldr	x19, [sp,#16]
 402647c:	a8c27bfd 	ldp	x29, x30, [sp],#32
 4026480:	d65f03c0 	ret

0000000004026484 <bakery_lock_release>:
 4026484:	a9be7bfd 	stp	x29, x30, [sp,#-32]!
 4026488:	910003fd 	mov	x29, sp
 402648c:	a90153f3 	stp	x19, x20, [sp,#16]
 4026490:	aa0003f4 	mov	x20, x0
 4026494:	d53e1013 	mrs	x19, sctlr_el3
 4026498:	940007f0 	bl	4028458 <plat_my_core_pos>
 402649c:	2a0003e0 	mov	w0, w0
 40264a0:	d0fdfec1 	adrp	x1, 0 <CPU_MIDR>
 40264a4:	91010021 	add	x1, x1, #0x40
 40264a8:	9b017c00 	mul	x0, x0, x1
 40264ac:	8b000281 	add	x1, x20, x0
 40264b0:	78206a9f 	strh	wzr, [x20,x0]
 40264b4:	36100073 	tbz	w19, #2, 40264c0 <bakery_lock_release+0x3c>
 40264b8:	d50b7a21 	dc	cvac, x1
 40264bc:	14000002 	b	40264c4 <bakery_lock_release+0x40>
 40264c0:	d5087621 	dc	ivac, x1
 40264c4:	d5033b9f 	dsb	ish
 40264c8:	d503209f 	sev
 40264cc:	a94153f3 	ldp	x19, x20, [sp,#16]
 40264d0:	a8c27bfd 	ldp	x29, x30, [sp],#32
 40264d4:	d65f03c0 	ret

00000000040264d8 <print_entry_point_info>:
 40264d8:	d65f03c0 	ret

00000000040264dc <unsigned_num_print>:
 40264dc:	a9bc7bfd 	stp	x29, x30, [sp,#-64]!
 40264e0:	d2800003 	mov	x3, #0x0                   	// #0
 40264e4:	910003fd 	mov	x29, sp
 40264e8:	f9000bf3 	str	x19, [sp,#16]
 40264ec:	2a0103e2 	mov	w2, w1
 40264f0:	11000473 	add	w19, w3, #0x1
 40264f4:	9ac20804 	udiv	x4, x0, x2
 40264f8:	9b028080 	msub	x0, x4, x2, x0
 40264fc:	9100a3a2 	add	x2, x29, #0x28
 4026500:	7100241f 	cmp	w0, #0x9
 4026504:	5400006c 	b.gt	4026510 <unsigned_num_print+0x34>
 4026508:	1100c000 	add	w0, w0, #0x30
 402650c:	14000002 	b	4026514 <unsigned_num_print+0x38>
 4026510:	11015c00 	add	w0, w0, #0x57
 4026514:	38236840 	strb	w0, [x2,x3]
 4026518:	aa0403e0 	mov	x0, x4
 402651c:	91000463 	add	x3, x3, #0x1
 4026520:	b5fffe64 	cbnz	x4, 40264ec <unsigned_num_print+0x10>
 4026524:	51000673 	sub	w19, w19, #0x1
 4026528:	3100067f 	cmn	w19, #0x1
 402652c:	540000c0 	b.eq	4026544 <unsigned_num_print+0x68>
 4026530:	d13f03a0 	sub	x0, x29, #0xfc0
 4026534:	8b33c000 	add	x0, x0, w19, sxtw
 4026538:	397fa000 	ldrb	w0, [x0,#4072]
 402653c:	9400010c 	bl	402696c <putchar>
 4026540:	17fffff9 	b	4026524 <unsigned_num_print+0x48>
 4026544:	f9400bf3 	ldr	x19, [sp,#16]
 4026548:	a8c47bfd 	ldp	x29, x30, [sp],#64
 402654c:	d65f03c0 	ret

0000000004026550 <tf_printf>:
 4026550:	a9b77bfd 	stp	x29, x30, [sp,#-144]!
 4026554:	910003fd 	mov	x29, sp
 4026558:	a90153f3 	stp	x19, x20, [sp,#16]
 402655c:	aa0003f3 	mov	x19, x0
 4026560:	910243a0 	add	x0, x29, #0x90
 4026564:	d0000014 	adrp	x20, 4028000 <el1_sysregs_context_restore+0x20>
 4026568:	b9004fbf 	str	wzr, [x29,#76]
 402656c:	a90303a0 	stp	x0, x0, [x29,#48]
 4026570:	910143a0 	add	x0, x29, #0x50
 4026574:	91273294 	add	x20, x20, #0x9cc
 4026578:	f90023a0 	str	x0, [x29,#64]
 402657c:	128006e0 	mov	w0, #0xffffffc8            	// #-56
 4026580:	a9025bf5 	stp	x21, x22, [sp,#32]
 4026584:	a9058ba1 	stp	x1, x2, [x29,#88]
 4026588:	a90693a3 	stp	x3, x4, [x29,#104]
 402658c:	a9079ba5 	stp	x5, x6, [x29,#120]
 4026590:	f90047a7 	str	x7, [x29,#136]
 4026594:	b9004ba0 	str	w0, [x29,#72]
 4026598:	39400260 	ldrb	w0, [x19]
 402659c:	34001540 	cbz	w0, 4026844 <tf_printf+0x2f4>
 40265a0:	7100941f 	cmp	w0, #0x25
 40265a4:	540014a1 	b.ne	4026838 <tf_printf+0x2e8>
 40265a8:	91000a60 	add	x0, x19, #0x2
 40265ac:	52800002 	mov	w2, #0x0                   	// #0
 40265b0:	385ff001 	ldurb	w1, [x0,#-1]
 40265b4:	d1000413 	sub	x19, x0, #0x1
 40265b8:	51019021 	sub	w1, w1, #0x64
 40265bc:	7100583f 	cmp	w1, #0x16
 40265c0:	54001428 	b.hi	4026844 <tf_printf+0x2f4>
 40265c4:	78615a81 	ldrh	w1, [x20,w1,uxtw #1]
 40265c8:	10000063 	adr	x3, 40265d4 <tf_printf+0x84>
 40265cc:	8b21a861 	add	x1, x3, w1, sxth #2
 40265d0:	d61f0020 	br	x1
 40265d4:	52800042 	mov	w2, #0x2                   	// #2
 40265d8:	91000400 	add	x0, x0, #0x1
 40265dc:	17fffff5 	b	40265b0 <tf_printf+0x60>
 40265e0:	7100045f 	cmp	w2, #0x1
 40265e4:	b9404ba3 	ldr	w3, [x29,#72]
 40265e8:	f9401ba0 	ldr	x0, [x29,#48]
 40265ec:	5400004c 	b.gt	40265f4 <tf_printf+0xa4>
 40265f0:	340001c2 	cbz	w2, 4026628 <tf_printf+0xd8>
 40265f4:	36f800a3 	tbz	w3, #31, 4026608 <tf_printf+0xb8>
 40265f8:	11002061 	add	w1, w3, #0x8
 40265fc:	b9004ba1 	str	w1, [x29,#72]
 4026600:	6b1f003f 	cmp	w1, wzr
 4026604:	540000ad 	b.le	4026618 <tf_printf+0xc8>
 4026608:	91003c01 	add	x1, x0, #0xf
 402660c:	927df021 	and	x1, x1, #0xfffffffffffffff8
 4026610:	f9001ba1 	str	x1, [x29,#48]
 4026614:	14000003 	b	4026620 <tf_printf+0xd0>
 4026618:	f9401fa1 	ldr	x1, [x29,#56]
 402661c:	8b23c020 	add	x0, x1, w3, sxtw
 4026620:	f9400015 	ldr	x21, [x0]
 4026624:	1400000d 	b	4026658 <tf_printf+0x108>
 4026628:	36f800a3 	tbz	w3, #31, 402663c <tf_printf+0xec>
 402662c:	11002061 	add	w1, w3, #0x8
 4026630:	b9004ba1 	str	w1, [x29,#72]
 4026634:	6b1f003f 	cmp	w1, wzr
 4026638:	540000ad 	b.le	402664c <tf_printf+0xfc>
 402663c:	91002c01 	add	x1, x0, #0xb
 4026640:	927df021 	and	x1, x1, #0xfffffffffffffff8
 4026644:	f9001ba1 	str	x1, [x29,#48]
 4026648:	14000003 	b	4026654 <tf_printf+0x104>
 402664c:	f9401fa1 	ldr	x1, [x29,#56]
 4026650:	8b23c020 	add	x0, x1, w3, sxtw
 4026654:	b9800015 	ldrsw	x21, [x0]
 4026658:	b6f80095 	tbz	x21, #63, 4026668 <tf_printf+0x118>
 402665c:	528005a0 	mov	w0, #0x2d                  	// #45
 4026660:	cb1503f5 	neg	x21, x21
 4026664:	940000c2 	bl	402696c <putchar>
 4026668:	52800141 	mov	w1, #0xa                   	// #10
 402666c:	aa1503e0 	mov	x0, x21
 4026670:	1400006f 	b	402682c <tf_printf+0x2dc>
 4026674:	b9404ba1 	ldr	w1, [x29,#72]
 4026678:	f9401ba0 	ldr	x0, [x29,#48]
 402667c:	36f800a1 	tbz	w1, #31, 4026690 <tf_printf+0x140>
 4026680:	11002022 	add	w2, w1, #0x8
 4026684:	b9004ba2 	str	w2, [x29,#72]
 4026688:	6b1f005f 	cmp	w2, wzr
 402668c:	540000ad 	b.le	40266a0 <tf_printf+0x150>
 4026690:	91003c01 	add	x1, x0, #0xf
 4026694:	927df021 	and	x1, x1, #0xfffffffffffffff8
 4026698:	f9001ba1 	str	x1, [x29,#48]
 402669c:	14000003 	b	40266a8 <tf_printf+0x158>
 40266a0:	f9401fa0 	ldr	x0, [x29,#56]
 40266a4:	8b21c000 	add	x0, x0, w1, sxtw
 40266a8:	f9400015 	ldr	x21, [x0]
 40266ac:	394002a0 	ldrb	w0, [x21]
 40266b0:	34000c00 	cbz	w0, 4026830 <tf_printf+0x2e0>
 40266b4:	910006b5 	add	x21, x21, #0x1
 40266b8:	940000ad 	bl	402696c <putchar>
 40266bc:	17fffffc 	b	40266ac <tf_printf+0x15c>
 40266c0:	b9404ba1 	ldr	w1, [x29,#72]
 40266c4:	f9401ba0 	ldr	x0, [x29,#48]
 40266c8:	36f800a1 	tbz	w1, #31, 40266dc <tf_printf+0x18c>
 40266cc:	11002022 	add	w2, w1, #0x8
 40266d0:	b9004ba2 	str	w2, [x29,#72]
 40266d4:	6b1f005f 	cmp	w2, wzr
 40266d8:	540000ad 	b.le	40266ec <tf_printf+0x19c>
 40266dc:	91003c01 	add	x1, x0, #0xf
 40266e0:	927df021 	and	x1, x1, #0xfffffffffffffff8
 40266e4:	f9001ba1 	str	x1, [x29,#48]
 40266e8:	14000003 	b	40266f4 <tf_printf+0x1a4>
 40266ec:	f9401fa0 	ldr	x0, [x29,#56]
 40266f0:	8b21c000 	add	x0, x0, w1, sxtw
 40266f4:	f9400016 	ldr	x22, [x0]
 40266f8:	b4000096 	cbz	x22, 4026708 <tf_printf+0x1b8>
 40266fc:	d0000015 	adrp	x21, 4028000 <el1_sysregs_context_restore+0x20>
 4026700:	9127f2b5 	add	x21, x21, #0x9fc
 4026704:	14000004 	b	4026714 <tf_printf+0x1c4>
 4026708:	52800201 	mov	w1, #0x10                  	// #16
 402670c:	aa1603e0 	mov	x0, x22
 4026710:	14000047 	b	402682c <tf_printf+0x2dc>
 4026714:	394002a0 	ldrb	w0, [x21]
 4026718:	34ffff80 	cbz	w0, 4026708 <tf_printf+0x1b8>
 402671c:	910006b5 	add	x21, x21, #0x1
 4026720:	94000093 	bl	402696c <putchar>
 4026724:	17fffffc 	b	4026714 <tf_printf+0x1c4>
 4026728:	7100045f 	cmp	w2, #0x1
 402672c:	b9404ba3 	ldr	w3, [x29,#72]
 4026730:	f9401ba1 	ldr	x1, [x29,#48]
 4026734:	5400004c 	b.gt	402673c <tf_printf+0x1ec>
 4026738:	340001c2 	cbz	w2, 4026770 <tf_printf+0x220>
 402673c:	36f800a3 	tbz	w3, #31, 4026750 <tf_printf+0x200>
 4026740:	11002060 	add	w0, w3, #0x8
 4026744:	b9004ba0 	str	w0, [x29,#72]
 4026748:	6b1f001f 	cmp	w0, wzr
 402674c:	540000ad 	b.le	4026760 <tf_printf+0x210>
 4026750:	91003c20 	add	x0, x1, #0xf
 4026754:	927df000 	and	x0, x0, #0xfffffffffffffff8
 4026758:	f9001ba0 	str	x0, [x29,#48]
 402675c:	14000003 	b	4026768 <tf_printf+0x218>
 4026760:	f9401fa0 	ldr	x0, [x29,#56]
 4026764:	8b23c001 	add	x1, x0, w3, sxtw
 4026768:	f9400020 	ldr	x0, [x1]
 402676c:	1400000d 	b	40267a0 <tf_printf+0x250>
 4026770:	36f800a3 	tbz	w3, #31, 4026784 <tf_printf+0x234>
 4026774:	11002060 	add	w0, w3, #0x8
 4026778:	b9004ba0 	str	w0, [x29,#72]
 402677c:	6b1f001f 	cmp	w0, wzr
 4026780:	540000ad 	b.le	4026794 <tf_printf+0x244>
 4026784:	91002c20 	add	x0, x1, #0xb
 4026788:	927df000 	and	x0, x0, #0xfffffffffffffff8
 402678c:	f9001ba0 	str	x0, [x29,#48]
 4026790:	14000003 	b	402679c <tf_printf+0x24c>
 4026794:	f9401fa0 	ldr	x0, [x29,#56]
 4026798:	8b23c001 	add	x1, x0, w3, sxtw
 402679c:	b9400020 	ldr	w0, [x1]
 40267a0:	52800201 	mov	w1, #0x10                  	// #16
 40267a4:	14000022 	b	402682c <tf_printf+0x2dc>
 40267a8:	11000442 	add	w2, w2, #0x1
 40267ac:	17ffff8b 	b	40265d8 <tf_printf+0x88>
 40267b0:	7100045f 	cmp	w2, #0x1
 40267b4:	b9404ba0 	ldr	w0, [x29,#72]
 40267b8:	f9401ba1 	ldr	x1, [x29,#48]
 40267bc:	5400004c 	b.gt	40267c4 <tf_printf+0x274>
 40267c0:	340001c2 	cbz	w2, 40267f8 <tf_printf+0x2a8>
 40267c4:	36f800a0 	tbz	w0, #31, 40267d8 <tf_printf+0x288>
 40267c8:	11002002 	add	w2, w0, #0x8
 40267cc:	b9004ba2 	str	w2, [x29,#72]
 40267d0:	6b1f005f 	cmp	w2, wzr
 40267d4:	540000ad 	b.le	40267e8 <tf_printf+0x298>
 40267d8:	91003c20 	add	x0, x1, #0xf
 40267dc:	927df000 	and	x0, x0, #0xfffffffffffffff8
 40267e0:	f9001ba0 	str	x0, [x29,#48]
 40267e4:	14000003 	b	40267f0 <tf_printf+0x2a0>
 40267e8:	f9401fa2 	ldr	x2, [x29,#56]
 40267ec:	8b20c041 	add	x1, x2, w0, sxtw
 40267f0:	f9400020 	ldr	x0, [x1]
 40267f4:	1400000d 	b	4026828 <tf_printf+0x2d8>
 40267f8:	36f800a0 	tbz	w0, #31, 402680c <tf_printf+0x2bc>
 40267fc:	11002002 	add	w2, w0, #0x8
 4026800:	b9004ba2 	str	w2, [x29,#72]
 4026804:	6b1f005f 	cmp	w2, wzr
 4026808:	540000ad 	b.le	402681c <tf_printf+0x2cc>
 402680c:	91002c20 	add	x0, x1, #0xb
 4026810:	927df000 	and	x0, x0, #0xfffffffffffffff8
 4026814:	f9001ba0 	str	x0, [x29,#48]
 4026818:	14000003 	b	4026824 <tf_printf+0x2d4>
 402681c:	f9401fa2 	ldr	x2, [x29,#56]
 4026820:	8b20c041 	add	x1, x2, w0, sxtw
 4026824:	b9400020 	ldr	w0, [x1]
 4026828:	52800141 	mov	w1, #0xa                   	// #10
 402682c:	97ffff2c 	bl	40264dc <unsigned_num_print>
 4026830:	91000673 	add	x19, x19, #0x1
 4026834:	17ffff59 	b	4026598 <tf_printf+0x48>
 4026838:	91000673 	add	x19, x19, #0x1
 402683c:	9400004c 	bl	402696c <putchar>
 4026840:	17ffff56 	b	4026598 <tf_printf+0x48>
 4026844:	a94153f3 	ldp	x19, x20, [sp,#16]
 4026848:	a9425bf5 	ldp	x21, x22, [sp,#32]
 402684c:	a8c97bfd 	ldp	x29, x30, [sp],#144
 4026850:	d65f03c0 	ret

0000000004026854 <memset>:
 4026854:	d2800003 	mov	x3, #0x0                   	// #0
 4026858:	eb03005f 	cmp	x2, x3
 402685c:	54000080 	b.eq	402686c <memset+0x18>
 4026860:	38236801 	strb	w1, [x0,x3]
 4026864:	91000463 	add	x3, x3, #0x1
 4026868:	17fffffc 	b	4026858 <memset+0x4>
 402686c:	d65f03c0 	ret

0000000004026870 <memcpy>:
 4026870:	d2800003 	mov	x3, #0x0                   	// #0
 4026874:	eb03005f 	cmp	x2, x3
 4026878:	540000a0 	b.eq	402688c <memcpy+0x1c>
 402687c:	38636824 	ldrb	w4, [x1,x3]
 4026880:	38236804 	strb	w4, [x0,x3]
 4026884:	91000463 	add	x3, x3, #0x1
 4026888:	17fffffb 	b	4026874 <memcpy+0x4>
 402688c:	d65f03c0 	ret

0000000004026890 <memmove>:
 4026890:	cb010006 	sub	x6, x0, x1
 4026894:	aa0003e4 	mov	x4, x0
 4026898:	eb0200df 	cmp	x6, x2
 402689c:	54000043 	b.cc	40268a4 <memmove+0x14>
 40268a0:	17fffff4 	b	4026870 <memcpy>
 40268a4:	8b020003 	add	x3, x0, x2
 40268a8:	8b020025 	add	x5, x1, x2
 40268ac:	aa2303e1 	mvn	x1, x3
 40268b0:	8b010001 	add	x1, x0, x1
 40268b4:	d2800000 	mov	x0, #0x0                   	// #0
 40268b8:	d1000400 	sub	x0, x0, #0x1
 40268bc:	eb00003f 	cmp	x1, x0
 40268c0:	54000080 	b.eq	40268d0 <memmove+0x40>
 40268c4:	386068a2 	ldrb	w2, [x5,x0]
 40268c8:	38206862 	strb	w2, [x3,x0]
 40268cc:	17fffffb 	b	40268b8 <memmove+0x28>
 40268d0:	aa0403e0 	mov	x0, x4
 40268d4:	d65f03c0 	ret

00000000040268d8 <printf>:
 40268d8:	a9ae7bfd 	stp	x29, x30, [sp,#-288]!
 40268dc:	910003fd 	mov	x29, sp
 40268e0:	a90153f3 	stp	x19, x20, [sp,#16]
 40268e4:	910183b4 	add	x20, x29, #0x60
 40268e8:	d2800013 	mov	x19, #0x0                   	// #0
 40268ec:	a90e8ba1 	stp	x1, x2, [x29,#232]
 40268f0:	910483a1 	add	x1, x29, #0x120
 40268f4:	b9005fbf 	str	wzr, [x29,#92]
 40268f8:	a90407a1 	stp	x1, x1, [x29,#64]
 40268fc:	910383a1 	add	x1, x29, #0xe0
 4026900:	f9002ba1 	str	x1, [x29,#80]
 4026904:	128006e1 	mov	w1, #0xffffffc8            	// #-56
 4026908:	b9005ba1 	str	w1, [x29,#88]
 402690c:	a90f93a3 	stp	x3, x4, [x29,#248]
 4026910:	a9440fa2 	ldp	x2, x3, [x29,#64]
 4026914:	a9020fa2 	stp	x2, x3, [x29,#32]
 4026918:	a9450fa2 	ldp	x2, x3, [x29,#80]
 402691c:	a9030fa2 	stp	x2, x3, [x29,#48]
 4026920:	d2800fe1 	mov	x1, #0x7f                  	// #127
 4026924:	aa0003e2 	mov	x2, x0
 4026928:	910083a3 	add	x3, x29, #0x20
 402692c:	aa1403e0 	mov	x0, x20
 4026930:	a9109ba5 	stp	x5, x6, [x29,#264]
 4026934:	f9008fa7 	str	x7, [x29,#280]
 4026938:	940003a1 	bl	40277bc <vsnprintf>
 402693c:	39037fbf 	strb	wzr, [x29,#223]
 4026940:	38736a81 	ldrb	w1, [x20,x19]
 4026944:	2a1303e0 	mov	w0, w19
 4026948:	340000c1 	cbz	w1, 4026960 <printf+0x88>
 402694c:	2a0103e0 	mov	w0, w1
 4026950:	91000673 	add	x19, x19, #0x1
 4026954:	94000006 	bl	402696c <putchar>
 4026958:	3100041f 	cmn	w0, #0x1
 402695c:	54ffff21 	b.ne	4026940 <printf+0x68>
 4026960:	a94153f3 	ldp	x19, x20, [sp,#16]
 4026964:	a8d27bfd 	ldp	x29, x30, [sp],#288
 4026968:	d65f03c0 	ret

000000000402696c <putchar>:
 402696c:	a9be7bfd 	stp	x29, x30, [sp,#-32]!
 4026970:	910003fd 	mov	x29, sp
 4026974:	f9000bf3 	str	x19, [sp,#16]
 4026978:	2a0003f3 	mov	w19, w0
 402697c:	53001c00 	uxtb	w0, w0
 4026980:	94000689 	bl	40283a4 <console_putc>
 4026984:	6b1f001f 	cmp	w0, wzr
 4026988:	5a9fa260 	csinv	w0, w19, wzr, ge
 402698c:	f9400bf3 	ldr	x19, [sp,#16]
 4026990:	a8c27bfd 	ldp	x29, x30, [sp],#32
 4026994:	d65f03c0 	ret

0000000004026998 <strlen>:
 4026998:	aa0003e1 	mov	x1, x0
 402699c:	39400022 	ldrb	w2, [x1]
 40269a0:	34000062 	cbz	w2, 40269ac <strlen+0x14>
 40269a4:	91000421 	add	x1, x1, #0x1
 40269a8:	17fffffd 	b	402699c <strlen+0x4>
 40269ac:	cb000020 	sub	x0, x1, x0
 40269b0:	d65f03c0 	ret

00000000040269b4 <snprintf_func>:
 40269b4:	f9400422 	ldr	x2, [x1,#8]
 40269b8:	f100045f 	cmp	x2, #0x1
 40269bc:	54000109 	b.ls	40269dc <snprintf_func+0x28>
 40269c0:	f9400022 	ldr	x2, [x1]
 40269c4:	91000443 	add	x3, x2, #0x1
 40269c8:	f9000023 	str	x3, [x1]
 40269cc:	39000040 	strb	w0, [x2]
 40269d0:	f9400420 	ldr	x0, [x1,#8]
 40269d4:	d1000400 	sub	x0, x0, #0x1
 40269d8:	f9000420 	str	x0, [x1,#8]
 40269dc:	d65f03c0 	ret

00000000040269e0 <kvprintf>:
 40269e0:	a9b07bfd 	stp	x29, x30, [sp,#-256]!
 40269e4:	eb1f003f 	cmp	x1, xzr
 40269e8:	910003fd 	mov	x29, sp
 40269ec:	a90153f3 	stp	x19, x20, [sp,#16]
 40269f0:	a9025bf5 	stp	x21, x22, [sp,#32]
 40269f4:	a90a0ba0 	stp	x0, x2, [x29,#160]
 40269f8:	a90363f7 	stp	x23, x24, [sp,#48]
 40269fc:	f94053a0 	ldr	x0, [x29,#160]
 4026a00:	aa0103f3 	mov	x19, x1
 4026a04:	a9046bf9 	stp	x25, x26, [sp,#64]
 4026a08:	a90573fb 	stp	x27, x28, [sp,#80]
 4026a0c:	b90097a3 	str	w3, [x29,#148]
 4026a10:	9a9f0058 	csel	x24, x2, xzr, eq
 4026a14:	b9401899 	ldr	w25, [x4,#24]
 4026a18:	a9405496 	ldp	x22, x21, [x4]
 4026a1c:	b5000080 	cbnz	x0, 4026a2c <kvprintf+0x4c>
 4026a20:	d0000000 	adrp	x0, 4028000 <el1_sysregs_context_restore+0x20>
 4026a24:	912b6000 	add	x0, x0, #0xad8
 4026a28:	f90053a0 	str	x0, [x29,#160]
 4026a2c:	b94097a0 	ldr	w0, [x29,#148]
 4026a30:	52800005 	mov	w5, #0x0                   	// #0
 4026a34:	b94097a1 	ldr	w1, [x29,#148]
 4026a38:	51000800 	sub	w0, w0, #0x2
 4026a3c:	71008c1f 	cmp	w0, #0x23
 4026a40:	52800140 	mov	w0, #0xa                   	// #10
 4026a44:	1a803020 	csel	w0, w1, w0, cc
 4026a48:	291203bf 	stp	wzr, w0, [x29,#144]
 4026a4c:	d0000000 	adrp	x0, 4028000 <el1_sysregs_context_restore+0x20>
 4026a50:	91280000 	add	x0, x0, #0xa00
 4026a54:	f90047a0 	str	x0, [x29,#136]
 4026a58:	9102e7a0 	add	x0, x29, #0xb9
 4026a5c:	f90043a0 	str	x0, [x29,#128]
 4026a60:	f94053b7 	ldr	x23, [x29,#160]
 4026a64:	4b1700bc 	sub	w28, w5, w23
 4026a68:	aa1703fa 	mov	x26, x23
 4026a6c:	0b170383 	add	w3, w28, w23
 4026a70:	2a0303fb 	mov	w27, w3
 4026a74:	38401740 	ldrb	w0, [x26],#1
 4026a78:	7100941f 	cmp	w0, #0x25
 4026a7c:	54000140 	b.eq	4026aa4 <kvprintf+0xc4>
 4026a80:	340068e0 	cbz	w0, 402779c <kvprintf+0xdbc>
 4026a84:	b4000093 	cbz	x19, 4026a94 <kvprintf+0xb4>
 4026a88:	f94057a1 	ldr	x1, [x29,#168]
 4026a8c:	d63f0260 	blr	x19
 4026a90:	14000003 	b	4026a9c <kvprintf+0xbc>
 4026a94:	39000300 	strb	w0, [x24]
 4026a98:	91000718 	add	x24, x24, #0x1
 4026a9c:	aa1a03f7 	mov	x23, x26
 4026aa0:	17fffff2 	b	4026a68 <kvprintf+0x88>
 4026aa4:	b94093a1 	ldr	w1, [x29,#144]
 4026aa8:	35fffee1 	cbnz	w1, 4026a84 <kvprintf+0xa4>
 4026aac:	52800414 	mov	w20, #0x20                  	// #32
 4026ab0:	52800008 	mov	w8, #0x0                   	// #0
 4026ab4:	5280000f 	mov	w15, #0x0                   	// #0
 4026ab8:	52800011 	mov	w17, #0x0                   	// #0
 4026abc:	52800010 	mov	w16, #0x0                   	// #0
 4026ac0:	5280000a 	mov	w10, #0x0                   	// #0
 4026ac4:	5280000e 	mov	w14, #0x0                   	// #0
 4026ac8:	52800007 	mov	w7, #0x0                   	// #0
 4026acc:	52800012 	mov	w18, #0x0                   	// #0
 4026ad0:	5280000d 	mov	w13, #0x0                   	// #0
 4026ad4:	5280000c 	mov	w12, #0x0                   	// #0
 4026ad8:	5280000b 	mov	w11, #0x0                   	// #0
 4026adc:	5280015e 	mov	w30, #0xa                   	// #10
 4026ae0:	b9009bbf 	str	wzr, [x29,#152]
 4026ae4:	91000740 	add	x0, x26, #0x1
 4026ae8:	f90053a0 	str	x0, [x29,#160]
 4026aec:	39400340 	ldrb	w0, [x26]
 4026af0:	51008c09 	sub	w9, w0, #0x23
 4026af4:	71015d3f 	cmp	w9, #0x57
 4026af8:	540063c8 	b.hi	4027770 <kvprintf+0xd90>
 4026afc:	f94047a2 	ldr	x2, [x29,#136]
 4026b00:	78695842 	ldrh	w2, [x2,w9,uxtw #1]
 4026b04:	10000064 	adr	x4, 4026b10 <kvprintf+0x130>
 4026b08:	8b22a882 	add	x2, x4, w2, sxth #2
 4026b0c:	d61f0040 	br	x2
 4026b10:	5280002d 	mov	w13, #0x1                   	// #1
 4026b14:	14000003 	b	4026b20 <kvprintf+0x140>
 4026b18:	350007c7 	cbnz	w7, 4026c10 <kvprintf+0x230>
 4026b1c:	52800614 	mov	w20, #0x30                  	// #48
 4026b20:	f94053ba 	ldr	x26, [x29,#160]
 4026b24:	17fffff0 	b	4026ae4 <kvprintf+0x104>
 4026b28:	52800207 	mov	w7, #0x10                  	// #16
 4026b2c:	14000225 	b	40273c0 <kvprintf+0x9e0>
 4026b30:	52800012 	mov	w18, #0x0                   	// #0
 4026b34:	140001dc 	b	40272a4 <kvprintf+0x8c4>
 4026b38:	52800032 	mov	w18, #0x1                   	// #1
 4026b3c:	17fffff9 	b	4026b20 <kvprintf+0x140>
 4026b40:	52800020 	mov	w0, #0x1                   	// #1
 4026b44:	b9009ba0 	str	w0, [x29,#152]
 4026b48:	17fffff6 	b	4026b20 <kvprintf+0x140>
 4026b4c:	b40000d3 	cbz	x19, 4026b64 <kvprintf+0x184>
 4026b50:	f94057a1 	ldr	x1, [x29,#168]
 4026b54:	b9009ba3 	str	w3, [x29,#152]
 4026b58:	d63f0260 	blr	x19
 4026b5c:	b9409ba3 	ldr	w3, [x29,#152]
 4026b60:	14000004 	b	4026b70 <kvprintf+0x190>
 4026b64:	528004a0 	mov	w0, #0x25                  	// #37
 4026b68:	91000718 	add	x24, x24, #0x1
 4026b6c:	381ff300 	sturb	w0, [x24,#-1]
 4026b70:	1100047b 	add	w27, w3, #0x1
 4026b74:	2a1b03e5 	mov	w5, w27
 4026b78:	17ffffba 	b	4026a60 <kvprintf+0x80>
 4026b7c:	350002e7 	cbnz	w7, 4026bd8 <kvprintf+0x1f8>
 4026b80:	37f800b9 	tbnz	w25, #31, 4026b94 <kvprintf+0x1b4>
 4026b84:	91002ec1 	add	x1, x22, #0xb
 4026b88:	aa1603e0 	mov	x0, x22
 4026b8c:	927df036 	and	x22, x1, #0xfffffffffffffff8
 4026b90:	1400000b 	b	4026bbc <kvprintf+0x1dc>
 4026b94:	11002321 	add	w1, w25, #0x8
 4026b98:	6b1f003f 	cmp	w1, wzr
 4026b9c:	540000cd 	b.le	4026bb4 <kvprintf+0x1d4>
 4026ba0:	91002ec9 	add	x9, x22, #0xb
 4026ba4:	aa1603e0 	mov	x0, x22
 4026ba8:	2a0103f9 	mov	w25, w1
 4026bac:	927df136 	and	x22, x9, #0xfffffffffffffff8
 4026bb0:	14000003 	b	4026bbc <kvprintf+0x1dc>
 4026bb4:	8b39c2a0 	add	x0, x21, w25, sxtw
 4026bb8:	2a0103f9 	mov	w25, w1
 4026bbc:	b9400001 	ldr	w1, [x0]
 4026bc0:	36fffb01 	tbz	w1, #31, 4026b20 <kvprintf+0x140>
 4026bc4:	b9409ba0 	ldr	w0, [x29,#152]
 4026bc8:	4b0103e1 	neg	w1, w1
 4026bcc:	52000000 	eor	w0, w0, #0x1
 4026bd0:	b9009ba0 	str	w0, [x29,#152]
 4026bd4:	17ffffd3 	b	4026b20 <kvprintf+0x140>
 4026bd8:	37f80099 	tbnz	w25, #31, 4026be8 <kvprintf+0x208>
 4026bdc:	91002ec7 	add	x7, x22, #0xb
 4026be0:	2a1903e0 	mov	w0, w25
 4026be4:	14000006 	b	4026bfc <kvprintf+0x21c>
 4026be8:	11002320 	add	w0, w25, #0x8
 4026bec:	8b39c2a2 	add	x2, x21, w25, sxtw
 4026bf0:	6b1f001f 	cmp	w0, wzr
 4026bf4:	5400008d 	b.le	4026c04 <kvprintf+0x224>
 4026bf8:	91002ec7 	add	x7, x22, #0xb
 4026bfc:	aa1603e2 	mov	x2, x22
 4026c00:	927df0f6 	and	x22, x7, #0xfffffffffffffff8
 4026c04:	2a0003f9 	mov	w25, w0
 4026c08:	b9400048 	ldr	w8, [x2]
 4026c0c:	14000011 	b	4026c50 <kvprintf+0x270>
 4026c10:	52800009 	mov	w9, #0x0                   	// #0
 4026c14:	1b1e0129 	madd	w9, w9, w30, w0
 4026c18:	f94053a0 	ldr	x0, [x29,#160]
 4026c1c:	5100c129 	sub	w9, w9, #0x30
 4026c20:	39400000 	ldrb	w0, [x0]
 4026c24:	5100c01a 	sub	w26, w0, #0x30
 4026c28:	7100275f 	cmp	w26, #0x9
 4026c2c:	540000a8 	b.hi	4026c40 <kvprintf+0x260>
 4026c30:	f94053a2 	ldr	x2, [x29,#160]
 4026c34:	91000442 	add	x2, x2, #0x1
 4026c38:	f90053a2 	str	x2, [x29,#160]
 4026c3c:	17fffff6 	b	4026c14 <kvprintf+0x234>
 4026c40:	35000067 	cbnz	w7, 4026c4c <kvprintf+0x26c>
 4026c44:	2a0903e1 	mov	w1, w9
 4026c48:	17ffffb6 	b	4026b20 <kvprintf+0x140>
 4026c4c:	2a0903e8 	mov	w8, w9
 4026c50:	52800027 	mov	w7, #0x1                   	// #1
 4026c54:	17ffffb3 	b	4026b20 <kvprintf+0x140>
 4026c58:	37f80099 	tbnz	w25, #31, 4026c68 <kvprintf+0x288>
 4026c5c:	91002ec1 	add	x1, x22, #0xb
 4026c60:	2a1903e0 	mov	w0, w25
 4026c64:	14000006 	b	4026c7c <kvprintf+0x29c>
 4026c68:	11002320 	add	w0, w25, #0x8
 4026c6c:	8b39c2a2 	add	x2, x21, w25, sxtw
 4026c70:	6b1f001f 	cmp	w0, wzr
 4026c74:	5400008d 	b.le	4026c84 <kvprintf+0x2a4>
 4026c78:	91002ec1 	add	x1, x22, #0xb
 4026c7c:	aa1603e2 	mov	x2, x22
 4026c80:	927df036 	and	x22, x1, #0xfffffffffffffff8
 4026c84:	b9400042 	ldr	w2, [x2]
 4026c88:	2a0203f4 	mov	w20, w2
 4026c8c:	37f80080 	tbnz	w0, #31, 4026c9c <kvprintf+0x2bc>
 4026c90:	91003ec1 	add	x1, x22, #0xf
 4026c94:	2a0003f9 	mov	w25, w0
 4026c98:	14000006 	b	4026cb0 <kvprintf+0x2d0>
 4026c9c:	11002019 	add	w25, w0, #0x8
 4026ca0:	8b20c2a0 	add	x0, x21, w0, sxtw
 4026ca4:	6b1f033f 	cmp	w25, wzr
 4026ca8:	5400008d 	b.le	4026cb8 <kvprintf+0x2d8>
 4026cac:	91003ec1 	add	x1, x22, #0xf
 4026cb0:	aa1603e0 	mov	x0, x22
 4026cb4:	927df036 	and	x22, x1, #0xfffffffffffffff8
 4026cb8:	f940001c 	ldr	x28, [x0]
 4026cbc:	9102e7a5 	add	x5, x29, #0xb9
 4026cc0:	3902e3bf 	strb	wzr, [x29,#184]
 4026cc4:	d0000008 	adrp	x8, 4028000 <el1_sysregs_context_restore+0x20>
 4026cc8:	aa1403e0 	mov	x0, x20
 4026ccc:	39400381 	ldrb	w1, [x28]
 4026cd0:	53001c21 	uxtb	w1, w1
 4026cd4:	aa0503fa 	mov	x26, x5
 4026cd8:	912ac107 	add	x7, x8, #0xab0
 4026cdc:	9ac10805 	udiv	x5, x0, x1
 4026ce0:	9b0180a0 	msub	x0, x5, x1, x0
 4026ce4:	386068e0 	ldrb	w0, [x7,x0]
 4026ce8:	39000340 	strb	w0, [x26]
 4026cec:	aa0503e0 	mov	x0, x5
 4026cf0:	91000745 	add	x5, x26, #0x1
 4026cf4:	b5ffff00 	cbnz	x0, 4026cd4 <kvprintf+0x2f4>
 4026cf8:	d2800017 	mov	x23, #0x0                   	// #0
 4026cfc:	38776b40 	ldrb	w0, [x26,x23]
 4026d00:	4b17007b 	sub	w27, w3, w23
 4026d04:	340001a0 	cbz	w0, 4026d38 <kvprintf+0x358>
 4026d08:	b4000113 	cbz	x19, 4026d28 <kvprintf+0x348>
 4026d0c:	f94057a1 	ldr	x1, [x29,#168]
 4026d10:	b9007ba2 	str	w2, [x29,#120]
 4026d14:	b9009ba3 	str	w3, [x29,#152]
 4026d18:	d63f0260 	blr	x19
 4026d1c:	b9407ba2 	ldr	w2, [x29,#120]
 4026d20:	b9409ba3 	ldr	w3, [x29,#152]
 4026d24:	14000003 	b	4026d30 <kvprintf+0x350>
 4026d28:	39000300 	strb	w0, [x24]
 4026d2c:	91000718 	add	x24, x24, #0x1
 4026d30:	d10006f7 	sub	x23, x23, #0x1
 4026d34:	17fffff2 	b	4026cfc <kvprintf+0x31c>
 4026d38:	34fff1e2 	cbz	w2, 4026b74 <kvprintf+0x194>
 4026d3c:	9100079c 	add	x28, x28, #0x1
 4026d40:	52800001 	mov	w1, #0x0                   	// #0
 4026d44:	52800037 	mov	w23, #0x1                   	// #1
 4026d48:	5280059a 	mov	w26, #0x2c                  	// #44
 4026d4c:	39400380 	ldrb	w0, [x28]
 4026d50:	34000480 	cbz	w0, 4026de0 <kvprintf+0x400>
 4026d54:	51000400 	sub	w0, w0, #0x1
 4026d58:	9100079c 	add	x28, x28, #0x1
 4026d5c:	1ac022e0 	lsl	w0, w23, w0
 4026d60:	93407c00 	sxtw	x0, w0
 4026d64:	ea14001f 	tst	x0, x20
 4026d68:	54000320 	b.eq	4026dcc <kvprintf+0x3ec>
 4026d6c:	6b1f003f 	cmp	w1, wzr
 4026d70:	52800780 	mov	w0, #0x3c                  	// #60
 4026d74:	1a9a0000 	csel	w0, w0, w26, eq
 4026d78:	b4000093 	cbz	x19, 4026d88 <kvprintf+0x3a8>
 4026d7c:	f94057a1 	ldr	x1, [x29,#168]
 4026d80:	d63f0260 	blr	x19
 4026d84:	14000003 	b	4026d90 <kvprintf+0x3b0>
 4026d88:	39000300 	strb	w0, [x24]
 4026d8c:	91000718 	add	x24, x24, #0x1
 4026d90:	1100077b 	add	w27, w27, #0x1
 4026d94:	39400380 	ldrb	w0, [x28]
 4026d98:	7100801f 	cmp	w0, #0x20
 4026d9c:	5400014d 	b.le	4026dc4 <kvprintf+0x3e4>
 4026da0:	b4000093 	cbz	x19, 4026db0 <kvprintf+0x3d0>
 4026da4:	f94057a1 	ldr	x1, [x29,#168]
 4026da8:	d63f0260 	blr	x19
 4026dac:	14000003 	b	4026db8 <kvprintf+0x3d8>
 4026db0:	39000300 	strb	w0, [x24]
 4026db4:	91000718 	add	x24, x24, #0x1
 4026db8:	1100077b 	add	w27, w27, #0x1
 4026dbc:	9100079c 	add	x28, x28, #0x1
 4026dc0:	17fffff5 	b	4026d94 <kvprintf+0x3b4>
 4026dc4:	52800021 	mov	w1, #0x1                   	// #1
 4026dc8:	17ffffe1 	b	4026d4c <kvprintf+0x36c>
 4026dcc:	39400380 	ldrb	w0, [x28]
 4026dd0:	7100801f 	cmp	w0, #0x20
 4026dd4:	54fffbc9 	b.ls	4026d4c <kvprintf+0x36c>
 4026dd8:	9100079c 	add	x28, x28, #0x1
 4026ddc:	17fffffc 	b	4026dcc <kvprintf+0x3ec>
 4026de0:	34ffeca1 	cbz	w1, 4026b74 <kvprintf+0x194>
 4026de4:	b40000b3 	cbz	x19, 4026df8 <kvprintf+0x418>
 4026de8:	f94057a1 	ldr	x1, [x29,#168]
 4026dec:	528007c0 	mov	w0, #0x3e                  	// #62
 4026df0:	d63f0260 	blr	x19
 4026df4:	14000004 	b	4026e04 <kvprintf+0x424>
 4026df8:	528007c0 	mov	w0, #0x3e                  	// #62
 4026dfc:	91000718 	add	x24, x24, #0x1
 4026e00:	381ff300 	sturb	w0, [x24,#-1]
 4026e04:	1100077b 	add	w27, w27, #0x1
 4026e08:	17ffff5b 	b	4026b74 <kvprintf+0x194>
 4026e0c:	37f80099 	tbnz	w25, #31, 4026e1c <kvprintf+0x43c>
 4026e10:	91002ec0 	add	x0, x22, #0xb
 4026e14:	2a1903f4 	mov	w20, w25
 4026e18:	14000006 	b	4026e30 <kvprintf+0x450>
 4026e1c:	11002334 	add	w20, w25, #0x8
 4026e20:	8b39c2a2 	add	x2, x21, w25, sxtw
 4026e24:	6b1f029f 	cmp	w20, wzr
 4026e28:	5400008d 	b.le	4026e38 <kvprintf+0x458>
 4026e2c:	91002ec0 	add	x0, x22, #0xb
 4026e30:	aa1603e2 	mov	x2, x22
 4026e34:	927df016 	and	x22, x0, #0xfffffffffffffff8
 4026e38:	b9400040 	ldr	w0, [x2]
 4026e3c:	b40000d3 	cbz	x19, 4026e54 <kvprintf+0x474>
 4026e40:	f94057a1 	ldr	x1, [x29,#168]
 4026e44:	b9009ba3 	str	w3, [x29,#152]
 4026e48:	d63f0260 	blr	x19
 4026e4c:	b9409ba3 	ldr	w3, [x29,#152]
 4026e50:	14000003 	b	4026e5c <kvprintf+0x47c>
 4026e54:	39000300 	strb	w0, [x24]
 4026e58:	91000718 	add	x24, x24, #0x1
 4026e5c:	1100047b 	add	w27, w3, #0x1
 4026e60:	2a1403f9 	mov	w25, w20
 4026e64:	17ffff44 	b	4026b74 <kvprintf+0x194>
 4026e68:	37f80099 	tbnz	w25, #31, 4026e78 <kvprintf+0x498>
 4026e6c:	91003ec6 	add	x6, x22, #0xf
 4026e70:	2a1903e0 	mov	w0, w25
 4026e74:	14000006 	b	4026e8c <kvprintf+0x4ac>
 4026e78:	11002320 	add	w0, w25, #0x8
 4026e7c:	8b39c2a2 	add	x2, x21, w25, sxtw
 4026e80:	6b1f001f 	cmp	w0, wzr
 4026e84:	5400008d 	b.le	4026e94 <kvprintf+0x4b4>
 4026e88:	91003ec6 	add	x6, x22, #0xf
 4026e8c:	aa1603e2 	mov	x2, x22
 4026e90:	927df0d6 	and	x22, x6, #0xfffffffffffffff8
 4026e94:	f9400057 	ldr	x23, [x2]
 4026e98:	37f80080 	tbnz	w0, #31, 4026ea8 <kvprintf+0x4c8>
 4026e9c:	91003ec6 	add	x6, x22, #0xf
 4026ea0:	2a0003f9 	mov	w25, w0
 4026ea4:	14000006 	b	4026ebc <kvprintf+0x4dc>
 4026ea8:	11002019 	add	w25, w0, #0x8
 4026eac:	8b20c2a0 	add	x0, x21, w0, sxtw
 4026eb0:	6b1f033f 	cmp	w25, wzr
 4026eb4:	5400008d 	b.le	4026ec4 <kvprintf+0x4e4>
 4026eb8:	91003ec6 	add	x6, x22, #0xf
 4026ebc:	aa1603e0 	mov	x0, x22
 4026ec0:	927df0d6 	and	x22, x6, #0xfffffffffffffff8
 4026ec4:	6b1f003f 	cmp	w1, wzr
 4026ec8:	f940001c 	ldr	x28, [x0]
 4026ecc:	52800200 	mov	w0, #0x10                  	// #16
 4026ed0:	d000001a 	adrp	x26, 4028000 <el1_sysregs_context_restore+0x20>
 4026ed4:	1a801021 	csel	w1, w1, w0, ne
 4026ed8:	51000434 	sub	w20, w1, #0x1
 4026edc:	34ffe4c1 	cbz	w1, 4026b74 <kvprintf+0x194>
 4026ee0:	394002e0 	ldrb	w0, [x23]
 4026ee4:	912ac341 	add	x1, x26, #0xab0
 4026ee8:	d3441c00 	ubfx	x0, x0, #4, #4
 4026eec:	38606820 	ldrb	w0, [x1,x0]
 4026ef0:	b4000093 	cbz	x19, 4026f00 <kvprintf+0x520>
 4026ef4:	f94057a1 	ldr	x1, [x29,#168]
 4026ef8:	d63f0260 	blr	x19
 4026efc:	14000003 	b	4026f08 <kvprintf+0x528>
 4026f00:	39000300 	strb	w0, [x24]
 4026f04:	91000718 	add	x24, x24, #0x1
 4026f08:	d0000000 	adrp	x0, 4028000 <el1_sysregs_context_restore+0x20>
 4026f0c:	912ac001 	add	x1, x0, #0xab0
 4026f10:	394002e0 	ldrb	w0, [x23]
 4026f14:	92400c00 	and	x0, x0, #0xf
 4026f18:	38606820 	ldrb	w0, [x1,x0]
 4026f1c:	b4000093 	cbz	x19, 4026f2c <kvprintf+0x54c>
 4026f20:	f94057a1 	ldr	x1, [x29,#168]
 4026f24:	d63f0260 	blr	x19
 4026f28:	14000003 	b	4026f34 <kvprintf+0x554>
 4026f2c:	39000300 	strb	w0, [x24]
 4026f30:	91000718 	add	x24, x24, #0x1
 4026f34:	11000b7b 	add	w27, w27, #0x2
 4026f38:	910006f7 	add	x23, x23, #0x1
 4026f3c:	aa1c03e6 	mov	x6, x28
 4026f40:	340001d4 	cbz	w20, 4026f78 <kvprintf+0x598>
 4026f44:	394000c0 	ldrb	w0, [x6]
 4026f48:	34000180 	cbz	w0, 4026f78 <kvprintf+0x598>
 4026f4c:	b40000d3 	cbz	x19, 4026f64 <kvprintf+0x584>
 4026f50:	f94057a1 	ldr	x1, [x29,#168]
 4026f54:	f9004fa6 	str	x6, [x29,#152]
 4026f58:	d63f0260 	blr	x19
 4026f5c:	f9404fa6 	ldr	x6, [x29,#152]
 4026f60:	14000003 	b	4026f6c <kvprintf+0x58c>
 4026f64:	39000300 	strb	w0, [x24]
 4026f68:	91000718 	add	x24, x24, #0x1
 4026f6c:	1100077b 	add	w27, w27, #0x1
 4026f70:	910004c6 	add	x6, x6, #0x1
 4026f74:	17fffff4 	b	4026f44 <kvprintf+0x564>
 4026f78:	2a1403e1 	mov	w1, w20
 4026f7c:	17ffffd7 	b	4026ed8 <kvprintf+0x4f8>
 4026f80:	3500006a 	cbnz	w10, 4026f8c <kvprintf+0x5ac>
 4026f84:	5280002a 	mov	w10, #0x1                   	// #1
 4026f88:	17fffee6 	b	4026b20 <kvprintf+0x140>
 4026f8c:	5280000a 	mov	w10, #0x0                   	// #0
 4026f90:	5280002e 	mov	w14, #0x1                   	// #1
 4026f94:	17fffee3 	b	4026b20 <kvprintf+0x140>
 4026f98:	52800030 	mov	w16, #0x1                   	// #1
 4026f9c:	17fffee1 	b	4026b20 <kvprintf+0x140>
 4026fa0:	3500006b 	cbnz	w11, 4026fac <kvprintf+0x5cc>
 4026fa4:	5280002b 	mov	w11, #0x1                   	// #1
 4026fa8:	17fffede 	b	4026b20 <kvprintf+0x140>
 4026fac:	5280002c 	mov	w12, #0x1                   	// #1
 4026fb0:	5280000b 	mov	w11, #0x0                   	// #0
 4026fb4:	17fffedb 	b	4026b20 <kvprintf+0x140>
 4026fb8:	35000090 	cbnz	w16, 4026fc8 <kvprintf+0x5e8>
 4026fbc:	3500006c 	cbnz	w12, 4026fc8 <kvprintf+0x5e8>
 4026fc0:	3500004b 	cbnz	w11, 4026fc8 <kvprintf+0x5e8>
 4026fc4:	3400020f 	cbz	w15, 4027004 <kvprintf+0x624>
 4026fc8:	37f80099 	tbnz	w25, #31, 4026fd8 <kvprintf+0x5f8>
 4026fcc:	91003ec1 	add	x1, x22, #0xf
 4026fd0:	2a1903e0 	mov	w0, w25
 4026fd4:	14000006 	b	4026fec <kvprintf+0x60c>
 4026fd8:	11002320 	add	w0, w25, #0x8
 4026fdc:	8b39c2a2 	add	x2, x21, w25, sxtw
 4026fe0:	6b1f001f 	cmp	w0, wzr
 4026fe4:	5400008d 	b.le	4026ff4 <kvprintf+0x614>
 4026fe8:	91003ec1 	add	x1, x22, #0xf
 4026fec:	aa1603e2 	mov	x2, x22
 4026ff0:	927df036 	and	x22, x1, #0xfffffffffffffff8
 4026ff4:	f9400041 	ldr	x1, [x2]
 4026ff8:	93407c66 	sxtw	x6, w3
 4026ffc:	f9000026 	str	x6, [x1]
 4027000:	1400002c 	b	40270b0 <kvprintf+0x6d0>
 4027004:	340001ea 	cbz	w10, 4027040 <kvprintf+0x660>
 4027008:	37f80099 	tbnz	w25, #31, 4027018 <kvprintf+0x638>
 402700c:	91003ec1 	add	x1, x22, #0xf
 4027010:	2a1903e0 	mov	w0, w25
 4027014:	14000006 	b	402702c <kvprintf+0x64c>
 4027018:	11002320 	add	w0, w25, #0x8
 402701c:	8b39c2a2 	add	x2, x21, w25, sxtw
 4027020:	6b1f001f 	cmp	w0, wzr
 4027024:	5400008d 	b.le	4027034 <kvprintf+0x654>
 4027028:	91003ec1 	add	x1, x22, #0xf
 402702c:	aa1603e2 	mov	x2, x22
 4027030:	927df036 	and	x22, x1, #0xfffffffffffffff8
 4027034:	f9400041 	ldr	x1, [x2]
 4027038:	79000023 	strh	w3, [x1]
 402703c:	1400001d 	b	40270b0 <kvprintf+0x6d0>
 4027040:	340001ee 	cbz	w14, 402707c <kvprintf+0x69c>
 4027044:	37f80099 	tbnz	w25, #31, 4027054 <kvprintf+0x674>
 4027048:	91003ec1 	add	x1, x22, #0xf
 402704c:	2a1903e0 	mov	w0, w25
 4027050:	14000006 	b	4027068 <kvprintf+0x688>
 4027054:	11002320 	add	w0, w25, #0x8
 4027058:	8b39c2a2 	add	x2, x21, w25, sxtw
 402705c:	6b1f001f 	cmp	w0, wzr
 4027060:	5400008d 	b.le	4027070 <kvprintf+0x690>
 4027064:	91003ec1 	add	x1, x22, #0xf
 4027068:	aa1603e2 	mov	x2, x22
 402706c:	927df036 	and	x22, x1, #0xfffffffffffffff8
 4027070:	f9400041 	ldr	x1, [x2]
 4027074:	39000023 	strb	w3, [x1]
 4027078:	1400000e 	b	40270b0 <kvprintf+0x6d0>
 402707c:	37f80099 	tbnz	w25, #31, 402708c <kvprintf+0x6ac>
 4027080:	91003ec1 	add	x1, x22, #0xf
 4027084:	2a1903e0 	mov	w0, w25
 4027088:	14000006 	b	40270a0 <kvprintf+0x6c0>
 402708c:	11002320 	add	w0, w25, #0x8
 4027090:	8b39c2a2 	add	x2, x21, w25, sxtw
 4027094:	6b1f001f 	cmp	w0, wzr
 4027098:	5400008d 	b.le	40270a8 <kvprintf+0x6c8>
 402709c:	91003ec1 	add	x1, x22, #0xf
 40270a0:	aa1603e2 	mov	x2, x22
 40270a4:	927df036 	and	x22, x1, #0xfffffffffffffff8
 40270a8:	f9400041 	ldr	x1, [x2]
 40270ac:	b9000023 	str	w3, [x1]
 40270b0:	2a0003f9 	mov	w25, w0
 40270b4:	17fffeb0 	b	4026b74 <kvprintf+0x194>
 40270b8:	6b1f003f 	cmp	w1, wzr
 40270bc:	1a9f17ed 	cset	w13, eq
 40270c0:	37f80099 	tbnz	w25, #31, 40270d0 <kvprintf+0x6f0>
 40270c4:	91003ec0 	add	x0, x22, #0xf
 40270c8:	2a1903e7 	mov	w7, w25
 40270cc:	14000006 	b	40270e4 <kvprintf+0x704>
 40270d0:	11002327 	add	w7, w25, #0x8
 40270d4:	8b39c2a2 	add	x2, x21, w25, sxtw
 40270d8:	6b1f00ff 	cmp	w7, wzr
 40270dc:	5400008d 	b.le	40270ec <kvprintf+0x70c>
 40270e0:	91003ec0 	add	x0, x22, #0xf
 40270e4:	aa1603e2 	mov	x2, x22
 40270e8:	927df016 	and	x22, x0, #0xfffffffffffffff8
 40270ec:	2a0703f9 	mov	w25, w7
 40270f0:	52800012 	mov	w18, #0x0                   	// #0
 40270f4:	52800009 	mov	w9, #0x0                   	// #0
 40270f8:	52800207 	mov	w7, #0x10                  	// #16
 40270fc:	f9400040 	ldr	x0, [x2]
 4027100:	140000ed 	b	40274b4 <kvprintf+0xad4>
 4027104:	5280002c 	mov	w12, #0x1                   	// #1
 4027108:	17fffe86 	b	4026b20 <kvprintf+0x140>
 402710c:	b94097a7 	ldr	w7, [x29,#148]
 4027110:	35001592 	cbnz	w18, 40273c0 <kvprintf+0x9e0>
 4027114:	1400006d 	b	40272c8 <kvprintf+0x8e8>
 4027118:	37f800b9 	tbnz	w25, #31, 402712c <kvprintf+0x74c>
 402711c:	91003ec9 	add	x9, x22, #0xf
 4027120:	aa1603e0 	mov	x0, x22
 4027124:	927df136 	and	x22, x9, #0xfffffffffffffff8
 4027128:	1400000b 	b	4027154 <kvprintf+0x774>
 402712c:	11002329 	add	w9, w25, #0x8
 4027130:	6b1f013f 	cmp	w9, wzr
 4027134:	540000cd 	b.le	402714c <kvprintf+0x76c>
 4027138:	91003eca 	add	x10, x22, #0xf
 402713c:	aa1603e0 	mov	x0, x22
 4027140:	2a0903f9 	mov	w25, w9
 4027144:	927df156 	and	x22, x10, #0xfffffffffffffff8
 4027148:	14000003 	b	4027154 <kvprintf+0x774>
 402714c:	8b39c2a0 	add	x0, x21, w25, sxtw
 4027150:	2a0903f9 	mov	w25, w9
 4027154:	f940001a 	ldr	x26, [x0]
 4027158:	b500007a 	cbnz	x26, 4027164 <kvprintf+0x784>
 402715c:	b000001a 	adrp	x26, 4028000 <el1_sysregs_context_restore+0x20>
 4027160:	912b935a 	add	x26, x26, #0xae4
 4027164:	35000127 	cbnz	w7, 4027188 <kvprintf+0x7a8>
 4027168:	aa1a03e0 	mov	x0, x26
 402716c:	b90073a3 	str	w3, [x29,#112]
 4027170:	b9007ba1 	str	w1, [x29,#120]
 4027174:	97fffe09 	bl	4026998 <strlen>
 4027178:	2a0003fc 	mov	w28, w0
 402717c:	b94073a3 	ldr	w3, [x29,#112]
 4027180:	b9407ba1 	ldr	w1, [x29,#120]
 4027184:	14000009 	b	40271a8 <kvprintf+0x7c8>
 4027188:	d2800000 	mov	x0, #0x0                   	// #0
 402718c:	6b00011f 	cmp	w8, w0
 4027190:	2a0003fc 	mov	w28, w0
 4027194:	540000ad 	b.le	40271a8 <kvprintf+0x7c8>
 4027198:	91000400 	add	x0, x0, #0x1
 402719c:	8b000347 	add	x7, x26, x0
 40271a0:	385ff0e7 	ldurb	w7, [x7,#-1]
 40271a4:	35ffff47 	cbnz	w7, 402718c <kvprintf+0x7ac>
 40271a8:	4b1c0037 	sub	w23, w1, w28
 40271ac:	b9409ba0 	ldr	w0, [x29,#152]
 40271b0:	6b1f02ff 	cmp	w23, wzr
 40271b4:	2a1703e7 	mov	w7, w23
 40271b8:	1a9fd7e1 	cset	w1, gt
 40271bc:	52000000 	eor	w0, w0, #0x1
 40271c0:	6a01001f 	tst	w0, w1
 40271c4:	54000240 	b.eq	402720c <kvprintf+0x82c>
 40271c8:	510004e7 	sub	w7, w7, #0x1
 40271cc:	310004ff 	cmn	w7, #0x1
 40271d0:	540001a0 	b.eq	4027204 <kvprintf+0x824>
 40271d4:	b4000133 	cbz	x19, 40271f8 <kvprintf+0x818>
 40271d8:	f94057a1 	ldr	x1, [x29,#168]
 40271dc:	2a1403e0 	mov	w0, w20
 40271e0:	b90073a3 	str	w3, [x29,#112]
 40271e4:	b9007ba7 	str	w7, [x29,#120]
 40271e8:	d63f0260 	blr	x19
 40271ec:	b94073a3 	ldr	w3, [x29,#112]
 40271f0:	b9407ba7 	ldr	w7, [x29,#120]
 40271f4:	17fffff5 	b	40271c8 <kvprintf+0x7e8>
 40271f8:	39000314 	strb	w20, [x24]
 40271fc:	91000718 	add	x24, x24, #0x1
 4027200:	17fffff2 	b	40271c8 <kvprintf+0x7e8>
 4027204:	0b17007b 	add	w27, w3, w23
 4027208:	2a0703f7 	mov	w23, w7
 402720c:	2a1c03e7 	mov	w7, w28
 4027210:	d2800006 	mov	x6, #0x0                   	// #0
 4027214:	eb0700df 	cmp	x6, x7
 4027218:	54000180 	b.eq	4027248 <kvprintf+0x868>
 402721c:	38666b40 	ldrb	w0, [x26,x6]
 4027220:	b40000d3 	cbz	x19, 4027238 <kvprintf+0x858>
 4027224:	f94057a1 	ldr	x1, [x29,#168]
 4027228:	a9071ba7 	stp	x7, x6, [x29,#112]
 402722c:	d63f0260 	blr	x19
 4027230:	a9471ba7 	ldp	x7, x6, [x29,#112]
 4027234:	14000003 	b	4027240 <kvprintf+0x860>
 4027238:	39000300 	strb	w0, [x24]
 402723c:	91000718 	add	x24, x24, #0x1
 4027240:	910004c6 	add	x6, x6, #0x1
 4027244:	17fffff4 	b	4027214 <kvprintf+0x834>
 4027248:	6b1f02ff 	cmp	w23, wzr
 402724c:	b9409ba1 	ldr	w1, [x29,#152]
 4027250:	1a9fd7e0 	cset	w0, gt
 4027254:	0b1c037b 	add	w27, w27, w28
 4027258:	6a00003f 	tst	w1, w0
 402725c:	2a1703fa 	mov	w26, w23
 4027260:	54ffc8a0 	b.eq	4026b74 <kvprintf+0x194>
 4027264:	5100075a 	sub	w26, w26, #0x1
 4027268:	3100075f 	cmn	w26, #0x1
 402726c:	54000120 	b.eq	4027290 <kvprintf+0x8b0>
 4027270:	b40000b3 	cbz	x19, 4027284 <kvprintf+0x8a4>
 4027274:	f94057a1 	ldr	x1, [x29,#168]
 4027278:	2a1403e0 	mov	w0, w20
 402727c:	d63f0260 	blr	x19
 4027280:	17fffff9 	b	4027264 <kvprintf+0x884>
 4027284:	39000314 	strb	w20, [x24]
 4027288:	91000718 	add	x24, x24, #0x1
 402728c:	17fffff6 	b	4027264 <kvprintf+0x884>
 4027290:	0b17037b 	add	w27, w27, w23
 4027294:	17fffe38 	b	4026b74 <kvprintf+0x194>
 4027298:	52800031 	mov	w17, #0x1                   	// #1
 402729c:	17fffe21 	b	4026b20 <kvprintf+0x140>
 40272a0:	52800032 	mov	w18, #0x1                   	// #1
 40272a4:	52800207 	mov	w7, #0x10                  	// #16
 40272a8:	14000008 	b	40272c8 <kvprintf+0x8e8>
 40272ac:	5280002f 	mov	w15, #0x1                   	// #1
 40272b0:	17fffe1c 	b	4026b20 <kvprintf+0x140>
 40272b4:	52800012 	mov	w18, #0x0                   	// #0
 40272b8:	52800107 	mov	w7, #0x8                   	// #8
 40272bc:	14000003 	b	40272c8 <kvprintf+0x8e8>
 40272c0:	52800012 	mov	w18, #0x0                   	// #0
 40272c4:	52800147 	mov	w7, #0xa                   	// #10
 40272c8:	350000b0 	cbnz	w16, 40272dc <kvprintf+0x8fc>
 40272cc:	3500008c 	cbnz	w12, 40272dc <kvprintf+0x8fc>
 40272d0:	35000071 	cbnz	w17, 40272dc <kvprintf+0x8fc>
 40272d4:	3500004b 	cbnz	w11, 40272dc <kvprintf+0x8fc>
 40272d8:	340001cf 	cbz	w15, 4027310 <kvprintf+0x930>
 40272dc:	37f80099 	tbnz	w25, #31, 40272ec <kvprintf+0x90c>
 40272e0:	91003ec0 	add	x0, x22, #0xf
 40272e4:	2a1903e9 	mov	w9, w25
 40272e8:	14000006 	b	4027300 <kvprintf+0x920>
 40272ec:	11002329 	add	w9, w25, #0x8
 40272f0:	8b39c2a2 	add	x2, x21, w25, sxtw
 40272f4:	6b1f013f 	cmp	w9, wzr
 40272f8:	5400008d 	b.le	4027308 <kvprintf+0x928>
 40272fc:	91003ec0 	add	x0, x22, #0xf
 4027300:	aa1603e2 	mov	x2, x22
 4027304:	927df016 	and	x22, x0, #0xfffffffffffffff8
 4027308:	f9400040 	ldr	x0, [x2]
 402730c:	14000029 	b	40273b0 <kvprintf+0x9d0>
 4027310:	340001ca 	cbz	w10, 4027348 <kvprintf+0x968>
 4027314:	37f80099 	tbnz	w25, #31, 4027324 <kvprintf+0x944>
 4027318:	91002ec0 	add	x0, x22, #0xb
 402731c:	2a1903e9 	mov	w9, w25
 4027320:	14000006 	b	4027338 <kvprintf+0x958>
 4027324:	11002329 	add	w9, w25, #0x8
 4027328:	8b39c2a2 	add	x2, x21, w25, sxtw
 402732c:	6b1f013f 	cmp	w9, wzr
 4027330:	5400008d 	b.le	4027340 <kvprintf+0x960>
 4027334:	91002ec0 	add	x0, x22, #0xb
 4027338:	aa1603e2 	mov	x2, x22
 402733c:	927df016 	and	x22, x0, #0xfffffffffffffff8
 4027340:	79400040 	ldrh	w0, [x2]
 4027344:	1400001b 	b	40273b0 <kvprintf+0x9d0>
 4027348:	340001ce 	cbz	w14, 4027380 <kvprintf+0x9a0>
 402734c:	37f80099 	tbnz	w25, #31, 402735c <kvprintf+0x97c>
 4027350:	91002ec0 	add	x0, x22, #0xb
 4027354:	2a1903e9 	mov	w9, w25
 4027358:	14000006 	b	4027370 <kvprintf+0x990>
 402735c:	11002329 	add	w9, w25, #0x8
 4027360:	8b39c2a2 	add	x2, x21, w25, sxtw
 4027364:	6b1f013f 	cmp	w9, wzr
 4027368:	5400008d 	b.le	4027378 <kvprintf+0x998>
 402736c:	91002ec0 	add	x0, x22, #0xb
 4027370:	aa1603e2 	mov	x2, x22
 4027374:	927df016 	and	x22, x0, #0xfffffffffffffff8
 4027378:	39400040 	ldrb	w0, [x2]
 402737c:	1400000d 	b	40273b0 <kvprintf+0x9d0>
 4027380:	37f80099 	tbnz	w25, #31, 4027390 <kvprintf+0x9b0>
 4027384:	91002ec0 	add	x0, x22, #0xb
 4027388:	2a1903e9 	mov	w9, w25
 402738c:	14000006 	b	40273a4 <kvprintf+0x9c4>
 4027390:	11002329 	add	w9, w25, #0x8
 4027394:	8b39c2a2 	add	x2, x21, w25, sxtw
 4027398:	6b1f013f 	cmp	w9, wzr
 402739c:	5400008d 	b.le	40273ac <kvprintf+0x9cc>
 40273a0:	91002ec0 	add	x0, x22, #0xb
 40273a4:	aa1603e2 	mov	x2, x22
 40273a8:	927df016 	and	x22, x0, #0xfffffffffffffff8
 40273ac:	b9400040 	ldr	w0, [x2]
 40273b0:	2a0903f9 	mov	w25, w9
 40273b4:	52800009 	mov	w9, #0x0                   	// #0
 40273b8:	1400003f 	b	40274b4 <kvprintf+0xad4>
 40273bc:	52800147 	mov	w7, #0xa                   	// #10
 40273c0:	350000b0 	cbnz	w16, 40273d4 <kvprintf+0x9f4>
 40273c4:	3500008c 	cbnz	w12, 40273d4 <kvprintf+0x9f4>
 40273c8:	35000071 	cbnz	w17, 40273d4 <kvprintf+0x9f4>
 40273cc:	3500004b 	cbnz	w11, 40273d4 <kvprintf+0x9f4>
 40273d0:	340001cf 	cbz	w15, 4027408 <kvprintf+0xa28>
 40273d4:	37f80099 	tbnz	w25, #31, 40273e4 <kvprintf+0xa04>
 40273d8:	91003ec0 	add	x0, x22, #0xf
 40273dc:	2a1903e9 	mov	w9, w25
 40273e0:	14000006 	b	40273f8 <kvprintf+0xa18>
 40273e4:	11002329 	add	w9, w25, #0x8
 40273e8:	8b39c2a2 	add	x2, x21, w25, sxtw
 40273ec:	6b1f013f 	cmp	w9, wzr
 40273f0:	5400008d 	b.le	4027400 <kvprintf+0xa20>
 40273f4:	91003ec0 	add	x0, x22, #0xf
 40273f8:	aa1603e2 	mov	x2, x22
 40273fc:	927df016 	and	x22, x0, #0xfffffffffffffff8
 4027400:	f9400040 	ldr	x0, [x2]
 4027404:	14000029 	b	40274a8 <kvprintf+0xac8>
 4027408:	340001ca 	cbz	w10, 4027440 <kvprintf+0xa60>
 402740c:	37f80099 	tbnz	w25, #31, 402741c <kvprintf+0xa3c>
 4027410:	91002ec0 	add	x0, x22, #0xb
 4027414:	2a1903e9 	mov	w9, w25
 4027418:	14000006 	b	4027430 <kvprintf+0xa50>
 402741c:	11002329 	add	w9, w25, #0x8
 4027420:	8b39c2a2 	add	x2, x21, w25, sxtw
 4027424:	6b1f013f 	cmp	w9, wzr
 4027428:	5400008d 	b.le	4027438 <kvprintf+0xa58>
 402742c:	91002ec0 	add	x0, x22, #0xb
 4027430:	aa1603e2 	mov	x2, x22
 4027434:	927df016 	and	x22, x0, #0xfffffffffffffff8
 4027438:	79800040 	ldrsh	x0, [x2]
 402743c:	1400001b 	b	40274a8 <kvprintf+0xac8>
 4027440:	340001ce 	cbz	w14, 4027478 <kvprintf+0xa98>
 4027444:	37f80099 	tbnz	w25, #31, 4027454 <kvprintf+0xa74>
 4027448:	91002ec0 	add	x0, x22, #0xb
 402744c:	2a1903e9 	mov	w9, w25
 4027450:	14000006 	b	4027468 <kvprintf+0xa88>
 4027454:	11002329 	add	w9, w25, #0x8
 4027458:	8b39c2a2 	add	x2, x21, w25, sxtw
 402745c:	6b1f013f 	cmp	w9, wzr
 4027460:	5400008d 	b.le	4027470 <kvprintf+0xa90>
 4027464:	91002ec0 	add	x0, x22, #0xb
 4027468:	aa1603e2 	mov	x2, x22
 402746c:	927df016 	and	x22, x0, #0xfffffffffffffff8
 4027470:	39400040 	ldrb	w0, [x2]
 4027474:	1400000d 	b	40274a8 <kvprintf+0xac8>
 4027478:	37f80099 	tbnz	w25, #31, 4027488 <kvprintf+0xaa8>
 402747c:	91002ec0 	add	x0, x22, #0xb
 4027480:	2a1903e9 	mov	w9, w25
 4027484:	14000006 	b	402749c <kvprintf+0xabc>
 4027488:	11002329 	add	w9, w25, #0x8
 402748c:	8b39c2a2 	add	x2, x21, w25, sxtw
 4027490:	6b1f013f 	cmp	w9, wzr
 4027494:	5400008d 	b.le	40274a4 <kvprintf+0xac4>
 4027498:	91002ec0 	add	x0, x22, #0xb
 402749c:	aa1603e2 	mov	x2, x22
 40274a0:	927df016 	and	x22, x0, #0xfffffffffffffff8
 40274a4:	b9800040 	ldrsw	x0, [x2]
 40274a8:	2a0903f9 	mov	w25, w9
 40274ac:	52800012 	mov	w18, #0x0                   	// #0
 40274b0:	52800029 	mov	w9, #0x1                   	// #1
 40274b4:	d37ffc0b 	lsr	x11, x0, #63
 40274b8:	5280000a 	mov	w10, #0x0                   	// #0
 40274bc:	6a0b013f 	tst	w9, w11
 40274c0:	54000060 	b.eq	40274cc <kvprintf+0xaec>
 40274c4:	cb0003e0 	neg	x0, x0
 40274c8:	5280002a 	mov	w10, #0x1                   	// #1
 40274cc:	f94043bc 	ldr	x28, [x29,#128]
 40274d0:	aa0003e9 	mov	x9, x0
 40274d4:	3902e3bf 	strb	wzr, [x29,#184]
 40274d8:	93407cee 	sxtw	x14, w7
 40274dc:	b000000f 	adrp	x15, 4028000 <el1_sysregs_context_restore+0x20>
 40274e0:	52800410 	mov	w16, #0x20                  	// #32
 40274e4:	9ace092c 	udiv	x12, x9, x14
 40274e8:	912ac1eb 	add	x11, x15, #0xab0
 40274ec:	9b0ea589 	msub	x9, x12, x14, x9
 40274f0:	38696969 	ldrb	w9, [x11,x9]
 40274f4:	340000f2 	cbz	w18, 4027510 <kvprintf+0xb30>
 40274f8:	5101852b 	sub	w11, w9, #0x61
 40274fc:	53001d6b 	uxtb	w11, w11
 4027500:	7100657f 	cmp	w11, #0x19
 4027504:	1a9083eb 	csel	w11, wzr, w16, hi
 4027508:	4b0b0129 	sub	w9, w9, w11
 402750c:	53001d29 	uxtb	w9, w9
 4027510:	aa1c03eb 	mov	x11, x28
 4027514:	38001569 	strb	w9, [x11],#1
 4027518:	aa0c03e9 	mov	x9, x12
 402751c:	b400006c 	cbz	x12, 4027528 <kvprintf+0xb48>
 4027520:	aa0b03fc 	mov	x28, x11
 4027524:	17fffff0 	b	40274e4 <kvprintf+0xb04>
 4027528:	eb1f001f 	cmp	x0, xzr
 402752c:	9102e3a2 	add	x2, x29, #0xb8
 4027530:	1a9f07fa 	cset	w26, ne
 4027534:	cb020397 	sub	x23, x28, x2
 4027538:	6a0d035a 	ands	w26, w26, w13
 402753c:	52800000 	mov	w0, #0x0                   	// #0
 4027540:	540000e0 	b.eq	402755c <kvprintf+0xb7c>
 4027544:	710020ff 	cmp	w7, #0x8
 4027548:	52800020 	mov	w0, #0x1                   	// #1
 402754c:	54000080 	b.eq	402755c <kvprintf+0xb7c>
 4027550:	710040ff 	cmp	w7, #0x10
 4027554:	52800040 	mov	w0, #0x2                   	// #2
 4027558:	1a9f0000 	csel	w0, w0, wzr, eq
 402755c:	b9409ba2 	ldr	w2, [x29,#152]
 4027560:	7100c29f 	cmp	w20, #0x30
 4027564:	0b0a0000 	add	w0, w0, w10
 4027568:	1a9f17ec 	cset	w12, eq
 402756c:	52000049 	eor	w9, w2, #0x1
 4027570:	4b00002b 	sub	w11, w1, w0
 4027574:	6a0c013f 	tst	w9, w12
 4027578:	1a881168 	csel	w8, w11, w8, ne
 402757c:	6b17011f 	cmp	w8, w23
 4027580:	1a97a114 	csel	w20, w8, w23, ge
 4027584:	4b170117 	sub	w23, w8, w23
 4027588:	0b000294 	add	w20, w20, w0
 402758c:	4b140034 	sub	w20, w1, w20
 4027590:	35000322 	cbnz	w2, 40275f4 <kvprintf+0xc14>
 4027594:	2a1403fb 	mov	w27, w20
 4027598:	52800408 	mov	w8, #0x20                  	// #32
 402759c:	6b1f037f 	cmp	w27, wzr
 40275a0:	5400020d 	b.le	40275e0 <kvprintf+0xc00>
 40275a4:	b4000173 	cbz	x19, 40275d0 <kvprintf+0xbf0>
 40275a8:	f94057a1 	ldr	x1, [x29,#168]
 40275ac:	52800400 	mov	w0, #0x20                  	// #32
 40275b0:	290d0fa8 	stp	w8, w3, [x29,#104]
 40275b4:	b90073aa 	str	w10, [x29,#112]
 40275b8:	b9007ba7 	str	w7, [x29,#120]
 40275bc:	d63f0260 	blr	x19
 40275c0:	294d0fa8 	ldp	w8, w3, [x29,#104]
 40275c4:	b94073aa 	ldr	w10, [x29,#112]
 40275c8:	b9407ba7 	ldr	w7, [x29,#120]
 40275cc:	14000003 	b	40275d8 <kvprintf+0xbf8>
 40275d0:	39000308 	strb	w8, [x24]
 40275d4:	91000718 	add	x24, x24, #0x1
 40275d8:	5100077b 	sub	w27, w27, #0x1
 40275dc:	17fffff0 	b	402759c <kvprintf+0xbbc>
 40275e0:	6b1f029f 	cmp	w20, wzr
 40275e4:	1a9fa280 	csel	w0, w20, wzr, ge
 40275e8:	51000694 	sub	w20, w20, #0x1
 40275ec:	0b00007b 	add	w27, w3, w0
 40275f0:	4b000294 	sub	w20, w20, w0
 40275f4:	3400018a 	cbz	w10, 4027624 <kvprintf+0xc44>
 40275f8:	b40000f3 	cbz	x19, 4027614 <kvprintf+0xc34>
 40275fc:	f94057a1 	ldr	x1, [x29,#168]
 4027600:	528005a0 	mov	w0, #0x2d                  	// #45
 4027604:	b9007ba7 	str	w7, [x29,#120]
 4027608:	d63f0260 	blr	x19
 402760c:	b9407ba7 	ldr	w7, [x29,#120]
 4027610:	14000004 	b	4027620 <kvprintf+0xc40>
 4027614:	528005a0 	mov	w0, #0x2d                  	// #45
 4027618:	91000718 	add	x24, x24, #0x1
 402761c:	381ff300 	sturb	w0, [x24,#-1]
 4027620:	1100077b 	add	w27, w27, #0x1
 4027624:	340003da 	cbz	w26, 402769c <kvprintf+0xcbc>
 4027628:	710020ff 	cmp	w7, #0x8
 402762c:	54000161 	b.ne	4027658 <kvprintf+0xc78>
 4027630:	b40000b3 	cbz	x19, 4027644 <kvprintf+0xc64>
 4027634:	f94057a1 	ldr	x1, [x29,#168]
 4027638:	52800600 	mov	w0, #0x30                  	// #48
 402763c:	d63f0260 	blr	x19
 4027640:	14000004 	b	4027650 <kvprintf+0xc70>
 4027644:	52800600 	mov	w0, #0x30                  	// #48
 4027648:	91000718 	add	x24, x24, #0x1
 402764c:	381ff300 	sturb	w0, [x24,#-1]
 4027650:	1100077b 	add	w27, w27, #0x1
 4027654:	14000012 	b	402769c <kvprintf+0xcbc>
 4027658:	710040ff 	cmp	w7, #0x10
 402765c:	54000201 	b.ne	402769c <kvprintf+0xcbc>
 4027660:	b4000113 	cbz	x19, 4027680 <kvprintf+0xca0>
 4027664:	f94057a1 	ldr	x1, [x29,#168]
 4027668:	52800600 	mov	w0, #0x30                  	// #48
 402766c:	d63f0260 	blr	x19
 4027670:	f94057a1 	ldr	x1, [x29,#168]
 4027674:	52800f00 	mov	w0, #0x78                  	// #120
 4027678:	d63f0260 	blr	x19
 402767c:	14000007 	b	4027698 <kvprintf+0xcb8>
 4027680:	aa1803e0 	mov	x0, x24
 4027684:	52800601 	mov	w1, #0x30                  	// #48
 4027688:	38002401 	strb	w1, [x0],#2
 402768c:	52800f01 	mov	w1, #0x78                  	// #120
 4027690:	39000701 	strb	w1, [x24,#1]
 4027694:	aa0003f8 	mov	x24, x0
 4027698:	11000b7b 	add	w27, w27, #0x2
 402769c:	2a1703fa 	mov	w26, w23
 40276a0:	52800606 	mov	w6, #0x30                  	// #48
 40276a4:	6b1f035f 	cmp	w26, wzr
 40276a8:	5400018d 	b.le	40276d8 <kvprintf+0xcf8>
 40276ac:	b40000f3 	cbz	x19, 40276c8 <kvprintf+0xce8>
 40276b0:	f94057a1 	ldr	x1, [x29,#168]
 40276b4:	52800600 	mov	w0, #0x30                  	// #48
 40276b8:	b9007ba6 	str	w6, [x29,#120]
 40276bc:	d63f0260 	blr	x19
 40276c0:	b9407ba6 	ldr	w6, [x29,#120]
 40276c4:	14000003 	b	40276d0 <kvprintf+0xcf0>
 40276c8:	39000306 	strb	w6, [x24]
 40276cc:	91000718 	add	x24, x24, #0x1
 40276d0:	5100075a 	sub	w26, w26, #0x1
 40276d4:	17fffff4 	b	40276a4 <kvprintf+0xcc4>
 40276d8:	6b1f02ff 	cmp	w23, wzr
 40276dc:	d280001a 	mov	x26, #0x0                   	// #0
 40276e0:	1a9fa2f7 	csel	w23, w23, wzr, ge
 40276e4:	0b1b02f7 	add	w23, w23, w27
 40276e8:	387a6b80 	ldrb	w0, [x28,x26]
 40276ec:	4b1a02fb 	sub	w27, w23, w26
 40276f0:	34000120 	cbz	w0, 4027714 <kvprintf+0xd34>
 40276f4:	b4000093 	cbz	x19, 4027704 <kvprintf+0xd24>
 40276f8:	f94057a1 	ldr	x1, [x29,#168]
 40276fc:	d63f0260 	blr	x19
 4027700:	14000003 	b	402770c <kvprintf+0xd2c>
 4027704:	39000300 	strb	w0, [x24]
 4027708:	91000718 	add	x24, x24, #0x1
 402770c:	d100075a 	sub	x26, x26, #0x1
 4027710:	17fffff6 	b	40276e8 <kvprintf+0xd08>
 4027714:	b9409ba0 	ldr	w0, [x29,#152]
 4027718:	34ffa2e0 	cbz	w0, 4026b74 <kvprintf+0x194>
 402771c:	2a1403f7 	mov	w23, w20
 4027720:	5280041a 	mov	w26, #0x20                  	// #32
 4027724:	6b1f02ff 	cmp	w23, wzr
 4027728:	5400014d 	b.le	4027750 <kvprintf+0xd70>
 402772c:	b40000b3 	cbz	x19, 4027740 <kvprintf+0xd60>
 4027730:	f94057a1 	ldr	x1, [x29,#168]
 4027734:	52800400 	mov	w0, #0x20                  	// #32
 4027738:	d63f0260 	blr	x19
 402773c:	14000003 	b	4027748 <kvprintf+0xd68>
 4027740:	3900031a 	strb	w26, [x24]
 4027744:	91000718 	add	x24, x24, #0x1
 4027748:	510006f7 	sub	w23, w23, #0x1
 402774c:	17fffff6 	b	4027724 <kvprintf+0xd44>
 4027750:	6b1f029f 	cmp	w20, wzr
 4027754:	1a9fa294 	csel	w20, w20, wzr, ge
 4027758:	0b14037b 	add	w27, w27, w20
 402775c:	17fffd06 	b	4026b74 <kvprintf+0x194>
 4027760:	384016e0 	ldrb	w0, [x23],#1
 4027764:	b4000113 	cbz	x19, 4027784 <kvprintf+0xda4>
 4027768:	f94057a1 	ldr	x1, [x29,#168]
 402776c:	d63f0260 	blr	x19
 4027770:	f94053a0 	ldr	x0, [x29,#160]
 4027774:	0b17039b 	add	w27, w28, w23
 4027778:	eb0002ff 	cmp	x23, x0
 402777c:	54ffff23 	b.cc	4027760 <kvprintf+0xd80>
 4027780:	14000004 	b	4027790 <kvprintf+0xdb0>
 4027784:	39000300 	strb	w0, [x24]
 4027788:	91000718 	add	x24, x24, #0x1
 402778c:	17fffff9 	b	4027770 <kvprintf+0xd90>
 4027790:	52800020 	mov	w0, #0x1                   	// #1
 4027794:	b90093a0 	str	w0, [x29,#144]
 4027798:	17fffcf7 	b	4026b74 <kvprintf+0x194>
 402779c:	a94153f3 	ldp	x19, x20, [sp,#16]
 40277a0:	a9425bf5 	ldp	x21, x22, [sp,#32]
 40277a4:	a94363f7 	ldp	x23, x24, [sp,#48]
 40277a8:	a9446bf9 	ldp	x25, x26, [sp,#64]
 40277ac:	a94573fb 	ldp	x27, x28, [sp,#80]
 40277b0:	2a0303e0 	mov	w0, w3
 40277b4:	a8d07bfd 	ldp	x29, x30, [sp],#256
 40277b8:	d65f03c0 	ret

00000000040277bc <vsnprintf>:
 40277bc:	a9bb7bfd 	stp	x29, x30, [sp,#-80]!
 40277c0:	910003fd 	mov	x29, sp
 40277c4:	f9000bf3 	str	x19, [sp,#16]
 40277c8:	aa0203f3 	mov	x19, x2
 40277cc:	d2800402 	mov	x2, #0x20                  	// #32
 40277d0:	a90407a0 	stp	x0, x1, [x29,#64]
 40277d4:	aa0303e1 	mov	x1, x3
 40277d8:	8b0203a0 	add	x0, x29, x2
 40277dc:	97fffc25 	bl	4026870 <memcpy>
 40277e0:	f0ffffe1 	adrp	x1, 4026000 <psci_smc_handler+0x110>
 40277e4:	910083a4 	add	x4, x29, #0x20
 40277e8:	9126d021 	add	x1, x1, #0x9b4
 40277ec:	52800143 	mov	w3, #0xa                   	// #10
 40277f0:	910103a2 	add	x2, x29, #0x40
 40277f4:	aa1303e0 	mov	x0, x19
 40277f8:	97fffc7a 	bl	40269e0 <kvprintf>
 40277fc:	f94027a1 	ldr	x1, [x29,#72]
 4027800:	b4000061 	cbz	x1, 402780c <vsnprintf+0x50>
 4027804:	f94023a1 	ldr	x1, [x29,#64]
 4027808:	3900003f 	strb	wzr, [x1]
 402780c:	f9400bf3 	ldr	x19, [sp,#16]
 4027810:	a8c57bfd 	ldp	x29, x30, [sp],#80
 4027814:	d65f03c0 	ret

0000000004027818 <plat_marvell_interconnect_init>:
 4027818:	b0000001 	adrp	x1, 4028000 <el1_sysregs_context_restore+0x20>
 402781c:	52800042 	mov	w2, #0x2                   	// #2
 4027820:	912dc021 	add	x1, x1, #0xb70
 4027824:	d2bb0000 	mov	x0, #0xd8000000            	// #3623878656
 4027828:	17fff3f9 	b	402480c <cci_init>

000000000402782c <plat_marvell_interconnect_enter_coherency>:
 402782c:	d53800a0 	mrs	x0, mpidr_el1
 4027830:	d3483c00 	ubfx	x0, x0, #8, #8
 4027834:	17fff3fb 	b	4024820 <cci_enable_snoop_dvm_reqs>

0000000004027838 <init_xlation_table_inner>:
 4027838:	a9ba7bfd 	stp	x29, x30, [sp,#-96]!
 402783c:	910003fd 	mov	x29, sp
 4027840:	a9025bf5 	stp	x21, x22, [sp,#32]
 4027844:	12800115 	mov	w21, #0xfffffff7            	// #-9
 4027848:	d2800076 	mov	x22, #0x3                   	// #3
 402784c:	a90363f7 	stp	x23, x24, [sp,#48]
 4027850:	1b157c75 	mul	w21, w3, w21
 4027854:	2a0303f8 	mov	w24, w3
 4027858:	aa0203f7 	mov	x23, x2
 402785c:	d2800023 	mov	x3, #0x1                   	// #1
 4027860:	11009ea2 	add	w2, w21, #0x27
 4027864:	a90153f3 	stp	x19, x20, [sp,#16]
 4027868:	a9046bf9 	stp	x25, x26, [sp,#64]
 402786c:	d2803ff5 	mov	x21, #0x1ff                 	// #511
 4027870:	71000f1f 	cmp	w24, #0x3
 4027874:	90000034 	adrp	x20, 402b000 <spi_state+0x530>
 4027878:	b0000039 	adrp	x25, 402c000 <xlat_tables>
 402787c:	f9002bfb 	str	x27, [sp,#80]
 4027880:	9ac222b5 	lsl	x21, x21, x2
 4027884:	9a8302d6 	csel	x22, x22, x3, eq
 4027888:	911d4294 	add	x20, x20, #0x750
 402788c:	91000339 	add	x25, x25, #0x0
 4027890:	9ac2207b 	lsl	x27, x3, x2
 4027894:	a9408c06 	ldp	x6, x3, [x0,#8]
 4027898:	b40000e3 	cbz	x3, 40278b4 <init_xlation_table_inner+0x7c>
 402789c:	8b060063 	add	x3, x3, x6
 40278a0:	d1000463 	sub	x3, x3, #0x1
 40278a4:	eb03003f 	cmp	x1, x3
 40278a8:	540000a9 	b.ls	40278bc <init_xlation_table_inner+0x84>
 40278ac:	91008000 	add	x0, x0, #0x20
 40278b0:	1400004d 	b	40279e4 <init_xlation_table_inner+0x1ac>
 40278b4:	d2800013 	mov	x19, #0x0                   	// #0
 40278b8:	14000002 	b	40278c0 <init_xlation_table_inner+0x88>
 40278bc:	92800013 	mov	x19, #0xffffffffffffffff    	// #-1
 40278c0:	8b1b003a 	add	x26, x1, x27
 40278c4:	d1000742 	sub	x2, x26, #0x1
 40278c8:	eb0200df 	cmp	x6, x2
 40278cc:	54000848 	b.hi	40279d4 <init_xlation_table_inner+0x19c>
 40278d0:	aa0003e5 	mov	x5, x0
 40278d4:	12800003 	mov	w3, #0xffffffff            	// #-1
 40278d8:	f94008a4 	ldr	x4, [x5,#16]
 40278dc:	b4000224 	cbz	x4, 4027920 <init_xlation_table_inner+0xe8>
 40278e0:	f94004a7 	ldr	x7, [x5,#8]
 40278e4:	eb07005f 	cmp	x2, x7
 40278e8:	540001c3 	b.cc	4027920 <init_xlation_table_inner+0xe8>
 40278ec:	8b070084 	add	x4, x4, x7
 40278f0:	d1000484 	sub	x4, x4, #0x1
 40278f4:	eb04003f 	cmp	x1, x4
 40278f8:	54000108 	b.hi	4027918 <init_xlation_table_inner+0xe0>
 40278fc:	b94018a8 	ldr	w8, [x5,#24]
 4027900:	6b03011f 	cmp	w8, w3
 4027904:	540000a0 	b.eq	4027918 <init_xlation_table_inner+0xe0>
 4027908:	eb07003f 	cmp	x1, x7
 402790c:	fa442042 	ccmp	x2, x4, #0x2, cs
 4027910:	540004c8 	b.hi	40279a8 <init_xlation_table_inner+0x170>
 4027914:	2a0803e3 	mov	w3, w8
 4027918:	910080a5 	add	x5, x5, #0x20
 402791c:	17ffffef 	b	40278d8 <init_xlation_table_inner+0xa0>
 4027920:	37f80443 	tbnz	w3, #31, 40279a8 <init_xlation_table_inner+0x170>
 4027924:	f9400002 	ldr	x2, [x0]
 4027928:	121c0064 	and	w4, w3, #0x10
 402792c:	6b1f009f 	cmp	w4, wzr
 4027930:	121d0064 	and	w4, w3, #0x8
 4027934:	cb060053 	sub	x19, x2, x6
 4027938:	8b010273 	add	x19, x19, x1
 402793c:	aa160262 	orr	x2, x19, x22
 4027940:	d2800413 	mov	x19, #0x20                  	// #32
 4027944:	9a9f1273 	csel	x19, x19, xzr, ne
 4027948:	6b1f009f 	cmp	w4, wzr
 402794c:	d2801004 	mov	x4, #0x80                  	// #128
 4027950:	9a8413e4 	csel	x4, xzr, x4, ne
 4027954:	aa040273 	orr	x19, x19, x4
 4027958:	aa020273 	orr	x19, x19, x2
 402795c:	72000862 	ands	w2, w3, #0x7
 4027960:	54000081 	b.ne	4027970 <init_xlation_table_inner+0x138>
 4027964:	d280c082 	mov	x2, #0x604                 	// #1540
 4027968:	f2e00802 	movk	x2, #0x40, lsl #48
 402796c:	1400000e 	b	40279a4 <init_xlation_table_inner+0x16c>
 4027970:	52800504 	mov	w4, #0x28                  	// #40
 4027974:	6a04007f 	tst	w3, w4
 4027978:	54000061 	b.ne	4027984 <init_xlation_table_inner+0x14c>
 402797c:	b2760273 	orr	x19, x19, #0x400
 4027980:	14000004 	b	4027990 <init_xlation_table_inner+0x158>
 4027984:	d2808003 	mov	x3, #0x400                 	// #1024
 4027988:	f2e00803 	movk	x3, #0x40, lsl #48
 402798c:	aa030273 	orr	x19, x19, x3
 4027990:	7100085f 	cmp	w2, #0x2
 4027994:	54000061 	b.ne	40279a0 <init_xlation_table_inner+0x168>
 4027998:	b2780673 	orr	x19, x19, #0x300
 402799c:	14000003 	b	40279a8 <init_xlation_table_inner+0x170>
 40279a0:	d2804102 	mov	x2, #0x208                 	// #520
 40279a4:	aa020273 	orr	x19, x19, x2
 40279a8:	b100067f 	cmn	x19, #0x1
 40279ac:	54000161 	b.ne	40279d8 <init_xlation_table_inner+0x1a0>
 40279b0:	b9400282 	ldr	w2, [x20]
 40279b4:	11000443 	add	w3, w2, #0x1
 40279b8:	d3747c42 	ubfiz	x2, x2, #12, #32
 40279bc:	8b020322 	add	x2, x25, x2
 40279c0:	b9000283 	str	w3, [x20]
 40279c4:	11000703 	add	w3, w24, #0x1
 40279c8:	b2400453 	orr	x19, x2, #0x3
 40279cc:	97ffff9b 	bl	4027838 <init_xlation_table_inner>
 40279d0:	14000002 	b	40279d8 <init_xlation_table_inner+0x1a0>
 40279d4:	d2800013 	mov	x19, #0x0                   	// #0
 40279d8:	f90002f3 	str	x19, [x23]
 40279dc:	aa1a03e1 	mov	x1, x26
 40279e0:	910022f7 	add	x23, x23, #0x8
 40279e4:	ea15003f 	tst	x1, x21
 40279e8:	540000a0 	b.eq	40279fc <init_xlation_table_inner+0x1c4>
 40279ec:	d1000423 	sub	x3, x1, #0x1
 40279f0:	b27f7be2 	mov	x2, #0xfffffffe            	// #4294967294
 40279f4:	eb02007f 	cmp	x3, x2
 40279f8:	54fff4e9 	b.ls	4027894 <init_xlation_table_inner+0x5c>
 40279fc:	a94153f3 	ldp	x19, x20, [sp,#16]
 4027a00:	a9425bf5 	ldp	x21, x22, [sp,#32]
 4027a04:	a94363f7 	ldp	x23, x24, [sp,#48]
 4027a08:	a9446bf9 	ldp	x25, x26, [sp,#64]
 4027a0c:	f9402bfb 	ldr	x27, [sp,#80]
 4027a10:	a8c67bfd 	ldp	x29, x30, [sp],#96
 4027a14:	d65f03c0 	ret

0000000004027a18 <print_mmap>:
 4027a18:	d65f03c0 	ret

0000000004027a1c <mmap_add_region>:
 4027a1c:	b40006c2 	cbz	x2, 4027af4 <mmap_add_region+0xd8>
 4027a20:	a9bc7bfd 	stp	x29, x30, [sp,#-64]!
 4027a24:	90000024 	adrp	x4, 402b000 <spi_state+0x530>
 4027a28:	910003fd 	mov	x29, sp
 4027a2c:	a90153f3 	stp	x19, x20, [sp,#16]
 4027a30:	a90363f7 	stp	x23, x24, [sp,#48]
 4027a34:	a9025bf5 	stp	x21, x22, [sp,#32]
 4027a38:	aa0003f7 	mov	x23, x0
 4027a3c:	91190093 	add	x19, x4, #0x640
 4027a40:	f9400660 	ldr	x0, [x19,#8]
 4027a44:	eb00003f 	cmp	x1, x0
 4027a48:	54000129 	b.ls	4027a6c <mmap_add_region+0x50>
 4027a4c:	f9400a60 	ldr	x0, [x19,#16]
 4027a50:	b40000e0 	cbz	x0, 4027a6c <mmap_add_region+0x50>
 4027a54:	91008273 	add	x19, x19, #0x20
 4027a58:	17fffffa 	b	4027a40 <mmap_add_region+0x24>
 4027a5c:	f9400a65 	ldr	x5, [x19,#16]
 4027a60:	eb05005f 	cmp	x2, x5
 4027a64:	540000c2 	b.cs	4027a7c <mmap_add_region+0x60>
 4027a68:	aa0003f3 	mov	x19, x0
 4027a6c:	f9400660 	ldr	x0, [x19,#8]
 4027a70:	eb00003f 	cmp	x1, x0
 4027a74:	91008260 	add	x0, x19, #0x20
 4027a78:	54ffff20 	b.eq	4027a5c <mmap_add_region+0x40>
 4027a7c:	aa0203f4 	mov	x20, x2
 4027a80:	d1000456 	sub	x22, x2, #0x1
 4027a84:	91190082 	add	x2, x4, #0x640
 4027a88:	aa0103f5 	mov	x21, x1
 4027a8c:	91038042 	add	x2, x2, #0xe0
 4027a90:	aa1303e1 	mov	x1, x19
 4027a94:	cb130042 	sub	x2, x2, x19
 4027a98:	2a0303f8 	mov	w24, w3
 4027a9c:	8b1702d6 	add	x22, x22, x23
 4027aa0:	97fffb7c 	bl	4026890 <memmove>
 4027aa4:	f9000a74 	str	x20, [x19,#16]
 4027aa8:	90000020 	adrp	x0, 402b000 <spi_state+0x530>
 4027aac:	b9001a78 	str	w24, [x19,#24]
 4027ab0:	a9005677 	stp	x23, x21, [x19]
 4027ab4:	f943a401 	ldr	x1, [x0,#1864]
 4027ab8:	eb0102df 	cmp	x22, x1
 4027abc:	54000049 	b.ls	4027ac4 <mmap_add_region+0xa8>
 4027ac0:	f903a416 	str	x22, [x0,#1864]
 4027ac4:	90000020 	adrp	x0, 402b000 <spi_state+0x530>
 4027ac8:	d10006a1 	sub	x1, x21, #0x1
 4027acc:	8b140034 	add	x20, x1, x20
 4027ad0:	f943a001 	ldr	x1, [x0,#1856]
 4027ad4:	eb01029f 	cmp	x20, x1
 4027ad8:	54000049 	b.ls	4027ae0 <mmap_add_region+0xc4>
 4027adc:	f903a014 	str	x20, [x0,#1856]
 4027ae0:	a94153f3 	ldp	x19, x20, [sp,#16]
 4027ae4:	a9425bf5 	ldp	x21, x22, [sp,#32]
 4027ae8:	a94363f7 	ldp	x23, x24, [sp,#48]
 4027aec:	a8c47bfd 	ldp	x29, x30, [sp],#64
 4027af0:	d65f03c0 	ret
 4027af4:	d65f03c0 	ret

0000000004027af8 <mmap_add>:
 4027af8:	a9be7bfd 	stp	x29, x30, [sp,#-32]!
 4027afc:	910003fd 	mov	x29, sp
 4027b00:	f9000bf3 	str	x19, [sp,#16]
 4027b04:	aa0003f3 	mov	x19, x0
 4027b08:	f9400a62 	ldr	x2, [x19,#16]
 4027b0c:	b40000c2 	cbz	x2, 4027b24 <mmap_add+0x2c>
 4027b10:	b9401a63 	ldr	w3, [x19,#24]
 4027b14:	f9400661 	ldr	x1, [x19,#8]
 4027b18:	f8420660 	ldr	x0, [x19],#32
 4027b1c:	97ffffc0 	bl	4027a1c <mmap_add_region>
 4027b20:	17fffffa 	b	4027b08 <mmap_add+0x10>
 4027b24:	f9400bf3 	ldr	x19, [sp,#16]
 4027b28:	a8c27bfd 	ldp	x29, x30, [sp],#32
 4027b2c:	d65f03c0 	ret

0000000004027b30 <init_xlation_table>:
 4027b30:	a9bf7bfd 	stp	x29, x30, [sp,#-16]!
 4027b34:	aa0303ea 	mov	x10, x3
 4027b38:	2a0203e3 	mov	w3, w2
 4027b3c:	aa0103e2 	mov	x2, x1
 4027b40:	aa0003e1 	mov	x1, x0
 4027b44:	90000020 	adrp	x0, 402b000 <spi_state+0x530>
 4027b48:	910003fd 	mov	x29, sp
 4027b4c:	aa0403e9 	mov	x9, x4
 4027b50:	91190000 	add	x0, x0, #0x640
 4027b54:	97ffff39 	bl	4027838 <init_xlation_table_inner>
 4027b58:	90000020 	adrp	x0, 402b000 <spi_state+0x530>
 4027b5c:	a8c17bfd 	ldp	x29, x30, [sp],#16
 4027b60:	f943a000 	ldr	x0, [x0,#1856]
 4027b64:	f9000140 	str	x0, [x10]
 4027b68:	90000020 	adrp	x0, 402b000 <spi_state+0x530>
 4027b6c:	f943a400 	ldr	x0, [x0,#1864]
 4027b70:	f9000120 	str	x0, [x9]
 4027b74:	d65f03c0 	ret

0000000004027b78 <init_xlat_tables>:
 4027b78:	a9be7bfd 	stp	x29, x30, [sp,#-32]!
 4027b7c:	910003fd 	mov	x29, sp
 4027b80:	97ffffa6 	bl	4027a18 <print_mmap>
 4027b84:	90000021 	adrp	x1, 402b000 <spi_state+0x530>
 4027b88:	d2800000 	mov	x0, #0x0                   	// #0
 4027b8c:	911d8021 	add	x1, x1, #0x760
 4027b90:	910043a4 	add	x4, x29, #0x10
 4027b94:	910063a3 	add	x3, x29, #0x18
 4027b98:	52800022 	mov	w2, #0x1                   	// #1
 4027b9c:	97ffffe5 	bl	4027b30 <init_xlation_table>
 4027ba0:	f9400ba1 	ldr	x1, [x29,#16]
 4027ba4:	d28000a0 	mov	x0, #0x5                   	// #5
 4027ba8:	f2540c3f 	tst	x1, #0xf00000000000
 4027bac:	54000181 	b.ne	4027bdc <init_xlat_tables+0x64>
 4027bb0:	f256043f 	tst	x1, #0xc0000000000
 4027bb4:	d2800080 	mov	x0, #0x4                   	// #4
 4027bb8:	54000121 	b.ne	4027bdc <init_xlat_tables+0x64>
 4027bbc:	f258043f 	tst	x1, #0x30000000000
 4027bc0:	d2800060 	mov	x0, #0x3                   	// #3
 4027bc4:	540000c1 	b.ne	4027bdc <init_xlat_tables+0x64>
 4027bc8:	f25c0c3f 	tst	x1, #0xf000000000
 4027bcc:	d2800040 	mov	x0, #0x2                   	// #2
 4027bd0:	54000061 	b.ne	4027bdc <init_xlat_tables+0x64>
 4027bd4:	f2600c3f 	tst	x1, #0xf00000000
 4027bd8:	9a9f07e0 	cset	x0, ne
 4027bdc:	90000021 	adrp	x1, 402b000 <spi_state+0x530>
 4027be0:	f903ac20 	str	x0, [x1,#1880]
 4027be4:	a8c27bfd 	ldp	x29, x30, [sp],#32
 4027be8:	d65f03c0 	ret

0000000004027bec <enable_mmu_el3>:
 4027bec:	d2809fe1 	mov	x1, #0x4ff                 	// #1279
 4027bf0:	f2a00881 	movk	x1, #0x44, lsl #16
 4027bf4:	d51ea201 	msr	mair_el3, x1
 4027bf8:	d50e871f 	tlbi	alle3
 4027bfc:	90000021 	adrp	x1, 402b000 <spi_state+0x530>
 4027c00:	d286a402 	mov	x2, #0x3520                	// #13600
 4027c04:	f2b01002 	movk	x2, #0x8080, lsl #16
 4027c08:	f943ac21 	ldr	x1, [x1,#1880]
 4027c0c:	aa014041 	orr	x1, x2, x1, lsl #16
 4027c10:	d51e2041 	msr	tcr_el3, x1
 4027c14:	90000021 	adrp	x1, 402b000 <spi_state+0x530>
 4027c18:	911d8021 	add	x1, x1, #0x760
 4027c1c:	d51e2001 	msr	ttbr0_el3, x1
 4027c20:	d5033f9f 	dsb	sy
 4027c24:	d5033fdf 	isb
 4027c28:	d53e1001 	mrs	x1, sctlr_el3
 4027c2c:	360000a0 	tbz	w0, #0, 4027c40 <enable_mmu_el3+0x54>
 4027c30:	121d7820 	and	w0, w1, #0xfffffffb
 4027c34:	52800021 	mov	w1, #0x1                   	// #1
 4027c38:	72a00101 	movk	w1, #0x8, lsl #16
 4027c3c:	14000003 	b	4027c48 <enable_mmu_el3+0x5c>
 4027c40:	528000a0 	mov	w0, #0x5                   	// #5
 4027c44:	72a00100 	movk	w0, #0x8, lsl #16
 4027c48:	2a010000 	orr	w0, w0, w1
 4027c4c:	d51e1000 	msr	sctlr_el3, x0
 4027c50:	d5033fdf 	isb
 4027c54:	d65f03c0 	ret

0000000004027c58 <plat_marvell_get_mmap>:
 4027c58:	b0000000 	adrp	x0, 4028000 <el1_sysregs_context_restore+0x20>
 4027c5c:	912bc000 	add	x0, x0, #0xaf0
 4027c60:	d65f03c0 	ret

0000000004027c64 <marvell_setup_page_tables>:
 4027c64:	a9bd7bfd 	stp	x29, x30, [sp,#-48]!
 4027c68:	910003fd 	mov	x29, sp
 4027c6c:	a90153f3 	stp	x19, x20, [sp,#16]
 4027c70:	a9025bf5 	stp	x21, x22, [sp,#32]
 4027c74:	aa0203f4 	mov	x20, x2
 4027c78:	aa0303f6 	mov	x22, x3
 4027c7c:	aa0103e2 	mov	x2, x1
 4027c80:	52800143 	mov	w3, #0xa                   	// #10
 4027c84:	aa0003e1 	mov	x1, x0
 4027c88:	aa0403f3 	mov	x19, x4
 4027c8c:	aa0503f5 	mov	x21, x5
 4027c90:	97ffff63 	bl	4027a1c <mmap_add_region>
 4027c94:	cb1402c2 	sub	x2, x22, x20
 4027c98:	aa1403e1 	mov	x1, x20
 4027c9c:	aa1403e0 	mov	x0, x20
 4027ca0:	52800043 	mov	w3, #0x2                   	// #2
 4027ca4:	97ffff5e 	bl	4027a1c <mmap_add_region>
 4027ca8:	cb1302a2 	sub	x2, x21, x19
 4027cac:	aa1303e1 	mov	x1, x19
 4027cb0:	52800443 	mov	w3, #0x22                  	// #34
