
Discarded input sections

 .data          0x0000000000000000        0x0 arch/arm/cpu/armv8/start.o
 .bss           0x0000000000000000        0x0 arch/arm/cpu/armv8/start.o
 .text.sdelay   0x0000000000000000        0xc arch/arm/cpu/armv8/built-in.o
 .text.timer_read_counter
                0x0000000000000000        0xc arch/arm/cpu/armv8/built-in.o
 .text.usec2ticks
                0x0000000000000000       0x44 arch/arm/cpu/armv8/built-in.o
 .text.arch_get_page_table
                0x0000000000000000       0x20 arch/arm/cpu/armv8/built-in.o
 .text.psci_update_dt
                0x0000000000000000        0x8 arch/arm/cpu/armv8/built-in.o
 .data          0x0000000000000000        0x0 arch/arm/cpu/armv8/built-in.o
 .bss           0x0000000000000000        0x0 arch/arm/cpu/armv8/built-in.o
 .text.armv7_boot_nonsec_default
                0x0000000000000000        0x8 arch/arm/lib/built-in.o
 .text.reset_misc
                0x0000000000000000        0x4 arch/arm/lib/built-in.o
 .text.enable_caches
                0x0000000000000000        0xc arch/arm/lib/built-in.o
 .text.invalidate_dcache_range
                0x0000000000000000        0x4 arch/arm/lib/built-in.o
 .text.flush_dcache_range
                0x0000000000000000        0x4 arch/arm/lib/built-in.o
 .text.flush_dcache_all
                0x0000000000000000        0xc arch/arm/lib/built-in.o
 .text.check_cache_range
                0x0000000000000000       0x40 arch/arm/lib/built-in.o
 .text.fdt_psci
                0x0000000000000000        0x8 arch/arm/lib/built-in.o
 .data          0x0000000000000000        0x0 arch/arm/lib/built-in.o
 .__secure_end  0x0000000000000000        0x0 arch/arm/lib/built-in.o
 .__secure_stack_start
                0x0000000000000000        0x0 arch/arm/lib/built-in.o
 .__secure_stack_end
                0x0000000000000000        0x0 arch/arm/lib/built-in.o
 .__end         0x0000000000000000        0x0 arch/arm/lib/built-in.o
 .__secure_start
                0x0000000000000000        0x0 arch/arm/lib/built-in.o
 .bss           0x0000000000000000        0x0 arch/arm/lib/built-in.o
 .text          0x0000000000000000        0x0 arch/arm/mach-mvebu/built-in.o
 .text.get_cpu_clk_src_div
                0x0000000000000000       0x54 arch/arm/mach-mvebu/built-in.o
 .text.soc_tclk_get
                0x0000000000000000        0x8 arch/arm/mach-mvebu/built-in.o
 .text.soc_l2_clk_get
                0x0000000000000000        0x8 arch/arm/mach-mvebu/built-in.o
 .text.soc_timer_clk_get
                0x0000000000000000        0x8 arch/arm/mach-mvebu/built-in.o
 .text.board_ahci_enable
                0x0000000000000000        0x8 arch/arm/mach-mvebu/built-in.o
 .data          0x0000000000000000        0x0 arch/arm/mach-mvebu/built-in.o
 .bss           0x0000000000000000        0x0 arch/arm/mach-mvebu/built-in.o
 .text          0x0000000000000000        0x0 board/Marvell/mvebu_armada-37xx/built-in.o
 .data          0x0000000000000000        0x0 board/Marvell/mvebu_armada-37xx/built-in.o
 .bss           0x0000000000000000        0x0 board/Marvell/mvebu_armada-37xx/built-in.o
 .text          0x0000000000000000        0x0 cmd/built-in.o
 .text.invalidate_icache_all
                0x0000000000000000        0xc cmd/built-in.o
 .text.flush_dcache_all
                0x0000000000000000        0xc cmd/built-in.o
 .text.name_to_gpio
                0x0000000000000000       0x1c cmd/built-in.o
 .text.i2c_init_board
                0x0000000000000000        0x4 cmd/built-in.o
 .data          0x0000000000000000        0x0 cmd/built-in.o
 .bss           0x0000000000000000        0x0 cmd/built-in.o
 .text          0x0000000000000000        0x0 common/built-in.o
 .text.hash_progressive_lookup_algo
                0x0000000000000000       0x88 common/built-in.o
 .text.hash_parse_string
                0x0000000000000000       0x78 common/built-in.o
 .text.hash_block
                0x0000000000000000       0x78 common/built-in.o
 .text.unset_local_var
                0x0000000000000000       0xbc common/built-in.o
 .text.arch_cpu_init
                0x0000000000000000        0x8 common/built-in.o
 .text.coloured_LED_init
                0x0000000000000000        0x4 common/built-in.o
 .text.red_led_on
                0x0000000000000000        0x4 common/built-in.o
 .text.red_led_off
                0x0000000000000000        0x4 common/built-in.o
 .text.green_led_on
                0x0000000000000000        0x4 common/built-in.o
 .text.green_led_off
                0x0000000000000000        0x4 common/built-in.o
 .text.yellow_led_on
                0x0000000000000000        0x4 common/built-in.o
 .text.yellow_led_off
                0x0000000000000000        0x4 common/built-in.o
 .text.blue_led_on
                0x0000000000000000        0x4 common/built-in.o
 .text.blue_led_off
                0x0000000000000000        0x4 common/built-in.o
 .text.dram_init_banksize
                0x0000000000000000       0x2c common/built-in.o
 .text.board_get_usable_ram_top
                0x0000000000000000        0xc common/built-in.o
 .text.arch_reserve_stacks
                0x0000000000000000        0x8 common/built-in.o
 .text.board_flash_wp_on
                0x0000000000000000        0x8 common/built-in.o
 .text.fixup_cpu
                0x0000000000000000        0x8 common/built-in.o
 .text.env_flags_parse_varaccess_from_binflags
                0x0000000000000000       0x60 common/built-in.o
 .text.fdt_read_prop
                0x0000000000000000       0x48 common/built-in.o
 .text.fdt_getprop_u32_default_node
                0x0000000000000000       0x54 common/built-in.o
 .text.fdt_getprop_u32_default
                0x0000000000000000       0x5c common/built-in.o
 .text.do_fixup_by_path_u32
                0x0000000000000000       0x28 common/built-in.o
 .text.do_fixup_by_prop
                0x0000000000000000       0xc8 common/built-in.o
 .text.do_fixup_by_prop_u32
                0x0000000000000000       0x28 common/built-in.o
 .text.do_fixup_by_compat
                0x0000000000000000       0xa8 common/built-in.o
 .text.do_fixup_by_compat_u32
                0x0000000000000000       0x28 common/built-in.o
 .text.fdt_pci_dma_ranges
                0x0000000000000000      0x134 common/built-in.o
 .text.fdt_increase_size
                0x0000000000000000       0x14 common/built-in.o
 .text.fdt_del_node_and_alias
                0x0000000000000000       0x5c common/built-in.o
 .text.fdt_node_offset_by_compat_reg
                0x0000000000000000       0xa0 common/built-in.o
 .text.fdt_alloc_phandle
                0x0000000000000000       0x6c common/built-in.o
 .text.fdt_set_phandle
                0x0000000000000000       0x6c common/built-in.o
 .text.fdt_create_phandle
                0x0000000000000000       0x78 common/built-in.o
 .text.fdt_set_node_status
                0x0000000000000000       0xd8 common/built-in.o
 .text.fdt_set_status_by_alias
                0x0000000000000000       0x40 common/built-in.o
 .text.fdt_verify_alias_address
                0x0000000000000000       0xdc common/built-in.o
 .text.fdt_get_base_address
                0x0000000000000000       0x64 common/built-in.o
 .text.fdt_read_range
                0x0000000000000000      0x150 common/built-in.o
 .text.fdt_setup_simplefb_node
                0x0000000000000000      0x20c common/built-in.o
 .text.fdt_fixup_display
                0x0000000000000000       0xe8 common/built-in.o
 .text.mdio_free
                0x0000000000000000        0x4 common/built-in.o
 .text.mdio_register_seq
                0x0000000000000000       0x48 common/built-in.o
 .text.mdio_unregister
                0x0000000000000000       0x30 common/built-in.o
 .text.usb_submit_int_msg
                0x0000000000000000        0x4 common/built-in.o
 .text.usb_set_protocol
                0x0000000000000000       0x4c common/built-in.o
 .text.usb_set_idle
                0x0000000000000000       0x4c common/built-in.o
 .text.usb_get_report
                0x0000000000000000       0x5c common/built-in.o
 .text.usb_get_class_descriptor
                0x0000000000000000       0x5c common/built-in.o
 .text.board_usb_init
                0x0000000000000000        0x8 common/built-in.o
 .text.board_usb_cleanup
                0x0000000000000000        0x8 common/built-in.o
 .text.hub_port_reset
                0x0000000000000000       0x2c common/built-in.o
 .text.usb_hub_probe
                0x0000000000000000       0x54 common/built-in.o
 .text.splash_screen_prepare
                0x0000000000000000        0x8 common/built-in.o
 .text.serial_printf
                0x0000000000000000       0xcc common/built-in.o
 .text.fputc    0x0000000000000000       0x24 common/built-in.o
 .text.fputs    0x0000000000000000       0x20 common/built-in.o
 .text.fprintf  0x0000000000000000       0xd0 common/built-in.o
 .text.confirm_yesno
                0x0000000000000000       0xd8 common/built-in.o
 .text.stdio_print_current_devices
                0x0000000000000000       0xc0 common/built-in.o
 .text.valloc   0x0000000000000000        0xc common/built-in.o
 .text.pvalloc  0x0000000000000000       0x10 common/built-in.o
 .text.cfree    0x0000000000000000        0x4 common/built-in.o
 .text.malloc_usable_size
                0x0000000000000000       0x40 common/built-in.o
 .text.mallopt  0x0000000000000000       0x5c common/built-in.o
 .text.memalign_simple
                0x0000000000000000       0x4c common/built-in.o
 .text.genimg_get_short_name
                0x0000000000000000       0x28 common/built-in.o
 .text.genimg_get_cat_name
                0x0000000000000000       0x78 common/built-in.o
 .text.genimg_get_cat_short_name
                0x0000000000000000       0x78 common/built-in.o
 .text.genimg_get_cat_count
                0x0000000000000000       0x1c common/built-in.o
 .text.genimg_get_cat_desc
                0x0000000000000000       0x1c common/built-in.o
 .text.genimg_get_type_short_name
                0x0000000000000000       0x10 common/built-in.o
 .text.genimg_get_comp_short_name
                0x0000000000000000       0x10 common/built-in.o
 .text.genimg_get_os_short_name
                0x0000000000000000       0x10 common/built-in.o
 .text.genimg_get_arch_short_name
                0x0000000000000000       0x10 common/built-in.o
 .text.get_table_entry_id
                0x0000000000000000       0x50 common/built-in.o
 .text.genimg_get_os_id
                0x0000000000000000       0x18 common/built-in.o
 .text.genimg_get_arch_id
                0x0000000000000000       0x18 common/built-in.o
 .text.genimg_get_type_id
                0x0000000000000000       0x18 common/built-in.o
 .text.genimg_get_comp_id
                0x0000000000000000       0x18 common/built-in.o
 .text.genimg_get_kernel_addr
                0x0000000000000000       0x24 common/built-in.o
 .text.get_ram_size
                0x0000000000000000      0x108 common/built-in.o
 .text.stdio_init
                0x0000000000000000       0x1c common/built-in.o
 .text.cli_simple_parse_line
                0x0000000000000000       0x9c common/built-in.o
 .text.cli_simple_process_macros
                0x0000000000000000      0x24c common/built-in.o
 .text.cli_simple_run_command
                0x0000000000000000      0x144 common/built-in.o
 .text.cli_simple_loop
                0x0000000000000000       0x90 common/built-in.o
 .text.cli_simple_run_command_list
                0x0000000000000000       0x78 common/built-in.o
 .text.run_command_repeatable
                0x0000000000000000       0x20 common/built-in.o
 .rodata.fdt_set_node_status
                0x0000000000000000        0x4 common/built-in.o
 .rodata.mallopt
                0x0000000000000000        0x4 common/built-in.o
 .rodata.unknown_str.7355
                0x0000000000000000       0x10 common/built-in.o
 .rodata.table_info
                0x0000000000000000       0x60 common/built-in.o
 .data          0x0000000000000000        0x0 common/built-in.o
 .bss           0x0000000000000000        0x0 common/built-in.o
 .bss.msg.7356  0x0000000000000000       0x20 common/built-in.o
 .bss.save_addr
                0x0000000000000000        0x8 common/built-in.o
 .bss.save_size
                0x0000000000000000        0x8 common/built-in.o
 .bss.lastcommand.5756
                0x0000000000000000      0x408 common/built-in.o
 .text          0x0000000000000000        0x0 disk/built-in.o
 .text.part_get_info_by_name
                0x0000000000000000       0xc8 disk/built-in.o
 .text.is_valid_dos_buf
                0x0000000000000000       0x1c disk/built-in.o
 .text.write_mbr_partition
                0x0000000000000000       0x7c disk/built-in.o
 .text.set_protective_mbr
                0x0000000000000000      0x100 disk/built-in.o
 .text.write_gpt_table
                0x0000000000000000      0x3dc disk/built-in.o
 .text.gpt_fill_pte
                0x0000000000000000      0x2f8 disk/built-in.o
 .text.gpt_fill_header
                0x0000000000000000      0x1c0 disk/built-in.o
 .text.gpt_restore
                0x0000000000000000      0x114 disk/built-in.o
 .text.gpt_verify_headers
                0x0000000000000000       0x98 disk/built-in.o
 .text.gpt_verify_partitions
                0x0000000000000000      0x23c disk/built-in.o
 .text.is_valid_gpt_buf
                0x0000000000000000       0x9c disk/built-in.o
 .text.write_mbr_and_gpt_partitions
                0x0000000000000000      0x498 disk/built-in.o
 .rodata        0x0000000000000000       0x10 disk/built-in.o
 .rodata.__func__.5778
                0x0000000000000000       0x18 disk/built-in.o
 .rodata.__func__.5930
                0x0000000000000000       0x18 disk/built-in.o
 .rodata.__func__.5912
                0x0000000000000000       0x10 disk/built-in.o
 .rodata.__func__.5943
                0x0000000000000000       0x18 disk/built-in.o
 .rodata.__func__.5963
                0x0000000000000000       0x20 disk/built-in.o
 .rodata.__func__.5862
                0x0000000000000000       0x18 disk/built-in.o
 .data          0x0000000000000000        0x0 disk/built-in.o
 .bss           0x0000000000000000        0x0 disk/built-in.o
 .text          0x0000000000000000        0x0 drivers/built-in.o
 .text._device_find_global_by_of_offset
                0x0000000000000000       0x68 drivers/built-in.o
 .text.device_find_child_by_seq
                0x0000000000000000       0x54 drivers/built-in.o
 .text.device_get_child_by_seq
                0x0000000000000000       0x70 drivers/built-in.o
 .text.device_find_child_by_of_offset
                0x0000000000000000       0x40 drivers/built-in.o
 .text.device_get_child_by_of_offset
                0x0000000000000000       0x40 drivers/built-in.o
 .text.device_get_global_by_of_offset
                0x0000000000000000       0x48 drivers/built-in.o
 .text.dev_get_uclass_name
                0x0000000000000000       0x1c drivers/built-in.o
 .text.dev_get_addr_size_index
                0x0000000000000000       0x48 drivers/built-in.o
 .text.dev_get_addr_name
                0x0000000000000000       0x50 drivers/built-in.o
 .text.dev_map_physmem
                0x0000000000000000       0x1c drivers/built-in.o
 .text.device_has_children
                0x0000000000000000       0x14 drivers/built-in.o
 .text.dm_fixup_for_gd_move
                0x0000000000000000       0x18 drivers/built-in.o
 .text.dm_set_translation_offset
                0x0000000000000000       0x28 drivers/built-in.o
 .text.dm_uninit
                0x0000000000000000       0x28 drivers/built-in.o
 .text.uclass_destroy
                0x0000000000000000       0x98 drivers/built-in.o
 .text.uclass_get_name
                0x0000000000000000       0x30 drivers/built-in.o
 .text.uclass_find_device_by_name
                0x0000000000000000       0x9c drivers/built-in.o
 .text.uclass_get_device_by_driver
                0x0000000000000000       0x78 drivers/built-in.o
 .text.uclass_get_device_by_name
                0x0000000000000000       0x38 drivers/built-in.o
 .text.dm_dbg   0x0000000000000000       0x78 drivers/built-in.o
 .text.list_count_items
                0x0000000000000000       0x24 drivers/built-in.o
 .text.simple_bus_translate
                0x0000000000000000       0x50 drivers/built-in.o
 .text.pinctrl_decode_pin_config
                0x0000000000000000       0x58 drivers/built-in.o
 .text.pinctrl_request
                0x0000000000000000       0x1c drivers/built-in.o
 .text.pinctrl_request_noflags
                0x0000000000000000        0x8 drivers/built-in.o
 .text.pinctrl_get_periph_id
                0x0000000000000000       0x1c drivers/built-in.o
 .text.pinctrl_get_gpio_mux
                0x0000000000000000       0x1c drivers/built-in.o
 .text.scsi_low_level_init
                0x0000000000000000       0x64 drivers/built-in.o
 .text.scsi_init
                0x0000000000000000        0x4 drivers/built-in.o
 .text.ata_dev_classify
                0x0000000000000000       0x6c drivers/built-in.o
 .text.ata_id_c_string
                0x0000000000000000       0x80 drivers/built-in.o
 .text.ata_dump_id
                0x0000000000000000      0x114 drivers/built-in.o
 .text.misc_read
                0x0000000000000000       0x1c drivers/built-in.o
 .text.misc_write
                0x0000000000000000       0x1c drivers/built-in.o
 .text.misc_ioctl
                0x0000000000000000       0x1c drivers/built-in.o
 .text.misc_call
                0x0000000000000000       0x1c drivers/built-in.o
 .text._input_send_keycodes
                0x0000000000000000      0x3fc drivers/built-in.o
 .text.input_tstc
                0x0000000000000000       0x48 drivers/built-in.o
 .text.input_getc
                0x0000000000000000       0x5c drivers/built-in.o
 .text.input_send_keycodes
                0x0000000000000000        0x8 drivers/built-in.o
 .text.input_add_keycode
                0x0000000000000000       0x88 drivers/built-in.o
 .text.input_add_table
                0x0000000000000000       0x38 drivers/built-in.o
 .text.input_set_delays
                0x0000000000000000        0x8 drivers/built-in.o
 .text.input_allow_repeats
                0x0000000000000000        0x8 drivers/built-in.o
 .text.input_leds_changed
                0x0000000000000000       0x18 drivers/built-in.o
 .text.input_add_tables
                0x0000000000000000       0x78 drivers/built-in.o
 .text.input_init
                0x0000000000000000       0x34 drivers/built-in.o
 .text.input_stdio_register
                0x0000000000000000       0x58 drivers/built-in.o
 .text.create_keymap
                0x0000000000000000       0xac drivers/built-in.o
 .text.key_matrix_decode
                0x0000000000000000       0xe8 drivers/built-in.o
 .text.key_matrix_decode_fdt
                0x0000000000000000       0xbc drivers/built-in.o
 .text.key_matrix_init
                0x0000000000000000       0x50 drivers/built-in.o
 .rodata.kbd_to_ansi364
                0x0000000000000000       0x40 drivers/built-in.o
 .rodata.kbd_plain_xlate
                0x0000000000000000       0x68 drivers/built-in.o
 .rodata.CSWTCH.21
                0x0000000000000000       0x10 drivers/built-in.o
 .rodata.kbd_plain_xlate_german
                0x0000000000000000       0x88 drivers/built-in.o
 .data          0x0000000000000000        0x0 drivers/built-in.o
 .data.kbd_ctrl_xlate
                0x0000000000000000       0x68 drivers/built-in.o
 .data.kbd_right_alt_xlate_german
                0x0000000000000000       0x58 drivers/built-in.o
 .data.kbd_shift_xlate_german
                0x0000000000000000       0x88 drivers/built-in.o
 .data.kbd_entry
                0x0000000000000000       0xe0 drivers/built-in.o
 .data.kbd_shift_xlate
                0x0000000000000000       0x68 drivers/built-in.o
 .bss           0x0000000000000000        0x0 drivers/built-in.o
 .text          0x0000000000000000        0x0 drivers/gpio/built-in.o
 .text.gpio_requestf
                0x0000000000000000       0xa0 drivers/gpio/built-in.o
 .text.dm_gpio_get_open_drain
                0x0000000000000000       0x5c drivers/gpio/built-in.o
 .text.dm_gpio_set_open_drain
                0x0000000000000000       0x6c drivers/gpio/built-in.o
 .text.dm_gpio_set_dir
                0x0000000000000000        0x8 drivers/gpio/built-in.o
 .text.gpio_set_value
                0x0000000000000000       0x34 drivers/gpio/built-in.o
 .text.gpio_claim_vector
                0x0000000000000000       0xc0 drivers/gpio/built-in.o
 .text.gpio_get_values_as_int
                0x0000000000000000       0x64 drivers/gpio/built-in.o
 .text.dm_gpio_get_values_as_int
                0x0000000000000000       0x70 drivers/gpio/built-in.o
 .text.gpio_get_list_count
                0x0000000000000000       0x28 drivers/gpio/built-in.o
 .text.dm_gpio_free
                0x0000000000000000       0x10 drivers/gpio/built-in.o
 .text.gpio_free_list
                0x0000000000000000       0x54 drivers/gpio/built-in.o
 .text.gpio_free_list_nodev
                0x0000000000000000       0x10 drivers/gpio/built-in.o
 .text.gpio_request_list_by_name_nodev
                0x0000000000000000       0xb4 drivers/gpio/built-in.o
 .text.gpio_request_list_by_name
                0x0000000000000000       0x20 drivers/gpio/built-in.o
 .text.gpio_get_number
                0x0000000000000000       0x24 drivers/gpio/built-in.o
 .data          0x0000000000000000        0x0 drivers/gpio/built-in.o
 .bss           0x0000000000000000        0x0 drivers/gpio/built-in.o
 .text          0x0000000000000000        0x0 drivers/i2c/built-in.o
 .text.i2c_dump_msgs
                0x0000000000000000       0xb0 drivers/i2c/built-in.o
 .text.dm_i2c_xfer
                0x0000000000000000       0x4c drivers/i2c/built-in.o
 .text.dm_i2c_reg_read
                0x0000000000000000       0x28 drivers/i2c/built-in.o
 .text.dm_i2c_reg_write
                0x0000000000000000       0x24 drivers/i2c/built-in.o
 .data          0x0000000000000000        0x0 drivers/i2c/built-in.o
 .bss           0x0000000000000000        0x0 drivers/i2c/built-in.o
 .text          0x0000000000000000        0x0 drivers/mmc/built-in.o
 .text.mmc_get_next_devnum
                0x0000000000000000        0x8 drivers/mmc/built-in.o
 .text.mmc_unbind
                0x0000000000000000       0x34 drivers/mmc/built-in.o
 .text.cpu_mmc_init
                0x0000000000000000        0x8 drivers/mmc/built-in.o
 .text.board_mmc_init
                0x0000000000000000        0x8 drivers/mmc/built-in.o
 .text.mmc_set_preinit
                0x0000000000000000        0x8 drivers/mmc/built-in.o
 .data          0x0000000000000000        0x0 drivers/mmc/built-in.o
 .bss           0x0000000000000000        0x0 drivers/mmc/built-in.o
 .text          0x0000000000000000        0x0 drivers/mtd/built-in.o
 .text.idr_remove
                0x0000000000000000       0x14 drivers/mtd/built-in.o
 .text.idr_find
                0x0000000000000000       0x20 drivers/mtd/built-in.o
 .text.idr_get_next
                0x0000000000000000       0x3c drivers/mtd/built-in.o
 .text.idr_alloc
                0x0000000000000000       0x40 drivers/mtd/built-in.o
 .text.__mtd_next_device
                0x0000000000000000       0x24 drivers/mtd/built-in.o
 .text.del_mtd_device
                0x0000000000000000       0x80 drivers/mtd/built-in.o
 .text.__get_mtd_device
                0x0000000000000000       0x40 drivers/mtd/built-in.o
 .text.get_mtd_device
                0x0000000000000000       0x9c drivers/mtd/built-in.o
 .text.get_mtd_device_nm
                0x0000000000000000       0x64 drivers/mtd/built-in.o
 .text.__put_mtd_device
                0x0000000000000000       0x5c drivers/mtd/built-in.o
 .text.put_mtd_device
                0x0000000000000000        0x4 drivers/mtd/built-in.o
 .text.mtd_erase
                0x0000000000000000       0x84 drivers/mtd/built-in.o
 .text.mtd_get_unmapped_area
                0x0000000000000000       0x34 drivers/mtd/built-in.o
 .text.mtd_read
                0x0000000000000000       0x84 drivers/mtd/built-in.o
 .text.mtd_write
                0x0000000000000000       0x50 drivers/mtd/built-in.o
 .text.mtd_panic_write
                0x0000000000000000       0x58 drivers/mtd/built-in.o
 .text.mtd_read_oob
                0x0000000000000000       0x68 drivers/mtd/built-in.o
 .text.mtd_get_fact_prot_info
                0x0000000000000000       0x20 drivers/mtd/built-in.o
 .text.mtd_read_fact_prot_reg
                0x0000000000000000       0x24 drivers/mtd/built-in.o
 .text.mtd_get_user_prot_info
                0x0000000000000000       0x20 drivers/mtd/built-in.o
 .text.mtd_read_user_prot_reg
                0x0000000000000000       0x24 drivers/mtd/built-in.o
 .text.mtd_write_user_prot_reg
                0x0000000000000000       0x5c drivers/mtd/built-in.o
 .text.mtd_lock_user_prot_reg
                0x0000000000000000       0x20 drivers/mtd/built-in.o
 .text.mtd_lock
                0x0000000000000000       0x44 drivers/mtd/built-in.o
 .text.mtd_unlock
                0x0000000000000000       0x44 drivers/mtd/built-in.o
 .text.add_mtd_device
                0x0000000000000000      0x200 drivers/mtd/built-in.o
 .text.mtd_is_locked
                0x0000000000000000       0x44 drivers/mtd/built-in.o
 .text.mtd_block_isreserved
                0x0000000000000000       0x2c drivers/mtd/built-in.o
 .text.mtd_block_isbad
                0x0000000000000000       0x2c drivers/mtd/built-in.o
 .text.mtd_block_markbad
                0x0000000000000000       0x3c drivers/mtd/built-in.o
 .data          0x0000000000000000        0x0 drivers/mtd/built-in.o
 .bss           0x0000000000000000        0x0 drivers/mtd/built-in.o
 .bss.mtd_table
                0x0000000000000000      0x100 drivers/mtd/built-in.o
 .bss.mtd_idr   0x0000000000000000      0x400 drivers/mtd/built-in.o
 .text          0x0000000000000000        0x0 drivers/mtd/spi/built-in.o
 .data          0x0000000000000000        0x0 drivers/mtd/spi/built-in.o
 .bss           0x0000000000000000        0x0 drivers/mtd/spi/built-in.o
 .text          0x0000000000000000        0x0 drivers/net/built-in.o
 .text.e1000_check_mng_mode
                0x0000000000000000       0x34 drivers/net/built-in.o
 .data          0x0000000000000000        0x0 drivers/net/built-in.o
 .bss           0x0000000000000000        0x0 drivers/net/built-in.o
 .text          0x0000000000000000        0x0 drivers/net/phy/built-in.o
 .text.phy_set_supported
                0x0000000000000000       0x5c drivers/net/phy/built-in.o
 .text.miiphy_reset
                0x0000000000000000       0x30 drivers/net/phy/built-in.o
 .text.phy_shutdown
                0x0000000000000000       0x2c drivers/net/phy/built-in.o
 .data          0x0000000000000000        0x0 drivers/net/phy/built-in.o
 .bss           0x0000000000000000        0x0 drivers/net/phy/built-in.o
 .text          0x0000000000000000        0x0 drivers/pci/built-in.o
 .text.board_should_run_oprom
                0x0000000000000000        0x8 drivers/pci/built-in.o
 .text.board_should_load_oprom
                0x0000000000000000        0x8 drivers/pci/built-in.o
 .text.board_map_oprom_vendev
                0x0000000000000000        0x4 drivers/pci/built-in.o
 .text.vbe_get_video_info
                0x0000000000000000        0x8 drivers/pci/built-in.o
 .text.setup_video
                0x0000000000000000      0x108 drivers/pci/built-in.o
 .text.dm_pci_run_vga_bios
                0x0000000000000000      0x21c drivers/pci/built-in.o
 .text.skip_to_next_device
                0x0000000000000000       0x54 drivers/pci/built-in.o
 .text.pci_last_busno
                0x0000000000000000        0x4 drivers/pci/built-in.o
 .text.pci_bus_find_devices
                0x0000000000000000       0xa8 drivers/pci/built-in.o
 .text.pci_find_device_id
                0x0000000000000000       0x60 drivers/pci/built-in.o
 .text.dm_pci_find_device
                0x0000000000000000       0xac drivers/pci/built-in.o
 .text.pci_write_config
                0x0000000000000000       0x58 drivers/pci/built-in.o
 .text.pci_write_config32
                0x0000000000000000        0xc drivers/pci/built-in.o
 .text.pci_write_config16
                0x0000000000000000        0xc drivers/pci/built-in.o
 .text.pci_write_config8
                0x0000000000000000        0xc drivers/pci/built-in.o
 .text.pci_bus_clrset_config32
                0x0000000000000000       0x70 drivers/pci/built-in.o
 .text.pci_read_config
                0x0000000000000000       0x58 drivers/pci/built-in.o
 .text.pci_read_config32
                0x0000000000000000       0x34 drivers/pci/built-in.o
 .text.pci_read_config16
                0x0000000000000000       0x34 drivers/pci/built-in.o
 .text.pci_read_config8
                0x0000000000000000       0x34 drivers/pci/built-in.o
 .text.dm_pci_clrset_config8
                0x0000000000000000       0x5c drivers/pci/built-in.o
 .text.dm_pci_clrset_config16
                0x0000000000000000       0x5c drivers/pci/built-in.o
 .text.dm_pci_clrset_config32
                0x0000000000000000       0x58 drivers/pci/built-in.o
 .text.pci_find_next_device
                0x0000000000000000       0x74 drivers/pci/built-in.o
 .text.pci_find_first_device
                0x0000000000000000       0x3c drivers/pci/built-in.o
 .text.dm_pci_find_class
                0x0000000000000000       0x80 drivers/pci/built-in.o
 .text.pci_get_regions
                0x0000000000000000       0xfc drivers/pci/built-in.o
 .text.dm_pci_read_bar32
                0x0000000000000000       0x38 drivers/pci/built-in.o
 .text.dm_pci_write_bar32
                0x0000000000000000        0xc drivers/pci/built-in.o
 .text.pci_skip_dev
                0x0000000000000000       0x10 drivers/pci/built-in.o
 .data          0x0000000000000000        0x0 drivers/pci/built-in.o
 .bss           0x0000000000000000        0x0 drivers/pci/built-in.o
 .bss.mode_info
                0x0000000000000000      0x108 drivers/pci/built-in.o
 .text          0x0000000000000000        0x0 drivers/power/regulator/built-in.o
 .text.regulator_mode
                0x0000000000000000       0x3c drivers/power/regulator/built-in.o
 .text.regulator_get_value
                0x0000000000000000       0x40 drivers/power/regulator/built-in.o
 .text.regulator_set_value_force
                0x0000000000000000       0x48 drivers/power/regulator/built-in.o
 .text.regulator_get_current
                0x0000000000000000       0x40 drivers/power/regulator/built-in.o
 .text.regulator_set_current
                0x0000000000000000       0x88 drivers/power/regulator/built-in.o
 .text.regulator_get_enable
                0x0000000000000000       0x40 drivers/power/regulator/built-in.o
 .text.regulator_get_mode
                0x0000000000000000       0x40 drivers/power/regulator/built-in.o
 .text.regulator_set_mode
                0x0000000000000000       0x48 drivers/power/regulator/built-in.o
 .text.regulator_get_by_devname
                0x0000000000000000       0x10 drivers/power/regulator/built-in.o
 .text.regulator_autoset
                0x0000000000000000       0x84 drivers/power/regulator/built-in.o
 .text.regulator_autoset_by_name
                0x0000000000000000       0x3c drivers/power/regulator/built-in.o
 .text.regulator_list_autoset
                0x0000000000000000       0x98 drivers/power/regulator/built-in.o
 .text.regulators_enable_boot_on
                0x0000000000000000       0x88 drivers/power/regulator/built-in.o
 .data          0x0000000000000000        0x0 drivers/power/regulator/built-in.o
 .bss           0x0000000000000000        0x0 drivers/power/regulator/built-in.o
 .text          0x0000000000000000        0x0 drivers/serial/built-in.o
 .text.printascii
                0x0000000000000000       0x28 drivers/serial/built-in.o
 .text.printhex2
                0x0000000000000000       0x70 drivers/serial/built-in.o
 .text.printhex4
                0x0000000000000000       0x50 drivers/serial/built-in.o
 .text.printhex8
                0x0000000000000000       0x50 drivers/serial/built-in.o
 .text.debug_uart_init
                0x0000000000000000       0x40 drivers/serial/built-in.o
 .data          0x0000000000000000        0x0 drivers/serial/built-in.o
 .bss           0x0000000000000000        0x0 drivers/serial/built-in.o
 .text          0x0000000000000000        0x0 drivers/spi/built-in.o
 .text.spi_cs_info
                0x0000000000000000       0x74 drivers/spi/built-in.o
 .text.spi_cs_is_valid
                0x0000000000000000       0x44 drivers/spi/built-in.o
 .text.spi_setup_slave_fdt
                0x0000000000000000       0x54 drivers/spi/built-in.o
 .text.spi_setup_slave
                0x0000000000000000       0x30 drivers/spi/built-in.o
 .text.spi_free_slave
                0x0000000000000000       0x2c drivers/spi/built-in.o
 .data          0x0000000000000000        0x0 drivers/spi/built-in.o
 .bss           0x0000000000000000        0x0 drivers/spi/built-in.o
 .text          0x0000000000000000        0x0 drivers/usb/common/built-in.o
 .text.usb_get_dr_mode
                0x0000000000000000       0xa0 drivers/usb/common/built-in.o
 .rodata.str1.1
                0x0000000000000000       0x66 drivers/usb/common/built-in.o
 .rodata.usb_dr_modes
                0x0000000000000000       0x20 drivers/usb/common/built-in.o
 .rodata.__func__.6152
                0x0000000000000000       0x10 drivers/usb/common/built-in.o
 .data          0x0000000000000000        0x0 drivers/usb/common/built-in.o
 .bss           0x0000000000000000        0x0 drivers/usb/common/built-in.o
 .comment       0x0000000000000000       0x30 drivers/usb/common/built-in.o
 .note.GNU-stack
                0x0000000000000000        0x0 drivers/usb/common/built-in.o
 .debug_aranges
                0x0000000000000000       0x30 drivers/usb/common/built-in.o
 .debug_info    0x0000000000000000      0x75b drivers/usb/common/built-in.o
 .debug_abbrev  0x0000000000000000      0x1c5 drivers/usb/common/built-in.o
 .debug_line    0x0000000000000000      0x164 drivers/usb/common/built-in.o
 .debug_frame   0x0000000000000000       0x48 drivers/usb/common/built-in.o
 .debug_str     0x0000000000000000      0x76e drivers/usb/common/built-in.o
 .debug_loc     0x0000000000000000       0xc8 drivers/usb/common/built-in.o
 .debug_ranges  0x0000000000000000       0x20 drivers/usb/common/built-in.o
 .text          0x0000000000000000        0x0 drivers/usb/eth/built-in.o
 .text.usb_ocp_read
                0x0000000000000000        0x8 drivers/usb/eth/built-in.o
 .data          0x0000000000000000        0x0 drivers/usb/eth/built-in.o
 .bss           0x0000000000000000        0x0 drivers/usb/eth/built-in.o
 .text          0x0000000000000000        0x0 drivers/usb/host/built-in.o
 .text.create_int_queue
                0x0000000000000000       0x3c drivers/usb/host/built-in.o
 .text.poll_int_queue
                0x0000000000000000       0x2c drivers/usb/host/built-in.o
 .text.destroy_int_queue
                0x0000000000000000       0x2c drivers/usb/host/built-in.o
 .text.usb_setup_ehci_gadget
                0x0000000000000000       0x7c drivers/usb/host/built-in.o
 .text.usb_detect_change
                0x0000000000000000       0xac drivers/usb/host/built-in.o
 .rodata.default_ehci_ops
                0x0000000000000000       0x28 drivers/usb/host/built-in.o
 .data          0x0000000000000000        0x0 drivers/usb/host/built-in.o
 .bss           0x0000000000000000        0x0 drivers/usb/host/built-in.o
 .text          0x0000000000000000        0x0 fs/built-in.o
 .text.fs_uuid  0x0000000000000000       0x28 fs/built-in.o
 .text.do_fs_uuid
                0x0000000000000000       0x9c fs/built-in.o
 .text.print_revoke_blks
                0x0000000000000000       0x78 fs/built-in.o
 .text.fat_register_device
                0x0000000000000000       0x80 fs/built-in.o
 .text.file_fat_read
                0x0000000000000000       0x30 fs/built-in.o
 .text.file_getfsname
                0x0000000000000000       0x1c fs/built-in.o
 .text.file_cd  0x0000000000000000      0x1f4 fs/built-in.o
 .text.file_detectfs
                0x0000000000000000       0x48 fs/built-in.o
 .text.file_ls  0x0000000000000000       0x9c fs/built-in.o
 .text.file_read
                0x0000000000000000       0xb4 fs/built-in.o
 .rodata.filesystems
                0x0000000000000000       0x28 fs/built-in.o
 .data          0x0000000000000000        0x0 fs/built-in.o
 .data.file_cwd
                0x0000000000000000      0x200 fs/built-in.o
 .data.current_filesystem
                0x0000000000000000        0x4 fs/built-in.o
 .bss           0x0000000000000000        0x0 fs/built-in.o
 .bss.ext4fs_symlinknest
                0x0000000000000000        0x4 fs/built-in.o
 .text          0x0000000000000000        0x0 lib/built-in.o
 .text.invalidate_icache_all
                0x0000000000000000        0x4 lib/built-in.o
 .text.efi_add_runtime_mmio
                0x0000000000000000       0x68 lib/built-in.o
 .text.inflateInit_
                0x0000000000000000       0x10 lib/built-in.o
 .text.crc7     0x0000000000000000       0x34 lib/built-in.o
 .text.crc8     0x0000000000000000       0x48 lib/built-in.o
 .text.lmb_dump_all
                0x0000000000000000        0x4 lib/built-in.o
 .text.lmb_is_reserved
                0x0000000000000000       0x40 lib/built-in.o
 .text.arch_lmb_reserve
                0x0000000000000000        0x4 lib/built-in.o
 .text.rc4_encode
                0x0000000000000000       0xf0 lib/built-in.o
 .text.sha1_csum
                0x0000000000000000       0x48 lib/built-in.o
 .text.sha1_hmac
                0x0000000000000000      0x148 lib/built-in.o
 .text.sha1_self_test
                0x0000000000000000        0x8 lib/built-in.o
 .text.fdt_get_max_phandle
                0x0000000000000000       0x84 lib/built-in.o
 .text.fdt_get_alias
                0x0000000000000000       0x34 lib/built-in.o
 .text.fdt_get_path
                0x0000000000000000      0x158 lib/built-in.o
 .text.fdt_node_offset_by_prop_value
                0x0000000000000000       0xb0 lib/built-in.o
 .text.fdt_set_name
                0x0000000000000000       0xa8 lib/built-in.o
 .text.fdt_appendprop
                0x0000000000000000       0xf0 lib/built-in.o
 .text.fdt_pack
                0x0000000000000000       0x6c lib/built-in.o
 .text.fdt_remove_unused_strings
                0x0000000000000000       0xcc lib/built-in.o
 .text._fdt_sw_check_header
                0x0000000000000000       0x1c lib/built-in.o
 .text._fdt_grab_space
                0x0000000000000000       0x5c lib/built-in.o
 .text.fdt_create
                0x0000000000000000       0x70 lib/built-in.o
 .text.fdt_resize
                0x0000000000000000       0xdc lib/built-in.o
 .text.fdt_add_reservemap_entry
                0x0000000000000000       0x74 lib/built-in.o
 .text.fdt_finish_reservemap
                0x0000000000000000        0xc lib/built-in.o
 .text.fdt_begin_node
                0x0000000000000000       0x7c lib/built-in.o
 .text.fdt_end_node
                0x0000000000000000       0x40 lib/built-in.o
 .text.fdt_property_placeholder
                0x0000000000000000      0x114 lib/built-in.o
 .text.fdt_property
                0x0000000000000000       0x50 lib/built-in.o
 .text.fdt_finish
                0x0000000000000000      0x10c lib/built-in.o
 .text.fdt_setprop_inplace_namelen_partial
                0x0000000000000000       0x68 lib/built-in.o
 .text.fdt_setprop_inplace
                0x0000000000000000       0x88 lib/built-in.o
 .text.fdt_nop_property
                0x0000000000000000       0x48 lib/built-in.o
 .text.fdt_nop_node
                0x0000000000000000       0x64 lib/built-in.o
 .text.fdt_find_regions
                0x0000000000000000      0x368 lib/built-in.o
 .text.fdt_create_empty_tree
                0x0000000000000000       0x78 lib/built-in.o
 .text.fdt_add_region
                0x0000000000000000       0x80 lib/built-in.o
 .text.fdt_add_alias_regions
                0x0000000000000000      0x1a0 lib/built-in.o
 .text.fdt_next_region
                0x0000000000000000      0x4f0 lib/built-in.o
 .text.fdt_first_region
                0x0000000000000000       0x38 lib/built-in.o
 .text.fdtdec_get_compatible
                0x0000000000000000       0x10 lib/built-in.o
 .text.fdtdec_get_pci_vendev
                0x0000000000000000      0x108 lib/built-in.o
 .text.fdtdec_get_pci_bar32
                0x0000000000000000       0x44 lib/built-in.o
 .text.fdtdec_get_uint64
                0x0000000000000000       0x44 lib/built-in.o
 .text.fdtdec_lookup
                0x0000000000000000       0x60 lib/built-in.o
 .text.fdtdec_next_lookup
                0x0000000000000000       0x74 lib/built-in.o
 .text.fdtdec_next_compatible
                0x0000000000000000       0x10 lib/built-in.o
 .text.fdtdec_next_compatible_subnode
                0x0000000000000000       0x78 lib/built-in.o
 .text.fdtdec_next_alias
                0x0000000000000000       0xa0 lib/built-in.o
 .text.fdtdec_add_aliases_for_id
                0x0000000000000000      0x244 lib/built-in.o
 .text.fdtdec_find_aliases_for_id
                0x0000000000000000       0x60 lib/built-in.o
 .text.fdtdec_check_fdt
                0x0000000000000000       0x18 lib/built-in.o
 .text.fdtdec_lookup_phandle
                0x0000000000000000       0x44 lib/built-in.o
 .text.decode_timing_property
                0x0000000000000000       0x8c lib/built-in.o
 .text.fdtdec_locate_array
                0x0000000000000000       0x28 lib/built-in.o
 .text.fdtdec_get_child_count
                0x0000000000000000       0x40 lib/built-in.o
 .text.fdtdec_get_byte_array
                0x0000000000000000       0x48 lib/built-in.o
 .text.fdtdec_locate_byte_array
                0x0000000000000000       0x24 lib/built-in.o
 .text.fdtdec_get_config_bool
                0x0000000000000000       0x54 lib/built-in.o
 .text.fdtdec_decode_region
                0x0000000000000000       0x64 lib/built-in.o
 .text.fdtdec_read_fmap_entry
                0x0000000000000000       0xd4 lib/built-in.o
 .text.fdtdec_get_addr_size_auto_parent
                0x0000000000000000       0xa8 lib/built-in.o
 .text.fdtdec_get_addr_size_auto_noparent
                0x0000000000000000       0x7c lib/built-in.o
 .text.fdtdec_get_addr
                0x0000000000000000        0x8 lib/built-in.o
 .text.fdt_get_resource
                0x0000000000000000      0x10c lib/built-in.o
 .text.fdt_get_named_resource
                0x0000000000000000       0x64 lib/built-in.o
 .text.fdtdec_decode_memory_region
                0x0000000000000000      0x130 lib/built-in.o
 .text.fdtdec_decode_display_timing
                0x0000000000000000      0x308 lib/built-in.o
 .text.fdtdec_setup_memory_size
                0x0000000000000000       0x60 lib/built-in.o
 .text.fdtdec_setup_memory_banksize
                0x0000000000000000       0xb8 lib/built-in.o
 .text.print_freq
                0x0000000000000000      0x154 lib/built-in.o
 .text.copy_from_user
                0x0000000000000000       0x18 lib/built-in.o
 .text.get_mem  0x0000000000000000       0x2c lib/built-in.o
 .text.kmem_cache_alloc
                0x0000000000000000        0xc lib/built-in.o
 .text.membuff_purge
                0x0000000000000000        0xc lib/built-in.o
 .text.membuff_putraw
                0x0000000000000000       0xa0 lib/built-in.o
 .text.membuff_putbyte
                0x0000000000000000       0x3c lib/built-in.o
 .text.membuff_getraw
                0x0000000000000000       0x84 lib/built-in.o
 .text.membuff_getbyte
                0x0000000000000000       0x3c lib/built-in.o
 .text.membuff_peekbyte
                0x0000000000000000       0x3c lib/built-in.o
 .text.membuff_get
                0x0000000000000000       0x9c lib/built-in.o
 .text.membuff_put
                0x0000000000000000       0x84 lib/built-in.o
 .text.membuff_isempty
                0x0000000000000000       0x10 lib/built-in.o
 .text.membuff_avail
                0x0000000000000000       0x54 lib/built-in.o
 .text.membuff_size
                0x0000000000000000       0x10 lib/built-in.o
 .text.membuff_makecontig
                0x0000000000000000       0x9c lib/built-in.o
 .text.membuff_free
                0x0000000000000000       0x3c lib/built-in.o
 .text.membuff_readline
                0x0000000000000000       0xa8 lib/built-in.o
 .text.membuff_extend_by
                0x0000000000000000       0xe4 lib/built-in.o
 .text.membuff_init
                0x0000000000000000       0x10 lib/built-in.o
 .text.membuff_new
                0x0000000000000000       0x48 lib/built-in.o
 .text.membuff_uninit
                0x0000000000000000        0xc lib/built-in.o
 .text.membuff_dispose
                0x0000000000000000       0x28 lib/built-in.o
 .text.strcasecmp
                0x0000000000000000        0x8 lib/built-in.o
 .text.strsep   0x0000000000000000       0x40 lib/built-in.o
 .text.strswab  0x0000000000000000       0x44 lib/built-in.o
 .text.memscan  0x0000000000000000       0x24 lib/built-in.o
 .text.memchr_inv
                0x0000000000000000      0x104 lib/built-in.o
 .text.table_compute_checksum
                0x0000000000000000       0x2c lib/built-in.o
 .text.get_ticks
                0x0000000000000000       0x40 lib/built-in.o
 .text.rand     0x0000000000000000        0xc lib/built-in.o
 .text.srand    0x0000000000000000        0xc lib/built-in.o
 .text.vsnprintf
                0x0000000000000000       0x50 lib/built-in.o
 .text.scnprintf
                0x0000000000000000       0x74 lib/built-in.o
 .text.__assert_fail
                0x0000000000000000       0x18 lib/built-in.o
 .text.print_grouped_ull
                0x0000000000000000       0x9c lib/built-in.o
 .text.str2long
                0x0000000000000000       0x50 lib/built-in.o
 .text.strmhz   0x0000000000000000       0x70 lib/built-in.o
 .rodata.z_errmsg
                0x0000000000000000       0x50 lib/built-in.o
 .rodata.crc7_syndrome_table
                0x0000000000000000      0x100 lib/built-in.o
 .rodata.sha1_der_prefix
                0x0000000000000000       0x10 lib/built-in.o
 .rodata.sha256_der_prefix
                0x0000000000000000       0x18 lib/built-in.o
 .rodata.fdt_find_regions
                0x0000000000000000       0x14 lib/built-in.o
 .rodata.fdt_next_region
                0x0000000000000000       0x14 lib/built-in.o
 .rodata.compat_names
                0x0000000000000000      0x150 lib/built-in.o
 .rodata.names.5801
                0x0000000000000000        0x8 lib/built-in.o
 .data          0x0000000000000000        0x0 lib/built-in.o
 .data.cur      0x0000000000000000        0x8 lib/built-in.o
 .data.current  0x0000000000000000        0x8 lib/built-in.o
 .data.y        0x0000000000000000        0x4 lib/built-in.o
 .bss           0x0000000000000000        0x0 lib/built-in.o
 .text          0x0000000000000000        0x0 net/built-in.o
 .text.add_ip_checksums
                0x0000000000000000       0x40 net/built-in.o
 .text.eth_init_state_only
                0x0000000000000000       0x38 net/built-in.o
 .text.eth_is_active
                0x0000000000000000       0x40 net/built-in.o
 .text.net_get_udp_handler
                0x0000000000000000        0xc net/built-in.o
 .text.net_set_arp_handler
                0x0000000000000000       0x18 net/built-in.o
 .text.random_port
                0x0000000000000000       0x20 net/built-in.o
 .text.vlan_to_string
                0x0000000000000000       0x40 net/built-in.o
 .text.getenv_vlan
                0x0000000000000000       0x14 net/built-in.o
 .data          0x0000000000000000        0x0 net/built-in.o
 .data.tftp_timeout_ms
                0x0000000000000000        0x8 net/built-in.o
 .bss           0x0000000000000000        0x0 net/built-in.o
 .bss.net_busy_flag
                0x0000000000000000        0x4 net/built-in.o
 .text          0x0000000000000000        0x0 test/dm/built-in.o
 .data          0x0000000000000000        0x0 test/dm/built-in.o
 .bss           0x0000000000000000        0x0 test/dm/built-in.o

Memory Configuration

Name             Origin             Length             Attributes
*default*        0x0000000000000000 0xffffffffffffffff

Linker script and memory map

Address of section .text set to 0x0
                0x0000000000000000                . = 0x0
                0x0000000000000000                . = ALIGN (0x8)

.text           0x0000000000000000    0x5e3a4
 *(.__image_copy_start)
 .__image_copy_start
                0x0000000000000000        0x0 arch/arm/lib/built-in.o
                0x0000000000000000                __image_copy_start
 arch/arm/cpu/armv8/start.o(.text*)
 .text          0x0000000000000000      0x100 arch/arm/cpu/armv8/start.o
                0x0000000000000000                _start
                0x0000000000000008                _TEXT_BASE
                0x0000000000000010                _end_ofs
                0x0000000000000018                _bss_start_ofs
                0x0000000000000020                _bss_end_ofs
                0x000000000000002c                save_boot_params_ret
                0x000000000000008c                apply_core_errata
                0x00000000000000b0                lowlevel_init
                0x00000000000000bc                smp_kick_all_cpus
                0x00000000000000c0                c_runtime_cpu_setup
                0x00000000000000f8                save_boot_params
 *(.text*)
 *fill*         0x0000000000000100      0x700 
 .text          0x0000000000000800     0x13e0 arch/arm/cpu/armv8/built-in.o
                0x0000000000000800                vectors
                0x0000000000001800                __asm_dcache_level
                0x0000000000001864                __asm_dcache_all
                0x00000000000018c4                __asm_flush_dcache_all
                0x00000000000018cc                __asm_invalidate_dcache_all
                0x00000000000018d4                __asm_flush_dcache_range
                0x0000000000001908                __asm_invalidate_icache_all
                0x0000000000001914                __asm_invalidate_l3_dcache
                0x000000000000191c                __asm_flush_l3_dcache
                0x0000000000001924                __asm_invalidate_l3_icache
                0x000000000000192c                __asm_switch_ttbr
                0x0000000000001a0c                __asm_invalidate_tlb_all
                0x0000000000001a58                armv8_switch_to_el2
                0x0000000000001ae4                armv8_switch_to_el1
                0x0000000000001b88                armv8_el2_to_aarch32
 .text.cleanup_before_linux
                0x0000000000001be0       0x28 arch/arm/cpu/armv8/built-in.o
                0x0000000000001be0                cleanup_before_linux
 .text.get_tbclk
                0x0000000000001c08        0x8 arch/arm/cpu/armv8/built-in.o
                0x0000000000001c08                get_tbclk
 .text.get_ticks
                0x0000000000001c10       0x10 arch/arm/cpu/armv8/built-in.o
                0x0000000000001c10                get_ticks
 .text.count_required_pts
                0x0000000000001c20       0xf8 arch/arm/cpu/armv8/built-in.o
 .text.create_table
                0x0000000000001d18       0x70 arch/arm/cpu/armv8/built-in.o
 .text.split_block
                0x0000000000001d88       0x90 arch/arm/cpu/armv8/built-in.o
 .text.get_tcr  0x0000000000001e18       0xe4 arch/arm/cpu/armv8/built-in.o
                0x0000000000001e18                get_tcr
 .text.find_pte
                0x0000000000001efc       0x8c arch/arm/cpu/armv8/built-in.o
 .text.get_page_table_size
                0x0000000000001f88       0x48 arch/arm/cpu/armv8/built-in.o
                0x0000000000001f88                get_page_table_size
 .text.setup_pgtables
                0x0000000000001fd0      0x160 arch/arm/cpu/armv8/built-in.o
                0x0000000000001fd0                setup_pgtables
 .text.mmu_setup
                0x0000000000002130      0x140 arch/arm/cpu/armv8/built-in.o
                0x0000000000002130                mmu_setup
 .text.invalidate_dcache_all
                0x0000000000002270       0x14 arch/arm/cpu/armv8/built-in.o
                0x0000000000002270                invalidate_dcache_all
 .text.flush_dcache_all
                0x0000000000002284       0x14 arch/arm/cpu/armv8/built-in.o
                0x0000000000002284                flush_dcache_all
 .text.invalidate_dcache_range
                0x0000000000002298        0x4 arch/arm/cpu/armv8/built-in.o
                0x0000000000002298                invalidate_dcache_range
 .text.flush_dcache_range
                0x000000000000229c        0x4 arch/arm/cpu/armv8/built-in.o
                0x000000000000229c                flush_dcache_range
 .text.dcache_enable
                0x00000000000022a0       0xac arch/arm/cpu/armv8/built-in.o
                0x00000000000022a0                dcache_enable
 .text.dcache_disable
                0x000000000000234c       0x84 arch/arm/cpu/armv8/built-in.o
                0x000000000000234c                dcache_disable
 .text.dcache_status
                0x00000000000023d0       0x34 arch/arm/cpu/armv8/built-in.o
                0x00000000000023d0                dcache_status
 .text.mmu_set_region_dcache_behaviour
                0x0000000000002404      0x118 arch/arm/cpu/armv8/built-in.o
                0x0000000000002404                mmu_set_region_dcache_behaviour
 .text.icache_disable
                0x000000000000251c       0x64 arch/arm/cpu/armv8/built-in.o
                0x000000000000251c                icache_disable
 .text.icache_status
                0x0000000000002580       0x34 arch/arm/cpu/armv8/built-in.o
                0x0000000000002580                icache_status
 .text.invalidate_icache_all
                0x00000000000025b4       0x14 arch/arm/cpu/armv8/built-in.o
                0x00000000000025b4                invalidate_icache_all
 .text.icache_enable
                0x00000000000025c8       0x74 arch/arm/cpu/armv8/built-in.o
                0x00000000000025c8                icache_enable
 .text.enable_caches
                0x000000000000263c       0x14 arch/arm/cpu/armv8/built-in.o
                0x000000000000263c                enable_caches
 .text.reset_misc
                0x0000000000002650        0xc arch/arm/cpu/armv8/built-in.o
                0x0000000000002650                reset_misc
 *fill*         0x000000000000265c        0x4 
 .text          0x0000000000002660      0x1b4 arch/arm/lib/built-in.o
                0x0000000000002660                _main
                0x00000000000026e8                relocate_code
                0x00000000000027c0                ccn504_add_masters_to_dvm
                0x00000000000027dc                ccn504_set_qos
                0x00000000000027f0                ccn504_set_aux
                0x0000000000002804                gic_init_secure
                0x0000000000002808                gic_init_secure_percpu
                0x000000000000280c                gic_kick_secondary_cpus
                0x0000000000002810                gic_wait_for_interrupt
 .text.arch_fixup_fdt
                0x0000000000002814       0x4c arch/arm/lib/built-in.o
                0x0000000000002814                arch_fixup_fdt
 .text.arch_lmb_reserve
                0x0000000000002860       0x24 arch/arm/lib/built-in.o
                0x0000000000002860                arch_lmb_reserve
 .text.board_quiesce_devices
                0x0000000000002884        0x4 arch/arm/lib/built-in.o
                0x0000000000002884                board_quiesce_devices
 .text.setup_board_tags
                0x0000000000002888        0x4 arch/arm/lib/built-in.o
                0x0000000000002888                setup_board_tags
 .text.boot_prep_linux
                0x000000000000288c      0x1b4 arch/arm/lib/built-in.o
 .text.update_os_arch_secondary_cores
                0x0000000000002a40        0x4 arch/arm/lib/built-in.o
                0x0000000000002a40                update_os_arch_secondary_cores
 .text.boot_jump_linux
                0x0000000000002a44       0xc8 arch/arm/lib/built-in.o
 .text.do_bootm_linux
                0x0000000000002b0c       0x7c arch/arm/lib/built-in.o
                0x0000000000002b0c                do_bootm_linux
 .text.boot_prep_vxworks
                0x0000000000002b88       0x50 arch/arm/lib/built-in.o
                0x0000000000002b88                boot_prep_vxworks
 .text.boot_jump_vxworks
                0x0000000000002bd8        0xc arch/arm/lib/built-in.o
                0x0000000000002bd8                boot_jump_vxworks
 .text.arch_reserve_stacks
                0x0000000000002be4       0x10 arch/arm/lib/built-in.o
                0x0000000000002be4                arch_reserve_stacks
 .text.interrupt_init
                0x0000000000002bf4        0x8 arch/arm/lib/built-in.o
                0x0000000000002bf4                interrupt_init
 .text.enable_interrupts
                0x0000000000002bfc        0x4 arch/arm/lib/built-in.o
                0x0000000000002bfc                enable_interrupts
 .text.disable_interrupts
                0x0000000000002c00        0x8 arch/arm/lib/built-in.o
                0x0000000000002c00                disable_interrupts
 .text.show_regs
                0x0000000000002c08       0x80 arch/arm/lib/built-in.o
                0x0000000000002c08                show_regs
 .text.do_bad_sync
                0x0000000000002c88       0x3c arch/arm/lib/built-in.o
                0x0000000000002c88                do_bad_sync
 .text.do_bad_irq
                0x0000000000002cc4       0x3c arch/arm/lib/built-in.o
                0x0000000000002cc4                do_bad_irq
 .text.do_bad_fiq
                0x0000000000002d00       0x3c arch/arm/lib/built-in.o
                0x0000000000002d00                do_bad_fiq
 .text.do_bad_error
                0x0000000000002d3c       0x3c arch/arm/lib/built-in.o
                0x0000000000002d3c                do_bad_error
 .text.do_sync  0x0000000000002d78       0x3c arch/arm/lib/built-in.o
                0x0000000000002d78                do_sync
 .text.do_irq   0x0000000000002db4       0x3c arch/arm/lib/built-in.o
                0x0000000000002db4                do_irq
 .text.do_fiq   0x0000000000002df0       0x3c arch/arm/lib/built-in.o
                0x0000000000002df0                do_fiq
 .text.do_error
                0x0000000000002e2c       0x3c arch/arm/lib/built-in.o
                0x0000000000002e2c                do_error
 .text.do_reset
                0x0000000000002e68       0x38 arch/arm/lib/built-in.o
                0x0000000000002e68                do_reset
 .text.flush_cache
                0x0000000000002ea0        0x8 arch/arm/lib/built-in.o
                0x0000000000002ea0                flush_cache
 .text.reset_cpu
                0x0000000000002ea8       0x18 arch/arm/mach-mvebu/built-in.o
                0x0000000000002ea8                reset_cpu
 .text.get_ref_clk
                0x0000000000002ec0       0x28 arch/arm/mach-mvebu/built-in.o
                0x0000000000002ec0                get_ref_clk
 .text.print_cpuinfo
                0x0000000000002ee8       0x18 arch/arm/mach-mvebu/built-in.o
                0x0000000000002ee8                print_cpuinfo
 .text.mvebu_dram_init
                0x0000000000002f00      0x124 arch/arm/mach-mvebu/built-in.o
                0x0000000000002f00                mvebu_dram_init
 .text.mvebu_dram_init_banksize
                0x0000000000003024      0x194 arch/arm/mach-mvebu/built-in.o
                0x0000000000003024                mvebu_dram_init_banksize
 .text.get_tbg_clk
                0x00000000000031b8       0xe0 arch/arm/mach-mvebu/built-in.o
 .text.soc_cpu_clk_get
                0x0000000000003298       0x70 arch/arm/mach-mvebu/built-in.o
                0x0000000000003298                soc_cpu_clk_get
 .text.soc_ddr_clk_get
                0x0000000000003308       0x44 arch/arm/mach-mvebu/built-in.o
                0x0000000000003308                soc_ddr_clk_get
 .text.soc_print_clock_info
                0x000000000000334c       0x54 arch/arm/mach-mvebu/built-in.o
                0x000000000000334c                soc_print_clock_info
 .text.get_memory_reg_prop
                0x00000000000033a0       0x54 arch/arm/mach-mvebu/built-in.o
 .text.board_get_usable_ram_top
                0x00000000000033f4       0x18 arch/arm/mach-mvebu/built-in.o
                0x00000000000033f4                board_get_usable_ram_top
 .text.mvebu_mbus_dram_info
                0x000000000000340c        0x8 arch/arm/mach-mvebu/built-in.o
                0x000000000000340c                mvebu_mbus_dram_info
 .text.dram_init
                0x0000000000003414        0x4 arch/arm/mach-mvebu/built-in.o
                0x0000000000003414                dram_init
 .text.dram_init_banksize
                0x0000000000003418        0x4 arch/arm/mach-mvebu/built-in.o
                0x0000000000003418                dram_init_banksize
 .text.arch_cpu_init
                0x000000000000341c        0x8 arch/arm/mach-mvebu/built-in.o
                0x000000000000341c                arch_cpu_init
 .text.arch_early_init_r
                0x0000000000003424       0x84 arch/arm/mach-mvebu/built-in.o
                0x0000000000003424                arch_early_init_r
 .text.mvebu_ahci_probe
                0x00000000000034a8       0x30 arch/arm/mach-mvebu/built-in.o
 .text.get_info
                0x00000000000034d8       0x4c arch/arm/mach-mvebu/built-in.o
                0x00000000000034d8                get_info
 .text.sys_info_init
                0x0000000000003524       0x68 arch/arm/mach-mvebu/built-in.o
                0x0000000000003524                sys_info_init
 .text.board_early_init_f
                0x000000000000358c       0x18 board/Marvell/mvebu_armada-37xx/built-in.o
                0x000000000000358c                board_early_init_f
 .text.board_usb3_vbus_init
                0x00000000000035a4       0x6c board/Marvell/mvebu_armada-37xx/built-in.o
                0x00000000000035a4                board_usb3_vbus_init
 .text.board_init
                0x0000000000003610      0x120 board/Marvell/mvebu_armada-37xx/built-in.o
                0x0000000000003610                board_init
 .text.board_ahci_enable
                0x0000000000003730       0x70 board/Marvell/mvebu_armada-37xx/built-in.o
                0x0000000000003730                board_ahci_enable
 .text.do_go_exec
                0x00000000000037a0       0x10 cmd/built-in.o
                0x00000000000037a0                do_go_exec
 .text.do_go    0x00000000000037b0       0x84 cmd/built-in.o
 .text.do_bootm
                0x0000000000003834      0x110 cmd/built-in.o
                0x0000000000003834                do_bootm
 .text.do_bootd
                0x0000000000003944       0x2c cmd/built-in.o
                0x0000000000003944                do_bootd
 .text.image_info
                0x0000000000003970       0xdc cmd/built-in.o
 .text.do_iminfo
                0x0000000000003a4c       0x74 cmd/built-in.o
 .text.bootm_maybe_autostart
                0x0000000000003ac0       0x74 cmd/built-in.o
                0x0000000000003ac0                bootm_maybe_autostart
 .text.do_help  0x0000000000003b34       0x3c cmd/built-in.o
 .text.do_version
                0x0000000000003b70       0x48 cmd/built-in.o
 .text.source   0x0000000000003bb8       0xf0 cmd/built-in.o
                0x0000000000003bb8                source
 .text.do_source
                0x0000000000003ca8       0x54 cmd/built-in.o
 .text.print_num
                0x0000000000003cfc       0x14 cmd/built-in.o
 .text.do_bdinfo
                0x0000000000003d10      0x11c cmd/built-in.o
 .text.do_blkcache
                0x0000000000003e2c       0x80 cmd/built-in.o
 .text.blkc_configure
                0x0000000000003eac       0x78 cmd/built-in.o
 .text.blkc_show
                0x0000000000003f24       0x34 cmd/built-in.o
 .text.bootefi_open_dp
                0x0000000000003f58       0x14 cmd/built-in.o
 .text.efi_run_in_el2
                0x0000000000003f6c       0x3c cmd/built-in.o
 .text.do_bootefi_exec
                0x0000000000003fa8      0x2f8 cmd/built-in.o
 .text.do_bootefi
                0x00000000000042a0       0xa4 cmd/built-in.o
 .text.efi_set_bootdev
                0x0000000000004344      0x194 cmd/built-in.o
                0x0000000000004344                efi_set_bootdev
 .text.do_booti
                0x00000000000044d8      0x16c cmd/built-in.o
                0x00000000000044d8                do_booti
 .text.parse_argv
                0x0000000000004644       0x64 cmd/built-in.o
 .text.do_icache
                0x00000000000046a8       0x94 cmd/built-in.o
 .text.do_dcache
                0x000000000000473c       0x94 cmd/built-in.o
 .text.do_coninfo
                0x00000000000047d0       0xe4 cmd/built-in.o
 .text.do_echo  0x00000000000048b4       0xdc cmd/built-in.o
 .text.load_elf_image_shdr
                0x0000000000004990       0xa8 cmd/built-in.o
 .text.valid_elf_image
                0x0000000000004a38       0x54 cmd/built-in.o
                0x0000000000004a38                valid_elf_image
 .text.do_bootelf
                0x0000000000004a8c      0x190 cmd/built-in.o
                0x0000000000004a8c                do_bootelf
 .text.do_bootvx
                0x0000000000004c1c      0x370 cmd/built-in.o
                0x0000000000004c1c                do_bootvx
 .text.do_exit  0x0000000000004f8c       0x40 cmd/built-in.o
 .text.do_ext4_size
                0x0000000000004fcc        0x8 cmd/built-in.o
                0x0000000000004fcc                do_ext4_size
 .text.do_ext4_load
                0x0000000000004fd4        0x8 cmd/built-in.o
                0x0000000000004fd4                do_ext4_load
 .text.do_ext4_ls
                0x0000000000004fdc        0x8 cmd/built-in.o
                0x0000000000004fdc                do_ext4_ls
 .text.do_ext4_write
                0x0000000000004fe4        0x8 cmd/built-in.o
                0x0000000000004fe4                do_ext4_write
 .text.do_fat_size
                0x0000000000004fec        0x8 cmd/built-in.o
                0x0000000000004fec                do_fat_size
 .text.do_fat_fsload
                0x0000000000004ff4        0x8 cmd/built-in.o
                0x0000000000004ff4                do_fat_fsload
 .text.do_fat_ls
                0x0000000000004ffc        0x8 cmd/built-in.o
 .text.do_fat_fsinfo
                0x0000000000005004       0x98 cmd/built-in.o
 .text.fdt_valid
                0x000000000000509c       0xcc cmd/built-in.o
 .text.is_printable_string
                0x0000000000005168       0xa0 cmd/built-in.o
 .text.print_data
                0x0000000000005208      0x1b4 cmd/built-in.o
 .text.set_working_fdt_addr
                0x00000000000053bc       0x18 cmd/built-in.o
                0x00000000000053bc                set_working_fdt_addr
 .text.do_fdt   0x00000000000053d4      0xea4 cmd/built-in.o
 .text.do_size_wrapper
                0x0000000000006278        0x8 cmd/built-in.o
 .text.do_load_wrapper
                0x0000000000006280       0x80 cmd/built-in.o
 .text.do_save_wrapper
                0x0000000000006300        0x8 cmd/built-in.o
 .text.do_ls_wrapper
                0x0000000000006308        0x8 cmd/built-in.o
 .text.do_fstype_wrapper
                0x0000000000006310        0x4 cmd/built-in.o
 .text.gpio_get_description
                0x0000000000006314       0xd4 cmd/built-in.o
 .text.do_gpio  0x00000000000063e8      0x368 cmd/built-in.o
 .text.do_i2c   0x0000000000006750       0x80 cmd/built-in.o
 .text.i2c_get_cur_bus
                0x00000000000067d0       0x38 cmd/built-in.o
 .text.do_i2c_bus_speed
                0x0000000000006808       0xac cmd/built-in.o
 .text.do_i2c_reset
                0x00000000000068b4       0x44 cmd/built-in.o
 .text.i2c_get_cur_bus_chip
                0x00000000000068f8       0x40 cmd/built-in.o
 .text.do_i2c_olen
                0x0000000000006938       0xb8 cmd/built-in.o
 .text.do_i2c_flags
                0x00000000000069f0       0xc0 cmd/built-in.o
 .text.do_i2c_probe
                0x0000000000006ab0       0xc8 cmd/built-in.o
 .text.do_i2c_bus_num
                0x0000000000006b78       0xb0 cmd/built-in.o
 .text.show_bus
                0x0000000000006c28       0x98 cmd/built-in.o
 .text.do_i2c_show_bus
                0x0000000000006cc0       0xbc cmd/built-in.o
 .text.get_alen.constprop.4
                0x0000000000006d7c       0x38 cmd/built-in.o
 .text.do_i2c_crc
                0x0000000000006db4      0x180 cmd/built-in.o
 .text.mod_i2c_mem.isra.1
                0x0000000000006f34      0x258 cmd/built-in.o
 .text.do_i2c_nm
                0x000000000000718c        0x8 cmd/built-in.o
 .text.do_i2c_mm
                0x0000000000007194        0x8 cmd/built-in.o
 .text.do_i2c_md
                0x000000000000719c      0x220 cmd/built-in.o
 .text.do_i2c_read
                0x00000000000073bc      0x10c cmd/built-in.o
 .text.do_i2c_mw
                0x00000000000074c8      0x13c cmd/built-in.o
 .text.do_i2c_write
                0x0000000000007604      0x1b0 cmd/built-in.o
 .text.do_i2c_loop
                0x00000000000077b4      0x148 cmd/built-in.o
 .text.evalexp  0x00000000000078fc       0x90 cmd/built-in.o
 .text.evalstr  0x000000000000798c       0x68 cmd/built-in.o
 .text.binary_test
                0x00000000000079f4      0x1ac cmd/built-in.o
 .text.do_itest
                0x0000000000007ba0       0x90 cmd/built-in.o
 .text.bin_data_init
                0x0000000000007c30       0x1c cmd/built-in.o
 .text.k_data_save
                0x0000000000007c4c       0x34 cmd/built-in.o
 .text.k_data_restore
                0x0000000000007c80       0x34 cmd/built-in.o
 .text.getcxmodem
                0x0000000000007cb4       0x24 cmd/built-in.o
 .text.load_serial_ymodem
                0x0000000000007cd8       0xec cmd/built-in.o
 .text.bin_data_char
                0x0000000000007dc4       0x28 cmd/built-in.o
 .text.chk1.constprop.1
                0x0000000000007dec       0x34 cmd/built-in.o
 .text.s1_sendpacket.constprop.2
                0x0000000000007e20       0x60 cmd/built-in.o
 .text.load_serial
                0x0000000000007e80      0x1f0 cmd/built-in.o
 .text.do_load_serial
                0x0000000000008070       0xe8 cmd/built-in.o
 .text.do_load_serial_bin
                0x0000000000008158      0x7cc cmd/built-in.o
 .text.do_mem_base
                0x0000000000008924       0x4c cmd/built-in.o
 .text.do_ir    0x0000000000008970      0x218 cmd/built-in.o
                0x0000000000008970                do_ir
 .text.do_mem_cmp
                0x0000000000008b88      0x1ac cmd/built-in.o
 .text.do_mem_loop
                0x0000000000008d34      0x144 cmd/built-in.o
 .text.do_mem_md
                0x0000000000008e78       0xec cmd/built-in.o
 .text.do_mem_mw
                0x0000000000008f64      0x100 cmd/built-in.o
 .text.do_mem_cp
                0x0000000000009064       0xc8 cmd/built-in.o
 .text.do_mem_crc
                0x000000000000912c       0x30 cmd/built-in.o
 .text.mod_mem.isra.0
                0x000000000000915c      0x1d4 cmd/built-in.o
 .text.do_mem_mm
                0x0000000000009330        0x8 cmd/built-in.o
 .text.do_mem_nm
                0x0000000000009338        0x8 cmd/built-in.o
 .text.do_mem_mtest
                0x0000000000009340      0x554 cmd/built-in.o
 .text.extract_range
                0x0000000000009894       0xf8 cmd/built-in.o
 .text.do_mii   0x000000000000998c      0x8ec cmd/built-in.o
 .text.do_mdio  0x000000000000a278      0x4b4 cmd/built-in.o
 .text.do_sleep
                0x000000000000a72c       0xe0 cmd/built-in.o
 .text.do_mmcops
                0x000000000000a80c       0xd4 cmd/built-in.o
 .text.init_mmc_device
                0x000000000000a8e0       0x64 cmd/built-in.o
 .text.do_mmc_rescan
                0x000000000000a944       0x28 cmd/built-in.o
 .text.do_mmc_hwpartition
                0x000000000000a96c      0x50c cmd/built-in.o
 .text.do_mmc_list
                0x000000000000ae78       0x1c cmd/built-in.o
 .text.do_mmc_dev
                0x000000000000ae94      0x150 cmd/built-in.o
 .text.do_mmc_part
                0x000000000000afe4       0x6c cmd/built-in.o
 .text.do_mmc_erase
                0x000000000000b050      0x108 cmd/built-in.o
 .text.do_mmc_write
                0x000000000000b158      0x120 cmd/built-in.o
 .text.do_mmc_read
                0x000000000000b278      0x108 cmd/built-in.o
 .text.do_mmcinfo
                0x000000000000b380      0x38c cmd/built-in.o
 .text.do_mmc_setdsr
                0x000000000000b70c       0xbc cmd/built-in.o
 .text.netboot_common
                0x000000000000b7c8      0x270 cmd/built-in.o
 .text.do_bootp
                0x000000000000ba38        0xc cmd/built-in.o
 .text.do_dhcp  0x000000000000ba44        0xc cmd/built-in.o
 .text.do_nfs   0x000000000000ba50        0xc cmd/built-in.o
 .text.do_tftpb
                0x000000000000ba5c       0x58 cmd/built-in.o
                0x000000000000ba5c                do_tftpb
 .text.do_ping  0x000000000000bab4       0x7c cmd/built-in.o
 .text.do_part_list
                0x000000000000bb30      0x190 cmd/built-in.o
 .text.do_part_start
                0x000000000000bcc0       0xd4 cmd/built-in.o
 .text.do_part_size
                0x000000000000bd94       0xd4 cmd/built-in.o
 .text.do_part  0x000000000000be68      0x118 cmd/built-in.o
 .text.pci_show_regs
                0x000000000000bf80       0xac cmd/built-in.o
 .text.pci_cfg_modify.isra.0
                0x000000000000c02c      0x138 cmd/built-in.o
 .text.pci_bar_show
                0x000000000000c164      0x1e4 cmd/built-in.o
                0x000000000000c164                pci_bar_show
 .text.pci_header_show
                0x000000000000c348       0xd4 cmd/built-in.o
                0x000000000000c348                pci_header_show
 .text.pciinfo_header
                0x000000000000c41c       0x50 cmd/built-in.o
                0x000000000000c41c                pciinfo_header
 .text.do_pci   0x000000000000c46c      0x4f4 cmd/built-in.o
 .text.bytes_per_second
                0x000000000000c960       0x4c cmd/built-in.o
 .text.spi_flash_update
                0x000000000000c9ac      0x258 cmd/built-in.o
                0x000000000000c9ac                spi_flash_update
 .text.do_spi_flash
                0x000000000000cc04      0x5ac cmd/built-in.o
 .text.do_scsi  0x000000000000d1b0      0x368 cmd/built-in.o
 .text.do_scsiboot
                0x000000000000d518        0xc cmd/built-in.o
 .text.common_diskboot
                0x000000000000d524      0x23c cmd/built-in.o
                0x000000000000d524                common_diskboot
 .text.do_spi   0x000000000000d760      0x2b4 cmd/built-in.o
                0x000000000000d760                do_spi
 .text.do_time  0x000000000000da14       0xbc cmd/built-in.o
 .text.do_false
                0x000000000000dad0        0x8 cmd/built-in.o
 .text.do_true  0x000000000000dad8        0x8 cmd/built-in.o
 .text.do_test  0x000000000000dae0      0x328 cmd/built-in.o
 .text.usb_get_class_desc
                0x000000000000de08       0xc0 cmd/built-in.o
 .text.usb_display_class_sub
                0x000000000000dec8      0x18c cmd/built-in.o
 .text.usb_show_tree_graph
                0x000000000000e054      0x1f0 cmd/built-in.o
 .text.usb_show_subtree
                0x000000000000e244       0x38 cmd/built-in.o
 .text.usb_for_each_root_dev
                0x000000000000e27c       0x68 cmd/built-in.o
 .text.usb_display_string
                0x000000000000e2e4       0x4c cmd/built-in.o
 .text.usb_display_config
                0x000000000000e330      0x258 cmd/built-in.o
 .text.usb_find_device
                0x000000000000e588       0xb4 cmd/built-in.o
 .text.do_usbboot
                0x000000000000e63c        0xc cmd/built-in.o
 .text.usb_display_desc.part.1
                0x000000000000e648      0x114 cmd/built-in.o
 .text.do_usb_start
                0x000000000000e75c       0x30 cmd/built-in.o
 .text.usb_show_info
                0x000000000000e78c       0x68 cmd/built-in.o
 .text.usb_show_tree
                0x000000000000e7f4        0xc cmd/built-in.o
                0x000000000000e7f4                usb_show_tree
 .text.do_usb   0x000000000000e800      0x754 cmd/built-in.o
 .text.do_imgextract
                0x000000000000ef54      0x2a8 cmd/built-in.o
 .text.do_env_delete
                0x000000000000f1fc       0xc0 cmd/built-in.o
 .text.do_env_exists
                0x000000000000f2bc       0x60 cmd/built-in.o
 .text.do_env_save
                0x000000000000f31c       0x30 cmd/built-in.o
 .text.do_env   0x000000000000f34c       0x80 cmd/built-in.o
 .text.env_print
                0x000000000000f3cc       0xc8 cmd/built-in.o
 .text.do_env_print
                0x000000000000f494       0xe4 cmd/built-in.o
 .text.do_env_import
                0x000000000000f578      0x270 cmd/built-in.o
 .text.do_env_default
                0x000000000000f7e8       0x98 cmd/built-in.o
 .text._do_env_set.isra.0
                0x000000000000f880      0x1c8 cmd/built-in.o
 .text.do_env_set
                0x000000000000fa48       0x20 cmd/built-in.o
 .text.get_env_id
                0x000000000000fa68        0xc cmd/built-in.o
                0x000000000000fa68                get_env_id
 .text.setenv   0x000000000000fa74       0x58 cmd/built-in.o
                0x000000000000fa74                setenv
 .text.setenv_ulong
                0x000000000000facc       0x2c cmd/built-in.o
                0x000000000000facc                setenv_ulong
 .text.setenv_hex
                0x000000000000faf8       0x3c cmd/built-in.o
                0x000000000000faf8                setenv_hex
 .text.do_env_export
                0x000000000000fb34      0x248 cmd/built-in.o
 .text.envmatch
                0x000000000000fd7c       0x88 cmd/built-in.o
                0x000000000000fd7c                envmatch
 .text.getenv_f
                0x000000000000fe04       0xf0 cmd/built-in.o
                0x000000000000fe04                getenv_f
 .text.getenv   0x000000000000fef4       0x74 cmd/built-in.o
                0x000000000000fef4                getenv
 .text.getenv_hex
                0x000000000000ff68       0x48 cmd/built-in.o
                0x000000000000ff68                getenv_hex
 .text.getenv_ulong
                0x000000000000ffb0       0x40 cmd/built-in.o
                0x000000000000ffb0                getenv_ulong
 .text.do_env_edit.part.2
                0x000000000000fff0       0xb8 cmd/built-in.o
 .text.do_env_edit
                0x00000000000100a8       0x24 cmd/built-in.o
 .text.nand_burn_image
                0x00000000000100cc        0x8 cmd/built-in.o
 .text.is_nand_active
                0x00000000000100d4        0x8 cmd/built-in.o
 .text.is_tftp_active
                0x00000000000100dc        0x8 cmd/built-in.o
 .text.bubt_is_dev_active
                0x00000000000100e4       0x64 cmd/built-in.o
 .text.get_load_addr
                0x0000000000010148       0x34 cmd/built-in.o
 .text.spi_burn_image
                0x000000000001017c       0x94 cmd/built-in.o
 .text.mmc_burn_image
                0x0000000000010210      0x160 cmd/built-in.o
 .text.mmc_read_file
                0x0000000000010370       0xcc cmd/built-in.o
 .text.usb_read_file
                0x000000000001043c       0xb4 cmd/built-in.o
 .text.tftp_read_file
                0x00000000000104f0       0x30 cmd/built-in.o
 .text.check_image_header
                0x0000000000010520      0x1c8 cmd/built-in.o
 .text.is_usb_active
                0x00000000000106e8        0x8 cmd/built-in.o
 .text.is_mmc_active
                0x00000000000106f0        0x8 cmd/built-in.o
 .text.is_spi_active
                0x00000000000106f8        0x8 cmd/built-in.o
 .text.find_bubt_dev
                0x0000000000010700       0x5c cmd/built-in.o
                0x0000000000010700                find_bubt_dev
 .text.do_bubt_cmd
                0x000000000001075c      0x1cc cmd/built-in.o
                0x000000000001075c                do_bubt_cmd
 .text.board_init_f_alloc_reserve
                0x0000000000010928       0x10 common/built-in.o
                0x0000000000010928                board_init_f_alloc_reserve
 .text.board_init_f_init_reserve
                0x0000000000010938       0x30 common/built-in.o
                0x0000000000010938                board_init_f_init_reserve
 .text.show_boot_progress
                0x0000000000010968        0x8 common/built-in.o
                0x0000000000010968                show_boot_progress
 .text.main_loop
                0x0000000000010970       0x6c common/built-in.o
                0x0000000000010970                main_loop
 .text.mdelay   0x00000000000109dc       0x30 common/built-in.o
 .text.dummy    0x0000000000010a0c        0x4 common/built-in.o
 .text.get_version
                0x0000000000010a10        0x8 common/built-in.o
                0x0000000000010a10                get_version
 .text.jumptable_init
                0x0000000000010a18      0x208 common/built-in.o
                0x0000000000010a18                jumptable_init
 .text.hash_finish_crc32
                0x0000000000010c20       0x38 common/built-in.o
 .text.hash_update_crc32
                0x0000000000010c58       0x34 common/built-in.o
 .text.hash_init_crc32
                0x0000000000010c8c       0x30 common/built-in.o
 .text.hash_finish_sha256
                0x0000000000010cbc       0x48 common/built-in.o
 .text.hash_update_sha256
                0x0000000000010d04       0x24 common/built-in.o
 .text.hash_init_sha256
                0x0000000000010d28       0x34 common/built-in.o
 .text.hash_finish_sha1
                0x0000000000010d5c       0x48 common/built-in.o
 .text.hash_update_sha1
                0x0000000000010da4       0x24 common/built-in.o
 .text.hash_init_sha1
                0x0000000000010dc8       0x34 common/built-in.o
 .text.hash_lookup_algo
                0x0000000000010dfc       0x80 common/built-in.o
                0x0000000000010dfc                hash_lookup_algo
 .text.hash_command
                0x0000000000010e7c      0x1ec common/built-in.o
                0x0000000000010e7c                hash_command
 .text.b_reset  0x0000000000011068       0x18 common/built-in.o
 .text.static_get
                0x0000000000011080       0x1c common/built-in.o
 .text.file_peek
                0x000000000001109c        0xc common/built-in.o
 .text.mapset   0x00000000000110a8       0x20 common/built-in.o
 .text.syntax_err
                0x00000000000110c8        0xc common/built-in.o
 .text.free_pipe_list
                0x00000000000110d4       0xf4 common/built-in.o
 .text.xmalloc  0x00000000000111c8       0x28 common/built-in.o
 .text.new_pipe
                0x00000000000111f0       0x24 common/built-in.o
 .text.xrealloc
                0x0000000000011214       0x28 common/built-in.o
 .text.done_command
                0x000000000001123c       0x94 common/built-in.o
 .text.done_pipe
                0x00000000000112d0       0x50 common/built-in.o
 .text.done_word
                0x0000000000011320      0x2ac common/built-in.o
 .text.do_showvar
                0x00000000000115cc      0x110 common/built-in.o
 .text.is_assignment
                0x00000000000116dc       0x60 common/built-in.o
 .text.file_get
                0x000000000001173c      0x1f4 common/built-in.o
 .text.b_addchr
                0x0000000000011930       0x94 common/built-in.o
 .text.b_addqchr
                0x00000000000119c4       0x58 common/built-in.o
 .text.static_peek
                0x0000000000011a1c        0xc common/built-in.o
 .text.get_local_var
                0x0000000000011a28       0x98 common/built-in.o
                0x0000000000011a28                get_local_var
 .text.set_local_var
                0x0000000000011ac0      0x1b4 common/built-in.o
                0x0000000000011ac0                set_local_var
 .text.insert_var_value_sub
                0x0000000000011c74      0x2bc common/built-in.o
 .text.parse_string_outer
                0x0000000000011f30       0xfc common/built-in.o
                0x0000000000011f30                parse_string_outer
 .text.run_list_real
                0x000000000001202c      0x748 common/built-in.o
 .text.parse_stream_outer
                0x0000000000012774      0x694 common/built-in.o
 .text.parse_file_outer
                0x0000000000012e08       0x40 common/built-in.o
                0x0000000000012e08                parse_file_outer
 .text.u_boot_hush_start
                0x0000000000012e48       0x5c common/built-in.o
                0x0000000000012e48                u_boot_hush_start
 .text.bootdelay_process
                0x0000000000012ea4       0xbc common/built-in.o
                0x0000000000012ea4                bootdelay_process
 .text.autoboot_command
                0x0000000000012f60      0x10c common/built-in.o
                0x0000000000012f60                autoboot_command
 .text.setup_mon_len
                0x000000000001306c       0x20 common/built-in.o
 .text.reserve_round_4k
                0x000000000001308c       0x14 common/built-in.o
 .text.reserve_uboot
                0x00000000000130a0       0x2c common/built-in.o
 .text.reserve_malloc
                0x00000000000130cc       0x14 common/built-in.o
 .text.reserve_global_data
                0x00000000000130e0       0x1c common/built-in.o
 .text.reserve_fdt
                0x00000000000130fc       0x48 common/built-in.o
 .text.initf_console_record
                0x0000000000013144        0x8 common/built-in.o
 .text.arch_cpu_init_dm
                0x000000000001314c        0x8 common/built-in.o
                0x000000000001314c                arch_cpu_init_dm
 .text.reserve_mmu
                0x0000000000013154       0x4c common/built-in.o
 .text.announce_dram_init
                0x00000000000131a0       0x20 common/built-in.o
 .text.init_baud_rate
                0x00000000000131c0       0x3c common/built-in.o
 .text.mark_bootstage
                0x00000000000131fc       0x1c common/built-in.o
 .text.initf_dm
                0x0000000000013218        0x8 common/built-in.o
 .text.setup_reloc
                0x0000000000013220       0x3c common/built-in.o
 .text.reloc_fdt
                0x000000000001325c       0x44 common/built-in.o
 .text.reserve_board
                0x00000000000132a0       0x48 common/built-in.o
 .text.reserve_arch
                0x00000000000132e8        0x8 common/built-in.o
                0x00000000000132e8                reserve_arch
 .text.display_text_info
                0x00000000000132f0        0x8 common/built-in.o
 .text.mach_cpu_init
                0x00000000000132f8        0x8 common/built-in.o
                0x00000000000132f8                mach_cpu_init
 .text.reserve_trace
                0x0000000000013300        0x8 common/built-in.o
 .text.setup_machine
                0x0000000000013308        0x8 common/built-in.o
 .text.display_new_sp
                0x0000000000013310        0x8 common/built-in.o
 .text.board_add_ram_info
                0x0000000000013318        0x4 common/built-in.o
                0x0000000000013318                board_add_ram_info
 .text.show_dram_config
                0x000000000001331c       0x58 common/built-in.o
 .text.setup_dram_config
                0x0000000000013374       0x18 common/built-in.o
 .text.board_reserve_ram_top
                0x000000000001338c        0x4 common/built-in.o
                0x000000000001338c                board_reserve_ram_top
 .text.setup_dest_addr
                0x0000000000013390       0x58 common/built-in.o
 .text.reserve_stacks
                0x00000000000133e8       0x1c common/built-in.o
 .text.board_init_f
                0x0000000000013404       0x2c common/built-in.o
                0x0000000000013404                board_init_f
 .text.bootstage_relocate
                0x0000000000013430        0x8 common/built-in.o
 .text.initr_reloc
                0x0000000000013438       0x18 common/built-in.o
 .text.power_init_board
                0x0000000000013450        0x8 common/built-in.o
                0x0000000000013450                power_init_board
 .text.initr_announce
                0x0000000000013458        0x8 common/built-in.o
 .text.run_main_loop
                0x0000000000013460       0x10 common/built-in.o
 .text.initr_mv88e6xxx
                0x0000000000013470       0x1c common/built-in.o
 .text.initr_net
                0x000000000001348c       0x24 common/built-in.o
 .text.initr_ethaddr
                0x00000000000134b0       0x28 common/built-in.o
 .text.initr_enable_interrupts
                0x00000000000134d8       0x18 common/built-in.o
 .text.initr_jumptable
                0x00000000000134f0       0x18 common/built-in.o
 .text.initr_env
                0x0000000000013508       0x70 common/built-in.o
 .text.initr_mmc
                0x0000000000013578       0x28 common/built-in.o
 .text.initr_serial
                0x00000000000135a0       0x18 common/built-in.o
 .text.initr_bootstage
                0x00000000000135b8       0x1c common/built-in.o
 .text.initr_dm
                0x00000000000135d4       0x14 common/built-in.o
 .text.initr_malloc
                0x00000000000135e8       0x24 common/built-in.o
 .text.initr_reloc_global_data
                0x000000000001360c       0x3c common/built-in.o
 .text.initr_caches
                0x0000000000013648       0x18 common/built-in.o
 .text.initr_console_record
                0x0000000000013660        0x8 common/built-in.o
 .text.initr_trace
                0x0000000000013668        0x8 common/built-in.o
 .text.initr_pci
                0x0000000000013670        0x8 common/built-in.o
 .text.initr_barrier
                0x0000000000013678        0x8 common/built-in.o
 .text.cpu_secondary_init_r
                0x0000000000013680        0x4 common/built-in.o
                0x0000000000013680                cpu_secondary_init_r
 .text.initr_secondary_cpu
                0x0000000000013684       0x18 common/built-in.o
 .text.board_init_r
                0x000000000001369c       0x18 common/built-in.o
                0x000000000001369c                board_init_r
 .text.checkboard
                0x00000000000136b4        0x8 common/built-in.o
                0x00000000000136b4                checkboard
 .text.show_board_info
                0x00000000000136bc       0x3c common/built-in.o
                0x00000000000136bc                show_board_info
 .text.bootm_find_images
                0x00000000000136f8       0xa4 common/built-in.o
                0x00000000000136f8                bootm_find_images
 .text.bootm_decomp_image
                0x000000000001379c      0x180 common/built-in.o
                0x000000000001379c                bootm_decomp_image
 .text.bootm_disable_interrupts
                0x000000000001391c       0x28 common/built-in.o
                0x000000000001391c                bootm_disable_interrupts
 .text.do_bootm_states
                0x0000000000013944      0x6e8 common/built-in.o
                0x0000000000013944                do_bootm_states
 .text.copy_args
                0x000000000001402c       0x74 common/built-in.o
 .text.do_bootm_rtems
                0x00000000000140a0       0x50 common/built-in.o
 .text.do_bootm_plan9
                0x00000000000140f0       0xb8 common/built-in.o
 .text.do_bootm_standalone
                0x00000000000141a8       0x74 common/built-in.o
 .text.do_bootm_qnxelf
                0x000000000001421c       0x7c common/built-in.o
 .text.do_bootm_netbsd
                0x0000000000014298      0x12c common/built-in.o
 .text.do_bootvx_fdt
                0x00000000000143c4      0x11c common/built-in.o
                0x00000000000143c4                do_bootvx_fdt
 .text.do_bootm_vxworks
                0x00000000000144e0       0x2c common/built-in.o
 .text.arch_preboot_os
                0x000000000001450c        0x4 common/built-in.o
                0x000000000001450c                arch_preboot_os
 .text.boot_selected_os
                0x0000000000014510       0x78 common/built-in.o
                0x0000000000014510                boot_selected_os
 .text.bootm_os_get_boot_func
                0x0000000000014588       0x10 common/built-in.o
                0x0000000000014588                bootm_os_get_boot_func
 .text.regex_callback
                0x0000000000014598      0x144 common/built-in.o
 .text.env_attr_walk
                0x00000000000146dc      0x150 common/built-in.o
                0x00000000000146dc                env_attr_walk
 .text.env_attr_lookup
                0x000000000001482c       0x7c common/built-in.o
                0x000000000001482c                env_attr_lookup
 .text.clear_callback
                0x00000000000148a8        0xc common/built-in.o
 .text.find_env_callback
                0x00000000000148b4       0x7c common/built-in.o
 .text.on_callbacks
                0x0000000000014930       0x60 common/built-in.o
 .text.set_callback
                0x0000000000014990       0x90 common/built-in.o
 .text.env_callback_init
                0x0000000000014a20       0xbc common/built-in.o
                0x0000000000014a20                env_callback_init
 .text.skip_num
                0x0000000000014adc       0x70 common/built-in.o
 .text.clear_flags
                0x0000000000014b4c        0xc common/built-in.o
 .text.on_flags
                0x0000000000014b58       0x60 common/built-in.o
 .text.env_flags_parse_vartype
                0x0000000000014bb8       0x58 common/built-in.o
                0x0000000000014bb8                env_flags_parse_vartype
 .text.env_flags_parse_varaccess
                0x0000000000014c10       0x5c common/built-in.o
                0x0000000000014c10                env_flags_parse_varaccess
 .text.set_flags
                0x0000000000014c6c       0xac common/built-in.o
 .text.eth_validate_ethaddr_str
                0x0000000000014d18       0x9c common/built-in.o
                0x0000000000014d18                eth_validate_ethaddr_str
 .text.env_flags_init
                0x0000000000014db4       0xc8 common/built-in.o
                0x0000000000014db4                env_flags_init
 .text.env_flags_validate
                0x0000000000014e7c      0x2ac common/built-in.o
                0x0000000000014e7c                env_flags_validate
 .text.saveenv  0x0000000000015128       0xdc common/built-in.o
                0x0000000000015128                saveenv
 .text.env_relocate_spec
                0x0000000000015204       0xc4 common/built-in.o
                0x0000000000015204                env_relocate_spec
 .text.env_init
                0x00000000000152c8       0x1c common/built-in.o
                0x00000000000152c8                env_init
 .text.of_bus_default_map
                0x00000000000152e4       0xa0 common/built-in.o
 .text.of_bus_default_count_cells
                0x0000000000015384       0x70 common/built-in.o
                0x0000000000015384                of_bus_default_count_cells
 .text.of_bus_default_translate
                0x00000000000153f4       0xb4 common/built-in.o
 .text.fdt_find_and_setprop
                0x00000000000154a8       0x8c common/built-in.o
                0x00000000000154a8                fdt_find_and_setprop
 .text.fdt_find_or_add_subnode
                0x0000000000015534       0x74 common/built-in.o
                0x0000000000015534                fdt_find_or_add_subnode
 .text.fdt_root
                0x00000000000155a8       0x98 common/built-in.o
                0x00000000000155a8                fdt_root
 .text.fdt_initrd
                0x0000000000015640      0x1b4 common/built-in.o
                0x0000000000015640                fdt_initrd
 .text.fdt_chosen
                0x00000000000157f4       0xbc common/built-in.o
                0x00000000000157f4                fdt_chosen
 .text.do_fixup_by_path
                0x00000000000158b0       0x4c common/built-in.o
                0x00000000000158b0                do_fixup_by_path
 .text.fdt_fixup_memory_banks
                0x00000000000158fc      0x1ec common/built-in.o
                0x00000000000158fc                fdt_fixup_memory_banks
 .text.fdt_fixup_memory
                0x0000000000015ae8       0x2c common/built-in.o
                0x0000000000015ae8                fdt_fixup_memory
 .text.fdt_fixup_ethernet
                0x0000000000015b14      0x1a8 common/built-in.o
                0x0000000000015b14                fdt_fixup_ethernet
 .text.fdt_shrink_to_minimum
                0x0000000000015cbc       0xcc common/built-in.o
                0x0000000000015cbc                fdt_shrink_to_minimum
 .text.fdt_translate_address
                0x0000000000015d88      0x280 common/built-in.o
                0x0000000000015d88                fdt_translate_address
 .text.miiphy_get_dev_by_name
                0x0000000000016008       0x70 common/built-in.o
                0x0000000000016008                miiphy_get_dev_by_name
 .text.miiphy_init
                0x0000000000016078       0x1c common/built-in.o
                0x0000000000016078                miiphy_init
 .text.mdio_alloc
                0x0000000000016094       0x3c common/built-in.o
                0x0000000000016094                mdio_alloc
 .text.mdio_register
                0x00000000000160d0       0x94 common/built-in.o
                0x00000000000160d0                mdio_register
 .text.mdio_list_devices
                0x0000000000016164       0xd4 common/built-in.o
                0x0000000000016164                mdio_list_devices
 .text.miiphy_set_current_dev
                0x0000000000016238       0x48 common/built-in.o
                0x0000000000016238                miiphy_set_current_dev
 .text.miiphy_get_active_dev
                0x0000000000016280       0x60 common/built-in.o
 .text.mdio_get_current_dev
                0x00000000000162e0        0xc common/built-in.o
                0x00000000000162e0                mdio_get_current_dev
 .text.mdio_phydev_for_ethname
                0x00000000000162ec       0xa0 common/built-in.o
                0x00000000000162ec                mdio_phydev_for_ethname
 .text.miiphy_get_current_dev
                0x000000000001638c       0x18 common/built-in.o
                0x000000000001638c                miiphy_get_current_dev
 .text.miiphy_read
                0x00000000000163a4       0x5c common/built-in.o
                0x00000000000163a4                miiphy_read
 .text.miiphy_write
                0x0000000000016400       0x5c common/built-in.o
                0x0000000000016400                miiphy_write
 .text.miiphy_listdev
                0x000000000001645c       0x90 common/built-in.o
                0x000000000001645c                miiphy_listdev
 .text.miiphy_info
                0x00000000000164ec       0xa0 common/built-in.o
                0x00000000000164ec                miiphy_info
 .text.miiphy_is_1000base_x
                0x000000000001658c       0x40 common/built-in.o
                0x000000000001658c                miiphy_is_1000base_x
 .text.miiphy_speed
                0x00000000000165cc      0x120 common/built-in.o
                0x00000000000165cc                miiphy_speed
 .text.miiphy_duplex
                0x00000000000166ec      0x144 common/built-in.o
                0x00000000000166ec                miiphy_duplex
 .text.usb_set_maxpacket_ep
                0x0000000000016830       0x7c common/built-in.o
 .text.usb_control_msg
                0x00000000000168ac       0x9c common/built-in.o
                0x00000000000168ac                usb_control_msg
 .text.usb_get_descriptor
                0x0000000000016948       0x5c common/built-in.o
 .text.get_descriptor_len
                0x00000000000169a4       0xa4 common/built-in.o
 .text.usb_get_string
                0x0000000000016a48       0xa4 common/built-in.o
 .text.usb_string_sub
                0x0000000000016aec      0x114 common/built-in.o
 .text.usb_bulk_msg
                0x0000000000016c00       0x80 common/built-in.o
                0x0000000000016c00                usb_bulk_msg
 .text.usb_maxpacket
                0x0000000000016c80       0x20 common/built-in.o
                0x0000000000016c80                usb_maxpacket
 .text.usb_clear_halt
                0x0000000000016ca0       0xa0 common/built-in.o
                0x0000000000016ca0                usb_clear_halt
 .text.usb_get_configuration_len
                0x0000000000016d40       0x78 common/built-in.o
                0x0000000000016d40                usb_get_configuration_len
 .text.usb_get_configuration_no
                0x0000000000016db8       0x40 common/built-in.o
                0x0000000000016db8                usb_get_configuration_no
 .text.usb_set_interface
                0x0000000000016df8       0xbc common/built-in.o
                0x0000000000016df8                usb_set_interface
 .text.usb_string
                0x0000000000016eb4      0x110 common/built-in.o
                0x0000000000016eb4                usb_string
 .text.usb_select_config
                0x0000000000016fc4      0x4b4 common/built-in.o
                0x0000000000016fc4                usb_select_config
 .text.usb_setup_device
                0x0000000000017478      0x1bc common/built-in.o
                0x0000000000017478                usb_setup_device
 .text.usb_device_has_child_on_port
                0x0000000000017634        0x8 common/built-in.o
                0x0000000000017634                usb_device_has_child_on_port
 .text.usb_find_usb2_hub_address_port
                0x000000000001763c       0x90 common/built-in.o
                0x000000000001763c                usb_find_usb2_hub_address_port
 .text.usb_set_port_feature
                0x00000000000176cc       0x4c common/built-in.o
 .text.usb_clear_port_feature
                0x0000000000017718       0x4c common/built-in.o
 .text.usb_get_hub_descriptor
                0x0000000000017764       0x54 common/built-in.o
 .text.usb_hub_reset_devices
                0x00000000000177b8        0x4 common/built-in.o
                0x00000000000177b8                usb_hub_reset_devices
 .text.usb_get_port_status
                0x00000000000177bc       0x54 common/built-in.o
                0x00000000000177bc                usb_get_port_status
 .text.usb_hub_reset
                0x0000000000017810       0x1c common/built-in.o
                0x0000000000017810                usb_hub_reset
 .text.legacy_hub_port_reset
                0x000000000001782c       0xc0 common/built-in.o
                0x000000000001782c                legacy_hub_port_reset
 .text.usb_hub_port_connect_change
                0x00000000000178ec      0x128 common/built-in.o
                0x00000000000178ec                usb_hub_port_connect_change
 .text.usb_hub_configure
                0x0000000000017a14      0x4a0 common/built-in.o
 .text.usb_hub_scan
                0x0000000000017eb4       0x14 common/built-in.o
                0x0000000000017eb4                usb_hub_scan
 .text.usb_hub_post_probe
                0x0000000000017ec8        0x4 common/built-in.o
 .text.usb_stor_irq
                0x0000000000017ecc       0x18 common/built-in.o
 .text.usb_stor_BBB_reset
                0x0000000000017ee4      0x104 common/built-in.o
 .text.usb_stor_CB_reset
                0x0000000000017fe8       0xe0 common/built-in.o
 .text.usb_stor_BBB_clear_endpt_stall.isra.0
                0x00000000000180c8       0x4c common/built-in.o
 .text.usb_stor_BBB_transport
                0x0000000000018114      0x248 common/built-in.o
 .text.usb_stor_CB_comdat
                0x000000000001835c      0x1f4 common/built-in.o
 .text.usb_stor_CBI_get_status.isra.2
                0x0000000000018550       0xd4 common/built-in.o
 .text.usb_stor_CB_transport
                0x0000000000018624      0x214 common/built-in.o
 .text.usb_request_sense.constprop.10
                0x0000000000018838       0x8c common/built-in.o
 .text.usb_stor_read
                0x00000000000188c4      0x170 common/built-in.o
 .text.usb_stor_write
                0x0000000000018a34      0x170 common/built-in.o
 .text.usb_stor_info
                0x0000000000018ba4       0x80 common/built-in.o
                0x0000000000018ba4                usb_stor_info
 .text.usb_stor_reset
                0x0000000000018c24        0xc common/built-in.o
                0x0000000000018c24                usb_stor_reset
 .text.usb_stor_scan
                0x0000000000018c30       0x4c common/built-in.o
                0x0000000000018c30                usb_stor_scan
 .text.usb_storage_probe
                0x0000000000018c7c      0x230 common/built-in.o
                0x0000000000018c7c                usb_storage_probe
 .text.usb_stor_get_info
                0x0000000000018eac      0x314 common/built-in.o
                0x0000000000018eac                usb_stor_get_info
 .text.usb_mass_storage_probe
                0x00000000000191c0      0x194 common/built-in.o
 .text.scsi_ident_cpy
                0x0000000000019354       0x80 common/built-in.o
 .text.scsi_write
                0x00000000000193d4      0x170 common/built-in.o
 .text.scsi_setup_read16
                0x0000000000019544       0x88 common/built-in.o
                0x0000000000019544                scsi_setup_read16
 .text.scsi_read
                0x00000000000195cc      0x1c4 common/built-in.o
 .text.scsi_scan
                0x0000000000019790      0x500 common/built-in.o
                0x0000000000019790                scsi_scan
 .text.env_get_char_spec
                0x0000000000019c90        0xc common/built-in.o
                0x0000000000019c90                env_get_char_spec
 .text.env_get_addr
                0x0000000000019c9c       0x24 common/built-in.o
                0x0000000000019c9c                env_get_addr
 .text.env_get_char_memory
                0x0000000000019cc0       0x18 common/built-in.o
                0x0000000000019cc0                env_get_char_memory
 .text.env_get_char
                0x0000000000019cd8       0x2c common/built-in.o
                0x0000000000019cd8                env_get_char
 .text.getenv_yesno
                0x0000000000019d04       0x44 common/built-in.o
                0x0000000000019d04                getenv_yesno
 .text.getenv_default
                0x0000000000019d48       0x3c common/built-in.o
                0x0000000000019d48                getenv_default
 .text.set_default_env
                0x0000000000019d84       0xbc common/built-in.o
                0x0000000000019d84                set_default_env
 .text.set_default_vars
                0x0000000000019e40       0x2c common/built-in.o
                0x0000000000019e40                set_default_vars
 .text.env_import
                0x0000000000019e6c       0xdc common/built-in.o
                0x0000000000019e6c                env_import
 .text.env_export
                0x0000000000019f48       0x94 common/built-in.o
                0x0000000000019f48                env_export
 .text.env_relocate
                0x0000000000019fdc       0x2c common/built-in.o
                0x0000000000019fdc                env_relocate
 .text.env_complete
                0x000000000001a008      0x100 common/built-in.o
                0x000000000001a008                env_complete
 .text.console_setfile
                0x000000000001a108       0xd0 common/built-in.o
 .text.putc     0x000000000001a1d8       0x44 common/built-in.o
                0x000000000001a1d8                putc
 .text.puts     0x000000000001a21c       0x74 common/built-in.o
                0x000000000001a21c                puts
 .text.fgetc    0x000000000001a290       0x24 common/built-in.o
                0x000000000001a290                fgetc
 .text.getc     0x000000000001a2b4       0x24 common/built-in.o
                0x000000000001a2b4                getc
 .text.ftstc    0x000000000001a2d8       0x24 common/built-in.o
                0x000000000001a2d8                ftstc
 .text.tstc     0x000000000001a2fc       0x24 common/built-in.o
                0x000000000001a2fc                tstc
 .text.ctrlc    0x000000000001a320       0x58 common/built-in.o
                0x000000000001a320                ctrlc
 .text.disable_ctrlc
                0x000000000001a378       0x14 common/built-in.o
                0x000000000001a378                disable_ctrlc
 .text.had_ctrlc
                0x000000000001a38c        0xc common/built-in.o
                0x000000000001a38c                had_ctrlc
 .text.clear_ctrlc
                0x000000000001a398        0xc common/built-in.o
                0x000000000001a398                clear_ctrlc
 .text.search_device
                0x000000000001a3a4       0x3c common/built-in.o
                0x000000000001a3a4                search_device
 .text.console_assign
                0x000000000001a3e0       0x60 common/built-in.o
                0x000000000001a3e0                console_assign
 .text.on_console
                0x000000000001a440       0xc4 common/built-in.o
 .text.console_init_f
                0x000000000001a504       0x10 common/built-in.o
                0x000000000001a504                console_init_f
 .text.console_init_r
                0x000000000001a514       0xe0 common/built-in.o
                0x000000000001a514                console_init_r
 .text.sbrk     0x000000000001a5f4       0x70 common/built-in.o
                0x000000000001a5f4                sbrk
 .text.mem_malloc_init
                0x000000000001a664       0x20 common/built-in.o
                0x000000000001a664                mem_malloc_init
 .text.malloc_trim
                0x000000000001a684       0xd4 common/built-in.o
                0x000000000001a684                malloc_trim
 .text.free     0x000000000001a758      0x234 common/built-in.o
                0x000000000001a758                free
 .text.malloc   0x000000000001a98c      0x648 common/built-in.o
                0x000000000001a98c                malloc
 .text.calloc   0x000000000001afd4       0xe0 common/built-in.o
                0x000000000001afd4                calloc
 .text.realloc  0x000000000001b0b4      0x480 common/built-in.o
                0x000000000001b0b4                realloc
 .text.memalign
                0x000000000001b534      0x194 common/built-in.o
                0x000000000001b534                memalign
 .text.initf_malloc
                0x000000000001b6c8       0x18 common/built-in.o
                0x000000000001b6c8                initf_malloc
 .text.malloc_simple
                0x000000000001b6e0       0x38 common/built-in.o
                0x000000000001b6e0                malloc_simple
 .text.on_loadaddr
                0x000000000001b718       0x38 common/built-in.o
 .text.image_check_hcrc
                0x000000000001b750       0x50 common/built-in.o
                0x000000000001b750                image_check_hcrc
 .text.image_check_dcrc
                0x000000000001b7a0       0x44 common/built-in.o
                0x000000000001b7a0                image_check_dcrc
 .text.image_multi_count
                0x000000000001b7e4       0x1c common/built-in.o
                0x000000000001b7e4                image_multi_count
 .text.image_multi_getimg
                0x000000000001b800       0x88 common/built-in.o
                0x000000000001b800                image_multi_getimg
 .text.getenv_bootm_low
                0x000000000001b888       0x30 common/built-in.o
                0x000000000001b888                getenv_bootm_low
 .text.getenv_bootm_size
                0x000000000001b8b8       0x78 common/built-in.o
                0x000000000001b8b8                getenv_bootm_size
 .text.getenv_bootm_mapsize
                0x000000000001b930       0x30 common/built-in.o
                0x000000000001b930                getenv_bootm_mapsize
 .text.memmove_wd
                0x000000000001b960       0x10 common/built-in.o
                0x000000000001b960                memmove_wd
 .text.genimg_print_size
                0x000000000001b970       0x38 common/built-in.o
                0x000000000001b970                genimg_print_size
 .text.get_table_entry
                0x000000000001b9a8       0x20 common/built-in.o
                0x000000000001b9a8                get_table_entry
 .text.get_table_entry_name
                0x000000000001b9c8       0x2c common/built-in.o
                0x000000000001b9c8                get_table_entry_name
 .text.genimg_get_os_name
                0x000000000001b9f4       0x18 common/built-in.o
                0x000000000001b9f4                genimg_get_os_name
 .text.genimg_get_arch_name
                0x000000000001ba0c       0x18 common/built-in.o
                0x000000000001ba0c                genimg_get_arch_name
 .text.genimg_get_type_name
                0x000000000001ba24       0x18 common/built-in.o
                0x000000000001ba24                genimg_get_type_name
 .text.genimg_get_comp_name
                0x000000000001ba3c       0x18 common/built-in.o
                0x000000000001ba3c                genimg_get_comp_name
 .text.image_print_contents
                0x000000000001ba54      0x1b8 common/built-in.o
                0x000000000001ba54                image_print_contents
 .text.genimg_get_kernel_addr_fit
                0x000000000001bc0c       0x1c common/built-in.o
                0x000000000001bc0c                genimg_get_kernel_addr_fit
 .text.genimg_get_format
                0x000000000001bc28       0x3c common/built-in.o
                0x000000000001bc28                genimg_get_format
 .text.genimg_get_image
                0x000000000001bc64        0x4 common/built-in.o
                0x000000000001bc64                genimg_get_image
 .text.genimg_has_config
                0x000000000001bc68        0x8 common/built-in.o
                0x000000000001bc68                genimg_has_config
 .text.boot_get_ramdisk
                0x000000000001bc70      0x230 common/built-in.o
                0x000000000001bc70                boot_get_ramdisk
 .text.boot_ramdisk_high
                0x000000000001bea0      0x144 common/built-in.o
                0x000000000001bea0                boot_ramdisk_high
 .text.boot_get_setup
                0x000000000001bfe4        0x8 common/built-in.o
                0x000000000001bfe4                boot_get_setup
 .text.image_setup_linux
                0x000000000001bfec       0x70 common/built-in.o
                0x000000000001bfec                image_setup_linux
 .text.fdt_error
                0x000000000001c05c       0x38 common/built-in.o
 .text.boot_fdt_add_mem_rsv_regions
                0x000000000001c094       0x94 common/built-in.o
                0x000000000001c094                boot_fdt_add_mem_rsv_regions
 .text.boot_relocate_fdt
                0x000000000001c128      0x1b4 common/built-in.o
                0x000000000001c128                boot_relocate_fdt
 .text.boot_get_fdt
                0x000000000001c2dc      0x2a0 common/built-in.o
                0x000000000001c2dc                boot_get_fdt
 .text.ft_verify_fdt
                0x000000000001c57c        0x8 common/built-in.o
                0x000000000001c57c                ft_verify_fdt
 .text.image_setup_libfdt
                0x000000000001c584      0x114 common/built-in.o
                0x000000000001c584                image_setup_libfdt
 .text.get_effective_memsize
                0x000000000001c698        0x8 common/built-in.o
                0x000000000001c698                get_effective_memsize
 .text.stdio_serial_tstc
                0x000000000001c6a0        0x4 common/built-in.o
 .text.stdio_serial_getc
                0x000000000001c6a4        0x4 common/built-in.o
 .text.stdio_serial_puts
                0x000000000001c6a8        0x8 common/built-in.o
 .text.stdio_serial_putc
                0x000000000001c6b0        0x8 common/built-in.o
 .text.stdio_get_list
                0x000000000001c6b8       0x10 common/built-in.o
                0x000000000001c6b8                stdio_get_list
 .text.stdio_get_by_name
                0x000000000001c6c8       0x70 common/built-in.o
                0x000000000001c6c8                stdio_get_by_name
 .text.stdio_clone
                0x000000000001c738       0x5c common/built-in.o
                0x000000000001c738                stdio_clone
 .text.stdio_register_dev
                0x000000000001c794       0x58 common/built-in.o
                0x000000000001c794                stdio_register_dev
 .text.stdio_register
                0x000000000001c7ec        0x8 common/built-in.o
                0x000000000001c7ec                stdio_register
 .text.stdio_init_tables
                0x000000000001c7f4       0x18 common/built-in.o
                0x000000000001c7f4                stdio_init_tables
 .text.stdio_add_devices
                0x000000000001c80c       0x78 common/built-in.o
                0x000000000001c80c                stdio_add_devices
 .text.run_command
                0x000000000001c884       0x18 common/built-in.o
                0x000000000001c884                run_command
 .text.run_command_list
                0x000000000001c89c       0x8c common/built-in.o
                0x000000000001c89c                run_command_list
 .text.do_run   0x000000000001c928       0x84 common/built-in.o
                0x000000000001c928                do_run
 .text.cli_process_fdt
                0x000000000001c9ac       0x50 common/built-in.o
                0x000000000001c9ac                cli_process_fdt
 .text.cli_secure_boot_cmd
                0x000000000001c9fc       0x74 common/built-in.o
                0x000000000001c9fc                cli_secure_boot_cmd
 .text.cli_loop
                0x000000000001ca70       0x10 common/built-in.o
                0x000000000001ca70                cli_loop
 .text.cli_init
                0x000000000001ca80        0x4 common/built-in.o
                0x000000000001ca80                cli_init
 .text.delete_char.part.0
                0x000000000001ca84       0xf8 common/built-in.o
 .text.cread_add_char
                0x000000000001cb7c       0xfc common/built-in.o
 .text.cli_readline_into_buffer
                0x000000000001cc78      0x990 common/built-in.o
                0x000000000001cc78                cli_readline_into_buffer
 .text.cli_readline
                0x000000000001d608       0x14 common/built-in.o
                0x000000000001d608                cli_readline
 .text.find_cmd_tbl
                0x000000000001d61c       0xc8 common/built-in.o
                0x000000000001d61c                find_cmd_tbl
 .text.find_cmd
                0x000000000001d6e4       0x28 common/built-in.o
                0x000000000001d6e4                find_cmd
 .text.cmd_usage
                0x000000000001d70c       0x68 common/built-in.o
                0x000000000001d70c                cmd_usage
 .text._do_help
                0x000000000001d774      0x19c common/built-in.o
                0x000000000001d774                _do_help
 .text.var_complete
                0x000000000001d910       0x80 common/built-in.o
                0x000000000001d910                var_complete
 .text.cmd_auto_complete
                0x000000000001d990      0x504 common/built-in.o
                0x000000000001d990                cmd_auto_complete
 .text.cmd_get_data_size
                0x000000000001de94       0x70 common/built-in.o
                0x000000000001de94                cmd_get_data_size
 .text.cmd_process
                0x000000000001df04      0x110 common/built-in.o
                0x000000000001df04                cmd_process
 .text.cmd_process_error
                0x000000000001e014       0x34 common/built-in.o
                0x000000000001e014                cmd_process_error
 .text.hex1_bin
                0x000000000001e048       0x48 common/built-in.o
 .text.hex2_bin
                0x000000000001e090       0x40 common/built-in.o
 .text.srec_decode
                0x000000000001e0d0      0x22c common/built-in.o
                0x000000000001e0d0                srec_decode
 .text.CYGACC_COMM_IF_GETC_TIMEOUT.isra.0
                0x000000000001e2fc       0x54 common/built-in.o
 .text.xyzModem_flush
                0x000000000001e350       0x1c common/built-in.o
 .text.xyzModem_get_hdr
                0x000000000001e36c      0x21c common/built-in.o
 .text.xyzModem_stream_open
                0x000000000001e588      0x28c common/built-in.o
                0x000000000001e588                xyzModem_stream_open
 .text.xyzModem_stream_read
                0x000000000001e814      0x29c common/built-in.o
                0x000000000001e814                xyzModem_stream_read
 .text.xyzModem_stream_close
                0x000000000001eab0       0x40 common/built-in.o
                0x000000000001eab0                xyzModem_stream_close
 .text.xyzModem_stream_terminate
                0x000000000001eaf0       0xa8 common/built-in.o
                0x000000000001eaf0                xyzModem_stream_terminate
 .text.xyzModem_error
                0x000000000001eb98       0x28 common/built-in.o
                0x000000000001eb98                xyzModem_error
 .text.blk_get_dev
                0x000000000001ebc0       0x3c disk/built-in.o
                0x000000000001ebc0                blk_get_dev
 .text.dev_print
                0x000000000001ebfc      0x210 disk/built-in.o
                0x000000000001ebfc                dev_print
 .text.part_init
                0x000000000001ee0c       0x90 disk/built-in.o
                0x000000000001ee0c                part_init
 .text.part_print
                0x000000000001ee9c      0x16c disk/built-in.o
                0x000000000001ee9c                part_print
 .text.part_get_info
                0x000000000001f008       0x98 disk/built-in.o
                0x000000000001f008                part_get_info
 .text.blk_get_device_by_str
                0x000000000001f0a0      0x164 disk/built-in.o
                0x000000000001f0a0                blk_get_device_by_str
 .text.blk_get_device_part_str
                0x000000000001f204      0x3c8 disk/built-in.o
                0x000000000001f204                blk_get_device_part_str
 .text.part_set_generic_name
                0x000000000001f5cc       0x48 disk/built-in.o
                0x000000000001f5cc                part_set_generic_name
 .text.part_mac_read_ddb
                0x000000000001f614       0x58 disk/built-in.o
 .text.part_test_mac
                0x000000000001f66c       0x9c disk/built-in.o
 .text.part_print_mac
                0x000000000001f708      0x1d4 disk/built-in.o
 .text.part_get_info_mac
                0x000000000001f8dc      0x150 disk/built-in.o
 .text.test_block_type
                0x000000000001fa2c       0x8c disk/built-in.o
 .text.print_partition_extended
                0x000000000001fab8      0x24c disk/built-in.o
 .text.part_print_dos
                0x000000000001fd04       0x3c disk/built-in.o
                0x000000000001fd04                part_print_dos
 .text.part_test_dos
                0x000000000001fd40       0x68 disk/built-in.o
 .text.part_get_info_extended
                0x000000000001fda8      0x2b0 disk/built-in.o
 .text.part_get_info_dos
                0x0000000000020058       0x1c disk/built-in.o
                0x0000000000020058                part_get_info_dos
 .text.iso_dread
                0x0000000000020074       0x48 disk/built-in.o
                0x0000000000020074                iso_dread
 .text.part_get_info_iso_verb
                0x00000000000200bc      0x388 disk/built-in.o
                0x00000000000200bc                part_get_info_iso_verb
 .text.part_test_iso
                0x0000000000020444       0x20 disk/built-in.o
 .text.part_print_iso
                0x0000000000020464       0xa4 disk/built-in.o
 .text.part_get_info_iso
                0x0000000000020508        0x8 disk/built-in.o
 .text.print_efiname
                0x0000000000020510       0x60 disk/built-in.o
 .text.part_test_efi
                0x0000000000020570       0xb4 disk/built-in.o
 .text.validate_gpt_entries
                0x0000000000020624       0xa8 disk/built-in.o
 .text.validate_gpt_header
                0x00000000000206cc      0x230 disk/built-in.o
 .text.is_gpt_valid
                0x00000000000208fc      0x1dc disk/built-in.o
 .text.is_pte_valid
                0x0000000000020ad8       0x64 disk/built-in.o
 .text.part_print_efi
                0x0000000000020b3c      0x27c disk/built-in.o
                0x0000000000020b3c                part_print_efi
 .text.part_get_info_efi
                0x0000000000020db8      0x240 disk/built-in.o
                0x0000000000020db8                part_get_info_efi
 .text.device_bind_common.isra.0
                0x0000000000020ff8      0x308 drivers/built-in.o
 .text.alloc_priv
                0x0000000000021300       0x5c drivers/built-in.o
 .text.device_bind_with_driver_data
                0x000000000002135c       0x14 drivers/built-in.o
                0x000000000002135c                device_bind_with_driver_data
 .text.device_bind
                0x0000000000021370       0x10 drivers/built-in.o
                0x0000000000021370                device_bind
 .text.device_bind_by_name
                0x0000000000021380       0x7c drivers/built-in.o
                0x0000000000021380                device_bind_by_name
 .text.device_probe
                0x00000000000213fc      0x268 drivers/built-in.o
                0x00000000000213fc                device_probe
 .text.dev_get_platdata
                0x0000000000021664       0x34 drivers/built-in.o
                0x0000000000021664                dev_get_platdata
 .text.dev_get_parent_platdata
                0x0000000000021698       0x34 drivers/built-in.o
                0x0000000000021698                dev_get_parent_platdata
 .text.dev_get_uclass_platdata
                0x00000000000216cc       0x34 drivers/built-in.o
                0x00000000000216cc                dev_get_uclass_platdata
 .text.dev_get_priv
                0x0000000000021700       0x34 drivers/built-in.o
                0x0000000000021700                dev_get_priv
 .text.dev_get_uclass_priv
                0x0000000000021734       0x34 drivers/built-in.o
                0x0000000000021734                dev_get_uclass_priv
 .text.dev_get_parent_priv
                0x0000000000021768       0x34 drivers/built-in.o
                0x0000000000021768                dev_get_parent_priv
 .text.device_get_child
                0x000000000002179c       0x6c drivers/built-in.o
                0x000000000002179c                device_get_child
 .text.device_find_first_child
                0x0000000000021808       0x28 drivers/built-in.o
                0x0000000000021808                device_find_first_child
 .text.device_find_next_child
                0x0000000000021830       0x30 drivers/built-in.o
                0x0000000000021830                device_find_next_child
 .text.dev_get_parent
                0x0000000000021860        0x8 drivers/built-in.o
                0x0000000000021860                dev_get_parent
 .text.dev_get_driver_data
                0x0000000000021868        0x8 drivers/built-in.o
                0x0000000000021868                dev_get_driver_data
 .text.dev_get_driver_ops
                0x0000000000021870       0x18 drivers/built-in.o
                0x0000000000021870                dev_get_driver_ops
 .text.device_get_uclass_id
                0x0000000000021888       0x10 drivers/built-in.o
                0x0000000000021888                device_get_uclass_id
 .text.dev_get_addr_index
                0x0000000000021898       0xc4 drivers/built-in.o
                0x0000000000021898                dev_get_addr_index
 .text.dev_get_addr
                0x000000000002195c        0x8 drivers/built-in.o
                0x000000000002195c                dev_get_addr
 .text.dev_get_addr_ptr
                0x0000000000021964        0x8 drivers/built-in.o
                0x0000000000021964                dev_get_addr_ptr
 .text.device_has_active_children
                0x000000000002196c       0x38 drivers/built-in.o
                0x000000000002196c                device_has_active_children
 .text.device_is_last_sibling
                0x00000000000219a4       0x24 drivers/built-in.o
                0x00000000000219a4                device_is_last_sibling
 .text.device_set_name_alloced
                0x00000000000219c8       0x10 drivers/built-in.o
                0x00000000000219c8                device_set_name_alloced
 .text.device_set_name
                0x00000000000219d8       0x44 drivers/built-in.o
                0x00000000000219d8                device_set_name
 .text.of_device_is_compatible
                0x0000000000021a1c       0x2c drivers/built-in.o
                0x0000000000021a1c                of_device_is_compatible
 .text.of_machine_is_compatible
                0x0000000000021a48       0x2c drivers/built-in.o
                0x0000000000021a48                of_machine_is_compatible
 .text.lists_driver_lookup_name
                0x0000000000021a74       0x84 drivers/built-in.o
                0x0000000000021a74                lists_driver_lookup_name
 .text.lists_uclass_lookup
                0x0000000000021af8       0x48 drivers/built-in.o
                0x0000000000021af8                lists_uclass_lookup
 .text.lists_bind_drivers
                0x0000000000021b40       0xb4 drivers/built-in.o
                0x0000000000021b40                lists_bind_drivers
 .text.device_bind_driver_to_node
                0x0000000000021bf4       0x68 drivers/built-in.o
                0x0000000000021bf4                device_bind_driver_to_node
 .text.device_bind_driver
                0x0000000000021c5c        0xc drivers/built-in.o
                0x0000000000021c5c                device_bind_driver
 .text.lists_bind_fdt
                0x0000000000021c68      0x1c0 drivers/built-in.o
                0x0000000000021c68                lists_bind_fdt
 .text.dm_root  0x0000000000021e28       0x38 drivers/built-in.o
                0x0000000000021e28                dm_root
 .text.dm_get_translation_offset
                0x0000000000021e60       0x1c drivers/built-in.o
                0x0000000000021e60                dm_get_translation_offset
 .text.dm_init  0x0000000000021e7c       0x64 drivers/built-in.o
                0x0000000000021e7c                dm_init
 .text.dm_remove_devices_flags
                0x0000000000021ee0       0x2c drivers/built-in.o
                0x0000000000021ee0                dm_remove_devices_flags
 .text.dm_scan_platdata
                0x0000000000021f0c       0x34 drivers/built-in.o
                0x0000000000021f0c                dm_scan_platdata
 .text.dm_scan_fdt_node
                0x0000000000021f40       0xd0 drivers/built-in.o
                0x0000000000021f40                dm_scan_fdt_node
 .text.dm_scan_fdt_dev
                0x0000000000022010       0x28 drivers/built-in.o
                0x0000000000022010                dm_scan_fdt_dev
 .text.dm_scan_fdt
                0x0000000000022038       0x18 drivers/built-in.o
                0x0000000000022038                dm_scan_fdt
 .text.dm_scan_other
                0x0000000000022050        0x8 drivers/built-in.o
                0x0000000000022050                dm_scan_other
 .text.dm_init_and_scan
                0x0000000000022058       0x50 drivers/built-in.o
                0x0000000000022058                dm_init_and_scan
 .text.uclass_find
                0x00000000000220a8       0x48 drivers/built-in.o
                0x00000000000220a8                uclass_find
 .text.uclass_get
                0x00000000000220f0      0x124 drivers/built-in.o
                0x00000000000220f0                uclass_get
 .text.uclass_find_device
                0x0000000000022214       0x80 drivers/built-in.o
                0x0000000000022214                uclass_find_device
 .text.uclass_find_first_device
                0x0000000000022294       0x4c drivers/built-in.o
                0x0000000000022294                uclass_find_first_device
 .text.uclass_find_next_device
                0x00000000000222e0       0x2c drivers/built-in.o
                0x00000000000222e0                uclass_find_next_device
 .text.uclass_find_device_by_seq
                0x000000000002230c       0x94 drivers/built-in.o
                0x000000000002230c                uclass_find_device_by_seq
 .text.uclass_find_device_by_of_offset
                0x00000000000223a0       0x7c drivers/built-in.o
                0x00000000000223a0                uclass_find_device_by_of_offset
 .text.uclass_get_device_tail
                0x000000000002241c       0x3c drivers/built-in.o
                0x000000000002241c                uclass_get_device_tail
 .text.uclass_get_device
                0x0000000000022458       0x38 drivers/built-in.o
                0x0000000000022458                uclass_get_device
 .text.uclass_get_device_by_seq
                0x0000000000022490       0x68 drivers/built-in.o
                0x0000000000022490                uclass_get_device_by_seq
 .text.uclass_get_device_by_of_offset
                0x00000000000224f8       0x38 drivers/built-in.o
                0x00000000000224f8                uclass_get_device_by_of_offset
 .text.uclass_get_device_by_phandle
                0x0000000000022530       0xc8 drivers/built-in.o
                0x0000000000022530                uclass_get_device_by_phandle
 .text.uclass_first_device
                0x00000000000225f8       0x44 drivers/built-in.o
                0x00000000000225f8                uclass_first_device
 .text.uclass_first_device_err
                0x000000000002263c       0x34 drivers/built-in.o
                0x000000000002263c                uclass_first_device_err
 .text.uclass_next_device
                0x0000000000022670       0x44 drivers/built-in.o
                0x0000000000022670                uclass_next_device
 .text.uclass_bind_device
                0x00000000000226b4       0x88 drivers/built-in.o
                0x00000000000226b4                uclass_bind_device
 .text.uclass_unbind_device
                0x000000000002273c       0x4c drivers/built-in.o
                0x000000000002273c                uclass_unbind_device
 .text.uclass_resolve_seq
                0x0000000000022788       0xb0 drivers/built-in.o
                0x0000000000022788                uclass_resolve_seq
 .text.uclass_pre_probe_device
                0x0000000000022838       0x68 drivers/built-in.o
                0x0000000000022838                uclass_pre_probe_device
 .text.uclass_post_probe_device
                0x00000000000228a0       0x1c drivers/built-in.o
                0x00000000000228a0                uclass_post_probe_device
 .text.uclass_pre_remove_device
                0x00000000000228bc       0x1c drivers/built-in.o
                0x00000000000228bc                uclass_pre_remove_device
 .text.dm_warn  0x00000000000228d8       0x78 drivers/built-in.o
                0x00000000000228d8                dm_warn
 .text.device_unbind
                0x0000000000022950      0x134 drivers/built-in.o
                0x0000000000022950                device_unbind
 .text.device_free
                0x0000000000022a84       0x80 drivers/built-in.o
                0x0000000000022a84                device_free
 .text.device_remove
                0x0000000000022b04      0x180 drivers/built-in.o
                0x0000000000022b04                device_remove
 .text.simple_bus_post_bind
                0x0000000000022c84       0x64 drivers/built-in.o
 .text.show_devices
                0x0000000000022ce8      0x130 drivers/built-in.o
 .text.dm_dump_all
                0x0000000000022e18       0x54 drivers/built-in.o
                0x0000000000022e18                dm_dump_all
 .text.dm_dump_uclass
                0x0000000000022e6c      0x118 drivers/built-in.o
                0x0000000000022e6c                dm_dump_uclass
 .text.pinconfig_post_bind
                0x0000000000022f84      0x100 drivers/built-in.o
 .text.pinctrl_post_bind
                0x0000000000023084       0x28 drivers/built-in.o
 .text.pinctrl_select_state
                0x00000000000230ac      0x19c drivers/built-in.o
                0x00000000000230ac                pinctrl_select_state
 .text.pinctrl_generic_set_state_subnode
                0x0000000000023248      0x2a0 drivers/built-in.o
 .text.pinctrl_generic_set_state
                0x00000000000234e8       0x58 drivers/built-in.o
                0x00000000000234e8                pinctrl_generic_set_state
 .text.armada_37xx_pmx_get_func_name
                0x0000000000023540       0x30 drivers/built-in.o
 .text.armada_37xx_pmx_get_funcs_count
                0x0000000000023570       0x18 drivers/built-in.o
 .text.armada_37xx_pmx_get_group_name
                0x0000000000023588       0x38 drivers/built-in.o
 .text.armada_37xx_pmx_get_groups_count
                0x00000000000235c0       0x18 drivers/built-in.o
 .text.armada_37xx_gpio_get_direction
                0x00000000000235d8       0x50 drivers/built-in.o
 .text.armada_37xx_gpio_set
                0x0000000000023628       0x64 drivers/built-in.o
 .text.armada_37xx_gpio_get
                0x000000000002368c       0x50 drivers/built-in.o
 .text.armada_37xx_gpio_direction_output
                0x00000000000236dc       0x68 drivers/built-in.o
 .text.armada_37xx_gpio_direction_input
                0x0000000000023744       0x50 drivers/built-in.o
 .text.armada_37xx_pmx_group_set
                0x0000000000023794       0xa8 drivers/built-in.o
 .text.armada_37xx_gpio_probe
                0x000000000002383c       0x48 drivers/built-in.o
 .text.armada_37xx_pinctrl_probe
                0x0000000000023884      0x330 drivers/built-in.o
                0x0000000000023884                armada_37xx_pinctrl_probe
 .text.get_desc
                0x0000000000023bb4       0xd0 drivers/built-in.o
 .text.blk_get_devnum_by_typename
                0x0000000000023c84       0xf8 drivers/built-in.o
                0x0000000000023c84                blk_get_devnum_by_typename
 .text.blk_list_part
                0x0000000000023d7c       0x7c drivers/built-in.o
                0x0000000000023d7c                blk_list_part
 .text.blk_print_part_devnum
                0x0000000000023df8       0x3c drivers/built-in.o
                0x0000000000023df8                blk_print_part_devnum
 .text.blk_list_devices
                0x0000000000023e34       0x78 drivers/built-in.o
                0x0000000000023e34                blk_list_devices
 .text.blk_print_device_num
                0x0000000000023eac       0x48 drivers/built-in.o
                0x0000000000023eac                blk_print_device_num
 .text.blk_show_device
                0x0000000000023ef4       0x7c drivers/built-in.o
                0x0000000000023ef4                blk_show_device
 .text.blk_select_hwpart
                0x0000000000023f70       0x28 drivers/built-in.o
                0x0000000000023f70                blk_select_hwpart
 .text.blk_dselect_hwpart
                0x0000000000023f98        0x8 drivers/built-in.o
                0x0000000000023f98                blk_dselect_hwpart
 .text.blk_first_device
                0x0000000000023fa0       0x60 drivers/built-in.o
                0x0000000000023fa0                blk_first_device
 .text.blk_next_device
                0x0000000000024000       0x58 drivers/built-in.o
                0x0000000000024000                blk_next_device
 .text.blk_get_device
                0x0000000000024058       0x98 drivers/built-in.o
                0x0000000000024058                blk_get_device
 .text.blk_get_devnum_by_type
                0x00000000000240f0       0x2c drivers/built-in.o
                0x00000000000240f0                blk_get_devnum_by_type
 .text.blk_select_hwpart_devnum
                0x000000000002411c       0x34 drivers/built-in.o
                0x000000000002411c                blk_select_hwpart_devnum
 .text.blk_dread
                0x0000000000024150       0xb8 drivers/built-in.o
                0x0000000000024150                blk_dread
 .text.blk_read_devnum
                0x0000000000024208       0x78 drivers/built-in.o
                0x0000000000024208                blk_read_devnum
 .text.blk_dwrite
                0x0000000000024280       0x80 drivers/built-in.o
                0x0000000000024280                blk_dwrite
 .text.blk_write_devnum
                0x0000000000024300       0x54 drivers/built-in.o
                0x0000000000024300                blk_write_devnum
 .text.blk_derase
                0x0000000000024354       0x6c drivers/built-in.o
                0x0000000000024354                blk_derase
 .text.blk_prepare_device
                0x00000000000243c0       0x1c drivers/built-in.o
                0x00000000000243c0                blk_prepare_device
 .text.blk_find_max_devnum
                0x00000000000243dc       0x88 drivers/built-in.o
                0x00000000000243dc                blk_find_max_devnum
 .text.blk_create_device
                0x0000000000024464       0xd0 drivers/built-in.o
                0x0000000000024464                blk_create_device
 .text.blk_create_devicef
                0x0000000000024534       0xc8 drivers/built-in.o
                0x0000000000024534                blk_create_devicef
 .text.blk_unbind_all
                0x00000000000245fc       0xa0 drivers/built-in.o
                0x00000000000245fc                blk_unbind_all
 .text.scsi_post_probe
                0x000000000002469c       0x74 drivers/built-in.o
 .text.scsi_post_bind
                0x0000000000024710       0x84 drivers/built-in.o
 .text.ata_id_strcpy
                0x0000000000024794       0x30 drivers/built-in.o
 .text.ahci_port_start
                0x00000000000247c4      0x13c drivers/built-in.o
 .text.ahci_device_data_io.constprop.3
                0x0000000000024900      0x1dc drivers/built-in.o
 .text.ata_scsiop_inquiry
                0x0000000000024adc      0x168 drivers/built-in.o
 .text.ata_scsiop_read_write
                0x0000000000024c44      0x2a0 drivers/built-in.o
 .text.ahci_port_base
                0x0000000000024ee4       0x10 drivers/built-in.o
                0x0000000000024ee4                ahci_port_base
 .text.ahci_link_up
                0x0000000000024ef4       0x60 drivers/built-in.o
                0x0000000000024ef4                ahci_link_up
 .text.ahci_reset
                0x0000000000024f54       0x74 drivers/built-in.o
                0x0000000000024f54                ahci_reset
 .text.scsi_exec
                0x0000000000024fc8      0x17c drivers/built-in.o
                0x0000000000024fc8                scsi_exec
 .text.ahci_init
                0x0000000000025144      0x608 drivers/built-in.o
                0x0000000000025144                ahci_init
 .text.scsi_bus_reset
                0x000000000002574c        0x4 drivers/built-in.o
                0x000000000002574c                scsi_bus_reset
 .text.scsi_print_error
                0x0000000000025750        0x4 drivers/built-in.o
                0x0000000000025750                scsi_print_error
 .text.ata_id_n_sectors
                0x0000000000025754       0x58 drivers/built-in.o
                0x0000000000025754                ata_id_n_sectors
 .text.ata_swap_buf_le16
                0x00000000000257ac        0x4 drivers/built-in.o
                0x00000000000257ac                ata_swap_buf_le16
 .text.mvebu_scsi_probe
                0x00000000000257b0        0x8 drivers/built-in.o
 .text.blkcache_read
                0x00000000000257b8       0xec drivers/built-in.o
                0x00000000000257b8                blkcache_read
 .text.blkcache_fill
                0x00000000000258a4      0x14c drivers/built-in.o
                0x00000000000258a4                blkcache_fill
 .text.blkcache_invalidate
                0x00000000000259f0       0xa0 drivers/built-in.o
                0x00000000000259f0                blkcache_invalidate
 .text.blkcache_configure
                0x0000000000025a90       0xa0 drivers/built-in.o
                0x0000000000025a90                blkcache_configure
 .text.blkcache_stats
                0x0000000000025b30       0x34 drivers/built-in.o
                0x0000000000025b30                blkcache_stats
 .text.comphy_cp110_init
                0x0000000000025b64        0x8 drivers/built-in.o
 .text.get_type_string
                0x0000000000025b6c       0x50 drivers/built-in.o
 .text.reg_set_silent
                0x0000000000025bbc       0x1c drivers/built-in.o
                0x0000000000025bbc                reg_set_silent
 .text.reg_set  0x0000000000025bd8        0x4 drivers/built-in.o
                0x0000000000025bd8                reg_set
 .text.reg_set_silent16
                0x0000000000025bdc       0x28 drivers/built-in.o
                0x0000000000025bdc                reg_set_silent16
 .text.reg_set16
                0x0000000000025c04        0x4 drivers/built-in.o
                0x0000000000025c04                reg_set16
 .text.comphy_print
                0x0000000000025c08       0xcc drivers/built-in.o
                0x0000000000025c08                comphy_print
 .text.comphy_probe
                0x0000000000025cd4      0x2b4 drivers/built-in.o
 .text.comphy_mux_init
                0x0000000000025f88      0x120 drivers/built-in.o
                0x0000000000025f88                comphy_mux_init
 .text.usb3_reg_set_indirect
                0x00000000000260a8       0x44 drivers/built-in.o
 .text.comphy_a3700_mux_init
                0x00000000000260ec      0x118 drivers/built-in.o
 .text.usb_phy_reg_set_direct
                0x0000000000026204       0x14 drivers/built-in.o
 .text.comphy_poll_reg.constprop.2
                0x0000000000026218       0x80 drivers/built-in.o
 .text.comphy_dedicated_phys_init
                0x0000000000026298      0x350 drivers/built-in.o
                0x0000000000026298                comphy_dedicated_phys_init
 .text.comphy_a3700_init
                0x00000000000265e8      0x874 drivers/built-in.o
                0x00000000000265e8                comphy_a3700_init
 .text.gpio_to_device
                0x0000000000026e5c       0x88 drivers/gpio/built-in.o
 .text.check_reserved
                0x0000000000026ee4       0x78 drivers/gpio/built-in.o
 .text.gpio_renumber
                0x0000000000026f5c       0x90 drivers/gpio/built-in.o
 .text.gpio_pre_remove
                0x0000000000026fec       0x5c drivers/gpio/built-in.o
 .text.gpio_post_probe
                0x0000000000027048       0x48 drivers/gpio/built-in.o
 .text.dm_gpio_lookup_name
                0x0000000000027090      0x108 drivers/gpio/built-in.o
                0x0000000000027090                dm_gpio_lookup_name
 .text.gpio_lookup_name
                0x0000000000027198       0x7c drivers/gpio/built-in.o
                0x0000000000027198                gpio_lookup_name
 .text.gpio_xlate_offs_flags
                0x0000000000027214       0x38 drivers/gpio/built-in.o
                0x0000000000027214                gpio_xlate_offs_flags
 .text.dm_gpio_request
                0x000000000002724c       0xb4 drivers/gpio/built-in.o
                0x000000000002724c                dm_gpio_request
 .text.dm_gpio_requestf
                0x0000000000027300       0xa0 drivers/gpio/built-in.o
 .text.gpio_request
                0x00000000000273a0       0x34 drivers/gpio/built-in.o
                0x00000000000273a0                gpio_request
 .text._dm_gpio_free
                0x00000000000273d4       0x84 drivers/gpio/built-in.o
                0x00000000000273d4                _dm_gpio_free
 .text.gpio_free
                0x0000000000027458       0x28 drivers/gpio/built-in.o
                0x0000000000027458                gpio_free
 .text.gpio_direction_input
                0x0000000000027480       0x48 drivers/gpio/built-in.o
                0x0000000000027480                gpio_direction_input
 .text.gpio_direction_output
                0x00000000000274c8       0x58 drivers/gpio/built-in.o
                0x00000000000274c8                gpio_direction_output
 .text.dm_gpio_get_value
                0x0000000000027520       0x54 drivers/gpio/built-in.o
                0x0000000000027520                dm_gpio_get_value
 .text.dm_gpio_set_value
                0x0000000000027574       0x60 drivers/gpio/built-in.o
                0x0000000000027574                dm_gpio_set_value
 .text.dm_gpio_set_dir_flags
                0x00000000000275d4       0x9c drivers/gpio/built-in.o
                0x00000000000275d4                dm_gpio_set_dir_flags
 .text._gpio_request_by_name_nodev
                0x0000000000027670      0x104 drivers/gpio/built-in.o
 .text.gpio_get_value
                0x0000000000027774       0x24 drivers/gpio/built-in.o
                0x0000000000027774                gpio_get_value
 .text.gpio_get_bank_info
                0x0000000000027798       0x2c drivers/gpio/built-in.o
                0x0000000000027798                gpio_get_bank_info
 .text.get_function
                0x00000000000277c4       0xac drivers/gpio/built-in.o
                0x00000000000277c4                get_function
 .text.gpio_get_function
                0x0000000000027870        0xc drivers/gpio/built-in.o
                0x0000000000027870                gpio_get_function
 .text.gpio_get_raw_function
                0x000000000002787c        0xc drivers/gpio/built-in.o
                0x000000000002787c                gpio_get_raw_function
 .text.gpio_get_status
                0x0000000000027888      0x138 drivers/gpio/built-in.o
                0x0000000000027888                gpio_get_status
 .text.gpio_request_by_name_nodev
                0x00000000000279c0        0xc drivers/gpio/built-in.o
                0x00000000000279c0                gpio_request_by_name_nodev
 .text.gpio_request_by_name
                0x00000000000279cc       0x20 drivers/gpio/built-in.o
                0x00000000000279cc                gpio_request_by_name
 .text.mvebu_gpio_get_function
                0x00000000000279ec       0x3c drivers/gpio/built-in.o
 .text.mvebu_gpio_set_value
                0x0000000000027a28       0x4c drivers/gpio/built-in.o
 .text.mvebu_gpio_get_value
                0x0000000000027a74       0x38 drivers/gpio/built-in.o
 .text.mvebu_gpio_direction_output
                0x0000000000027aac       0x60 drivers/gpio/built-in.o
 .text.mvebu_gpio_direction_input
                0x0000000000027b0c       0x3c drivers/gpio/built-in.o
 .text.mvebu_gpio_probe
                0x0000000000027b48       0x64 drivers/gpio/built-in.o
 .text.i2c_setup_offset
                0x0000000000027bac       0x60 drivers/i2c/built-in.o
 .text.dm_i2c_read
                0x0000000000027c0c      0x180 drivers/i2c/built-in.o
                0x0000000000027c0c                dm_i2c_read
 .text.dm_i2c_write
                0x0000000000027d8c      0x1e4 drivers/i2c/built-in.o
                0x0000000000027d8c                dm_i2c_write
 .text.i2c_get_chip
                0x0000000000027f70      0x104 drivers/i2c/built-in.o
                0x0000000000027f70                i2c_get_chip
 .text.i2c_get_chip_for_busnum
                0x0000000000028074       0x54 drivers/i2c/built-in.o
                0x0000000000028074                i2c_get_chip_for_busnum
 .text.dm_i2c_probe
                0x00000000000280c8       0xa8 drivers/i2c/built-in.o
                0x00000000000280c8                dm_i2c_probe
 .text.dm_i2c_set_bus_speed
                0x0000000000028170       0x5c drivers/i2c/built-in.o
                0x0000000000028170                dm_i2c_set_bus_speed
 .text.i2c_post_probe
                0x00000000000281cc       0x4c drivers/i2c/built-in.o
 .text.dm_i2c_get_bus_speed
                0x0000000000028218       0x44 drivers/i2c/built-in.o
                0x0000000000028218                dm_i2c_get_bus_speed
 .text.i2c_set_chip_flags
                0x000000000002825c       0x60 drivers/i2c/built-in.o
                0x000000000002825c                i2c_set_chip_flags
 .text.i2c_get_chip_flags
                0x00000000000282bc       0x2c drivers/i2c/built-in.o
                0x00000000000282bc                i2c_get_chip_flags
 .text.i2c_set_chip_offset_len
                0x00000000000282e8       0x38 drivers/i2c/built-in.o
                0x00000000000282e8                i2c_set_chip_offset_len
 .text.i2c_get_chip_offset_len
                0x0000000000028320       0x18 drivers/i2c/built-in.o
                0x0000000000028320                i2c_get_chip_offset_len
 .text.i2c_deblock
                0x0000000000028338       0x1c drivers/i2c/built-in.o
                0x0000000000028338                i2c_deblock
 .text.i2c_chip_ofdata_to_platdata
                0x0000000000028354       0x60 drivers/i2c/built-in.o
                0x0000000000028354                i2c_chip_ofdata_to_platdata
 .text.i2c_child_post_bind
                0x00000000000283b4       0x44 drivers/i2c/built-in.o
 .text.mv_i2c_set_bus_speed
                0x00000000000283f8       0x4c drivers/i2c/built-in.o
 .text.i2c_isr_set_cleared
                0x0000000000028444       0x70 drivers/i2c/built-in.o
 .text.mv_i2c_probe
                0x00000000000284b4       0x34 drivers/i2c/built-in.o
 .text.i2c_clk_enable
                0x00000000000284e8        0x4 drivers/i2c/built-in.o
                0x00000000000284e8                i2c_clk_enable
 .text.i2c_reset
                0x00000000000284ec       0xac drivers/i2c/built-in.o
 .text.i2c_transfer
                0x0000000000028598      0x2c0 drivers/i2c/built-in.o
 .text.mv_i2c_xfer
                0x0000000000028858      0x24c drivers/i2c/built-in.o
 .text.dm_mmc_set_ios
                0x0000000000028aa4       0x1c drivers/mmc/built-in.o
                0x0000000000028aa4                dm_mmc_set_ios
 .text.mmc_set_ios
                0x0000000000028ac0        0x8 drivers/mmc/built-in.o
                0x0000000000028ac0                mmc_set_ios
 .text.dm_mmc_get_wp
                0x0000000000028ac8       0x1c drivers/mmc/built-in.o
                0x0000000000028ac8                dm_mmc_get_wp
 .text.mmc_getwp
                0x0000000000028ae4        0x8 drivers/mmc/built-in.o
                0x0000000000028ae4                mmc_getwp
 .text.dm_mmc_get_cd
                0x0000000000028aec       0x1c drivers/mmc/built-in.o
                0x0000000000028aec                dm_mmc_get_cd
 .text.mmc_getcd
                0x0000000000028b08        0x8 drivers/mmc/built-in.o
                0x0000000000028b08                mmc_getcd
 .text.mmc_get_mmc_dev
                0x0000000000028b10       0x28 drivers/mmc/built-in.o
                0x0000000000028b10                mmc_get_mmc_dev
 .text.dm_mmc_send_cmd
                0x0000000000028b38       0x60 drivers/mmc/built-in.o
                0x0000000000028b38                dm_mmc_send_cmd
 .text.mmc_send_cmd
                0x0000000000028b98        0x8 drivers/mmc/built-in.o
                0x0000000000028b98                mmc_send_cmd
 .text.mmc_select_hwpart
                0x0000000000028ba0       0x78 drivers/mmc/built-in.o
 .text.find_mmc_device
                0x0000000000028c18       0x54 drivers/mmc/built-in.o
                0x0000000000028c18                find_mmc_device
 .text.mmc_blk_probe
                0x0000000000028c6c       0x2c drivers/mmc/built-in.o
 .text.get_mmc_num
                0x0000000000028c98       0x20 drivers/mmc/built-in.o
                0x0000000000028c98                get_mmc_num
 .text.mmc_get_blk_desc
                0x0000000000028cb8       0x30 drivers/mmc/built-in.o
                0x0000000000028cb8                mmc_get_blk_desc
 .text.mmc_do_preinit
                0x0000000000028ce8       0x68 drivers/mmc/built-in.o
                0x0000000000028ce8                mmc_do_preinit
 .text.print_mmc_devices
                0x0000000000028d50       0xf8 drivers/mmc/built-in.o
                0x0000000000028d50                print_mmc_devices
 .text.mmc_bind
                0x0000000000028e48       0xb4 drivers/mmc/built-in.o
                0x0000000000028e48                mmc_bind
 .text.mmc_send_ext_csd
                0x0000000000028efc       0x40 drivers/mmc/built-in.o
 .text.mmc_send_op_cond_iter
                0x0000000000028f3c       0x74 drivers/mmc/built-in.o
 .text.mmc_go_idle
                0x0000000000028fb0       0x50 drivers/mmc/built-in.o
 .text.mmc_set_capacity
                0x0000000000029000       0xa8 drivers/mmc/built-in.o
 .text.mmc_send_status
                0x00000000000290a8       0xd4 drivers/mmc/built-in.o
                0x00000000000290a8                mmc_send_status
 .text.mmc_set_blocklen
                0x000000000002917c       0x3c drivers/mmc/built-in.o
                0x000000000002917c                mmc_set_blocklen
 .text.mmc_bread
                0x00000000000291b8      0x18c drivers/mmc/built-in.o
                0x00000000000291b8                mmc_bread
 .text.mmc_switch
                0x0000000000029344       0x6c drivers/mmc/built-in.o
                0x0000000000029344                mmc_switch
 .text.mmc_switch_part
                0x00000000000293b0       0x7c drivers/mmc/built-in.o
                0x00000000000293b0                mmc_switch_part
 .text.mmc_hwpart_config
                0x000000000002942c      0x3d8 drivers/mmc/built-in.o
                0x000000000002942c                mmc_hwpart_config
 .text.mmc_set_clock
                0x0000000000029804       0x24 drivers/mmc/built-in.o
                0x0000000000029804                mmc_set_clock
 .text.mmc_startup
                0x0000000000029828      0xbe4 drivers/mmc/built-in.o
 .text.board_mmc_power_init
                0x000000000002a40c        0x4 drivers/mmc/built-in.o
                0x000000000002a40c                board_mmc_power_init
 .text.mmc_start_init
                0x000000000002a410      0x268 drivers/mmc/built-in.o
                0x000000000002a410                mmc_start_init
 .text.mmc_init
                0x000000000002a678      0x13c drivers/mmc/built-in.o
                0x000000000002a678                mmc_init
 .text.mmc_set_dsr
                0x000000000002a7b4       0x10 drivers/mmc/built-in.o
                0x000000000002a7b4                mmc_set_dsr
 .text.mmc_initialize
                0x000000000002a7c4       0xdc drivers/mmc/built-in.o
                0x000000000002a7c4                mmc_initialize
 .text.mmc_berase
                0x000000000002a8a0      0x1e0 drivers/mmc/built-in.o
                0x000000000002a8a0                mmc_berase
 .text.mmc_bwrite
                0x000000000002aa80      0x1b0 drivers/mmc/built-in.o
                0x000000000002aa80                mmc_bwrite
 .text.sdhci_reset.isra.3
                0x000000000002ac30       0x88 drivers/mmc/built-in.o
 .text.sdhci_send_command
                0x000000000002acb8      0x57c drivers/mmc/built-in.o
 .text.sdhci_set_ios
                0x000000000002b234      0x298 drivers/mmc/built-in.o
 .text.sdhci_probe
                0x000000000002b4cc      0x19c drivers/mmc/built-in.o
                0x000000000002b4cc                sdhci_probe
 .text.sdhci_setup_cfg
                0x000000000002b668      0x198 drivers/mmc/built-in.o
                0x000000000002b668                sdhci_setup_cfg
 .text.sdhci_bind
                0x000000000002b800        0x4 drivers/mmc/built-in.o
                0x000000000002b800                sdhci_bind
 .text.xenon_sdhci_ofdata_to_platdata
                0x000000000002b804       0xf8 drivers/mmc/built-in.o
 .text.xenon_sdhci_set_ios_post
                0x000000000002b8fc      0x360 drivers/mmc/built-in.o
 .text.xenon_sdhci_bind
                0x000000000002bc5c       0x2c drivers/mmc/built-in.o
 .text.xenon_sdhci_probe
                0x000000000002bc88      0x234 drivers/mmc/built-in.o
 .text.mtd_arg_off
                0x000000000002bebc       0x7c drivers/mtd/built-in.o
                0x000000000002bebc                mtd_arg_off
 .text.mtd_arg_off_size
                0x000000000002bf38      0x118 drivers/mtd/built-in.o
                0x000000000002bf38                mtd_arg_off_size
 .text.spi_flash_post_bind
                0x000000000002c050        0x8 drivers/mtd/spi/built-in.o
 .text.spi_flash_read_dm
                0x000000000002c058       0x10 drivers/mtd/spi/built-in.o
                0x000000000002c058                spi_flash_read_dm
 .text.spi_flash_write_dm
                0x000000000002c068       0x10 drivers/mtd/spi/built-in.o
                0x000000000002c068                spi_flash_write_dm
 .text.spi_flash_erase_dm
                0x000000000002c078       0x10 drivers/mtd/spi/built-in.o
                0x000000000002c078                spi_flash_erase_dm
 .text.spi_flash_free
                0x000000000002c088       0x10 drivers/mtd/spi/built-in.o
                0x000000000002c088                spi_flash_free
 .text.spi_flash_probe_bus_cs
                0x000000000002c098       0x98 drivers/mtd/spi/built-in.o
                0x000000000002c098                spi_flash_probe_bus_cs
 .text.spi_flash_probe
                0x000000000002c130       0x2c drivers/mtd/spi/built-in.o
                0x000000000002c130                spi_flash_probe
 .text.spi_flash_std_erase
                0x000000000002c15c       0x2c drivers/mtd/spi/built-in.o
 .text.spi_flash_std_write
                0x000000000002c188       0x3c drivers/mtd/spi/built-in.o
 .text.spi_flash_std_read
                0x000000000002c1c4       0x3c drivers/mtd/spi/built-in.o
 .text.spi_flash_std_probe
                0x000000000002c200       0x80 drivers/mtd/spi/built-in.o
 .text.stm_is_locked_sr
                0x000000000002c280       0x48 drivers/mtd/spi/built-in.o
 .text.spi_flash_read_common
                0x000000000002c2c8       0x74 drivers/mtd/spi/built-in.o
                0x000000000002c2c8                spi_flash_read_common
 .text.read_sr  0x000000000002c33c       0x38 drivers/mtd/spi/built-in.o
 .text.stm_is_locked
                0x000000000002c374       0x4c drivers/mtd/spi/built-in.o
                0x000000000002c374                stm_is_locked
 .text.spi_flash_write_common
                0x000000000002c3c0      0x164 drivers/mtd/spi/built-in.o
                0x000000000002c3c0                spi_flash_write_common
 .text.spi_flash_cmd_erase_ops
                0x000000000002c524       0xe4 drivers/mtd/spi/built-in.o
                0x000000000002c524                spi_flash_cmd_erase_ops
 .text.spi_flash_cmd_write_ops
                0x000000000002c608      0x104 drivers/mtd/spi/built-in.o
                0x000000000002c608                spi_flash_cmd_write_ops
 .text.write_sr
                0x000000000002c70c       0x38 drivers/mtd/spi/built-in.o
 .text.stm_lock
                0x000000000002c744      0x194 drivers/mtd/spi/built-in.o
                0x000000000002c744                stm_lock
 .text.stm_unlock
                0x000000000002c8d8      0x200 drivers/mtd/spi/built-in.o
                0x000000000002c8d8                stm_unlock
 .text.spi_flash_copy_mmap
                0x000000000002cad8        0x4 drivers/mtd/spi/built-in.o
                0x000000000002cad8                spi_flash_copy_mmap
 .text.spi_flash_cmd_read_ops
                0x000000000002cadc      0x158 drivers/mtd/spi/built-in.o
                0x000000000002cadc                spi_flash_cmd_read_ops
 .text.spi_flash_decode_fdt
                0x000000000002cc34       0x5c drivers/mtd/spi/built-in.o
                0x000000000002cc34                spi_flash_decode_fdt
 .text.spi_flash_scan
                0x000000000002cc90      0x4a8 drivers/mtd/spi/built-in.o
                0x000000000002cc90                spi_flash_scan
 .text.spi_flash_read_write
                0x000000000002d138       0xb8 drivers/mtd/spi/built-in.o
 .text.spi_flash_cmd_read
                0x000000000002d1f0       0x10 drivers/mtd/spi/built-in.o
                0x000000000002d1f0                spi_flash_cmd_read
 .text.spi_flash_cmd
                0x000000000002d200       0x2c drivers/mtd/spi/built-in.o
                0x000000000002d200                spi_flash_cmd
 .text.spi_flash_cmd_write
                0x000000000002d22c        0xc drivers/mtd/spi/built-in.o
                0x000000000002d22c                spi_flash_cmd_write
 .text.e1000_config_collision_dist
                0x000000000002d238       0x40 drivers/net/built-in.o
 .text.e1000_force_mac_fc
                0x000000000002d278       0x80 drivers/net/built-in.o
 .text.e1000_eth_send
                0x000000000002d2f8      0x120 drivers/net/built-in.o
 .text.e1000_eth_bind
                0x000000000002d418       0x48 drivers/net/built-in.o
 .text.e1000_is_onboard_nvm_eeprom
                0x000000000002d460       0x40 drivers/net/built-in.o
 .text.e1000_put_hw_eeprom_semaphore
                0x000000000002d4a0       0x40 drivers/net/built-in.o
 .text.e1000_is_second_port
                0x000000000002d4e0       0x44 drivers/net/built-in.o
 .text.e1000_check_phy_reset_block
                0x000000000002d524       0x50 drivers/net/built-in.o
 .text.e1000_set_media_type
                0x000000000002d574       0xcc drivers/net/built-in.o
 .text.e1000_eth_stop
                0x000000000002d640       0x7c drivers/net/built-in.o
 .text.e1000_get_hw_eeprom_semaphore
                0x000000000002d6bc       0xc8 drivers/net/built-in.o
 .text.e1000_swfw_sync_acquire
                0x000000000002d784       0xb4 drivers/net/built-in.o
 .text.e1000_write_kmrn_reg
                0x000000000002d838       0x78 drivers/net/built-in.o
 .text.e1000_swfw_sync_release
                0x000000000002d8b0       0x54 drivers/net/built-in.o
 .text.e1000_raise_mdi_clk.isra.9
                0x000000000002d904       0x20 drivers/net/built-in.o
 .text.e1000_lower_mdi_clk.isra.10
                0x000000000002d924       0x20 drivers/net/built-in.o
 .text.e1000_shift_out_mdi_bits
                0x000000000002d944       0xa4 drivers/net/built-in.o
 .text.e1000_read_phy_reg
                0x000000000002d9e8      0x16c drivers/net/built-in.o
 .text.e1000_config_mac_to_phy
                0x000000000002db54       0xa0 drivers/net/built-in.o
 .text.e1000_write_phy_reg
                0x000000000002dbf4       0xb8 drivers/net/built-in.o
 .text.e1000_config_fc_after_link_up
                0x000000000002dcac      0x29c drivers/net/built-in.o
 .text.e1000_phy_hw_reset.part.15
                0x000000000002df48      0x230 drivers/net/built-in.o
 .text.e1000_phy_reset.part.16
                0x000000000002e178      0x130 drivers/net/built-in.o
 .text.e1000_eth_recv
                0x000000000002e2a8       0x84 drivers/net/built-in.o
 .text.e1000_raise_ee_clk
                0x000000000002e32c       0x28 drivers/net/built-in.o
                0x000000000002e32c                e1000_raise_ee_clk
 .text.e1000_lower_ee_clk
                0x000000000002e354       0x28 drivers/net/built-in.o
                0x000000000002e354                e1000_lower_ee_clk
 .text.e1000_shift_out_ee_bits
                0x000000000002e37c       0xc0 drivers/net/built-in.o
 .text.e1000_shift_in_ee_bits
                0x000000000002e43c       0x9c drivers/net/built-in.o
 .text.e1000_standby_eeprom
                0x000000000002e4d8       0xfc drivers/net/built-in.o
                0x000000000002e4d8                e1000_standby_eeprom
 .text.e1000_acquire_eeprom
                0x000000000002e5d4      0x108 drivers/net/built-in.o
                0x000000000002e5d4                e1000_acquire_eeprom
 .text.e1000_release_eeprom
                0x000000000002e6dc       0xc8 drivers/net/built-in.o
                0x000000000002e6dc                e1000_release_eeprom
 .text.e1000_read_eeprom
                0x000000000002e7a4      0x278 drivers/net/built-in.o
 .text.e1000_init_eeprom_params
                0x000000000002ea1c      0x2a0 drivers/net/built-in.o
 .text.e1000_set_mac_type
                0x000000000002ecbc      0x370 drivers/net/built-in.o
                0x000000000002ecbc                e1000_set_mac_type
 .text.e1000_reset_hw
                0x000000000002f02c      0x214 drivers/net/built-in.o
                0x000000000002f02c                e1000_reset_hw
 .text.fill_rx  0x000000000002f240       0xac drivers/net/built-in.o
                0x000000000002f240                fill_rx
 .text.e1000_free_pkt
                0x000000000002f2ec       0x1c drivers/net/built-in.o
 .text.e1000_eth_start
                0x000000000002f308     0x1cb4 drivers/net/built-in.o
 .text.e1000_get_bus_type
                0x0000000000030fbc       0x50 drivers/net/built-in.o
                0x0000000000030fbc                e1000_get_bus_type
 .text.e1000_eth_probe
                0x000000000003100c      0x424 drivers/net/built-in.o
 .text.mvneta_port_up
                0x0000000000031430       0x5c drivers/net/built-in.o
 .text.smi_wait_ready
                0x000000000003148c       0x44 drivers/net/built-in.o
 .text.mvneta_mdio_write
                0x00000000000314d0       0x98 drivers/net/built-in.o
 .text.mvneta_mdio_read
                0x0000000000031568       0xc8 drivers/net/built-in.o
 .text.mvneta_port_down
                0x0000000000031630      0x128 drivers/net/built-in.o
 .text.mvneta_ofdata_to_platdata
                0x0000000000031758       0x6c drivers/net/built-in.o
 .text.mvneta_rxq_desc_num_update.isra.4
                0x00000000000317c4       0x9c drivers/net/built-in.o
 .text.mvneta_port_power_up
                0x0000000000031860       0x94 drivers/net/built-in.o
 .text.mvneta_recv
                0x00000000000318f4      0x12c drivers/net/built-in.o
 .text.mvneta_send
                0x0000000000031a20      0x148 drivers/net/built-in.o
 .text.mvneta_init
                0x0000000000031b68      0x6f8 drivers/net/built-in.o
 .text.mvneta_stop
                0x0000000000032260       0x44 drivers/net/built-in.o
 .text.mvneta_start
                0x00000000000322a4      0x13c drivers/net/built-in.o
 .text.board_network_enable
                0x00000000000323e0        0x8 drivers/net/built-in.o
                0x00000000000323e0                board_network_enable
 .text.mvneta_probe
                0x00000000000323e8      0x2f0 drivers/net/built-in.o
 .text.mv88e6xxx_reg_wait_ready.isra.0
                0x00000000000326d8       0x70 drivers/net/phy/built-in.o
 .text.mv88e6xxx_read_register
                0x0000000000032748       0xcc drivers/net/phy/built-in.o
                0x0000000000032748                mv88e6xxx_read_register
 .text.mv88e6xxx_reg_wait_ready_indirect
                0x0000000000032814       0x4c drivers/net/phy/built-in.o
 .text.mv88e6xxx_write_register
                0x0000000000032860       0xec drivers/net/phy/built-in.o
                0x0000000000032860                mv88e6xxx_write_register
 .text.mv88e6xxx_write_indirect
                0x000000000003294c       0x74 drivers/net/phy/built-in.o
 .text.mv88e6xxx_read_phy_register
                0x00000000000329c0       0xb4 drivers/net/phy/built-in.o
                0x00000000000329c0                mv88e6xxx_read_phy_register
 .text.mv88e6xxx_write_phy_register
                0x0000000000032a74       0x94 drivers/net/phy/built-in.o
                0x0000000000032a74                mv88e6xxx_write_phy_register
 .text.mv88e6xxx_display_switch_info
                0x0000000000032b08       0xd0 drivers/net/phy/built-in.o
                0x0000000000032b08                mv88e6xxx_display_switch_info
 .text.mv88e6xxx_get_link_status
                0x0000000000032bd8       0xd4 drivers/net/phy/built-in.o
                0x0000000000032bd8                mv88e6xxx_get_link_status
 .text.do_sw    0x0000000000032cac      0x3c0 drivers/net/phy/built-in.o
 .text.mv88e6xxx_get_switch_id
                0x000000000003306c       0x58 drivers/net/phy/built-in.o
                0x000000000003306c                mv88e6xxx_get_switch_id
 .text.mv88e6xxx_initialize
                0x00000000000330c4      0x1f4 drivers/net/phy/built-in.o
                0x00000000000330c4                mv88e6xxx_initialize
 .text.genphy_shutdown
                0x00000000000332b8        0x8 drivers/net/phy/built-in.o
                0x00000000000332b8                genphy_shutdown
 .text.genphy_restart_aneg
                0x00000000000332c0       0x64 drivers/net/phy/built-in.o
                0x00000000000332c0                genphy_restart_aneg
 .text.genphy_config_aneg
                0x0000000000033324      0x22c drivers/net/phy/built-in.o
                0x0000000000033324                genphy_config_aneg
 .text.genphy_config
                0x0000000000033550      0x110 drivers/net/phy/built-in.o
                0x0000000000033550                genphy_config
 .text.genphy_update_link
                0x0000000000033660      0x164 drivers/net/phy/built-in.o
                0x0000000000033660                genphy_update_link
 .text.genphy_parse_link
                0x00000000000337c4      0x1b8 drivers/net/phy/built-in.o
                0x00000000000337c4                genphy_parse_link
 .text.genphy_startup
                0x000000000003397c       0x34 drivers/net/phy/built-in.o
                0x000000000003397c                genphy_startup
 .text.phy_init
                0x00000000000339b0       0x18 drivers/net/phy/built-in.o
                0x00000000000339b0                phy_init
 .text.phy_register
                0x00000000000339c8       0x24 drivers/net/phy/built-in.o
                0x00000000000339c8                phy_register
 .text.get_phy_id
                0x00000000000339ec       0x80 drivers/net/phy/built-in.o
                0x00000000000339ec                get_phy_id
 .text.get_phy_device_by_mask
                0x0000000000033a6c      0x2d0 drivers/net/phy/built-in.o
 .text.phy_reset
                0x0000000000033d3c       0xc4 drivers/net/phy/built-in.o
                0x0000000000033d3c                phy_reset
 .text.phy_find_by_mask
                0x0000000000033e00       0x4c drivers/net/phy/built-in.o
                0x0000000000033e00                phy_find_by_mask
 .text.phy_connect_dev
                0x0000000000033e4c       0x58 drivers/net/phy/built-in.o
                0x0000000000033e4c                phy_connect_dev
 .text.phy_connect
                0x0000000000033ea4       0x68 drivers/net/phy/built-in.o
                0x0000000000033ea4                phy_connect
 .text.phy_startup
                0x0000000000033f0c       0x18 drivers/net/phy/built-in.o
                0x0000000000033f0c                phy_startup
 .text.board_phy_config
                0x0000000000033f24       0x18 drivers/net/phy/built-in.o
                0x0000000000033f24                board_phy_config
 .text.phy_config
                0x0000000000033f3c        0x4 drivers/net/phy/built-in.o
                0x0000000000033f3c                phy_config
 .text.phy_get_interface_by_name
                0x0000000000033f40       0x58 drivers/net/phy/built-in.o
                0x0000000000033f40                phy_get_interface_by_name
 .text.m88e2110_probe
                0x0000000000033f98       0x14 drivers/net/phy/built-in.o
 .text.m88e2110_config
                0x0000000000033fac       0xac drivers/net/phy/built-in.o
 .text.m88e2110_startup
                0x0000000000034058      0x214 drivers/net/phy/built-in.o
 .text.m88e1xxx_parse_status
                0x000000000003426c      0x140 drivers/net/phy/built-in.o
 .text.m88e1680_config
                0x00000000000343ac      0x208 drivers/net/phy/built-in.o
 .text.m88e1011s_config
                0x00000000000345b4       0xec drivers/net/phy/built-in.o
 .text.m88e1118_config
                0x00000000000346a0       0xac drivers/net/phy/built-in.o
 .text.m88e1121_config
                0x000000000003474c       0xc8 drivers/net/phy/built-in.o
 .text.m88e1310_config
                0x0000000000034814      0x148 drivers/net/phy/built-in.o
 .text.m88e1011s_startup
                0x000000000003495c       0x34 drivers/net/phy/built-in.o
 .text.m88e1118_startup
                0x0000000000034990       0x54 drivers/net/phy/built-in.o
 .text.m88e1145_config
                0x00000000000349e4      0x104 drivers/net/phy/built-in.o
 .text.m88e1149_config
                0x0000000000034ae8       0xbc drivers/net/phy/built-in.o
 .text.m88e1111s_config
                0x0000000000034ba4      0x218 drivers/net/phy/built-in.o
 .text.m88e1145_startup
                0x0000000000034dbc       0x50 drivers/net/phy/built-in.o
 .text.m88e1518_phy_writebits
                0x0000000000034e0c       0xa0 drivers/net/phy/built-in.o
                0x0000000000034e0c                m88e1518_phy_writebits
 .text.m88e1518_config
                0x0000000000034eac      0x1b4 drivers/net/phy/built-in.o
 .text.m88e1510_config
                0x0000000000035060       0xa0 drivers/net/phy/built-in.o
 .text.phy_marvell_init
                0x0000000000035100       0xa4 drivers/net/phy/built-in.o
                0x0000000000035100                phy_marvell_init
 .text.pci_get_bus_max
                0x00000000000351a4       0x48 drivers/pci/built-in.o
 .text._dm_pci_bus_to_phys
                0x00000000000351ec       0xa8 drivers/pci/built-in.o
 .text.pci_uclass_pre_probe
                0x0000000000035294      0x260 drivers/pci/built-in.o
 .text.pci_uclass_child_post_bind
                0x00000000000354f4       0x7c drivers/pci/built-in.o
 .text.pci_get_bus
                0x0000000000035570       0x60 drivers/pci/built-in.o
                0x0000000000035570                pci_get_bus
 .text.pci_get_controller
                0x00000000000355d0       0x38 drivers/pci/built-in.o
                0x00000000000355d0                pci_get_controller
 .text.dm_pci_get_bdf
                0x0000000000035608       0x30 drivers/pci/built-in.o
                0x0000000000035608                dm_pci_get_bdf
 .text.pci_get_ff
                0x0000000000035638       0x1c drivers/pci/built-in.o
                0x0000000000035638                pci_get_ff
 .text.pci_bus_find_devfn
                0x0000000000035654       0x64 drivers/pci/built-in.o
                0x0000000000035654                pci_bus_find_devfn
 .text.dm_pci_bus_find_bdf
                0x00000000000356b8       0x40 drivers/pci/built-in.o
                0x00000000000356b8                dm_pci_bus_find_bdf
 .text.pci_bus_write_config
                0x00000000000356f8       0x1c drivers/pci/built-in.o
                0x00000000000356f8                pci_bus_write_config
 .text.pci_bridge_write_config
                0x0000000000035714        0xc drivers/pci/built-in.o
 .text.dm_pci_write_config
                0x0000000000035720       0x70 drivers/pci/built-in.o
                0x0000000000035720                dm_pci_write_config
 .text.dm_pci_write_config8
                0x0000000000035790        0xc drivers/pci/built-in.o
                0x0000000000035790                dm_pci_write_config8
 .text.dm_pci_write_config16
                0x000000000003579c        0xc drivers/pci/built-in.o
                0x000000000003579c                dm_pci_write_config16
 .text.dm_pci_write_config32
                0x00000000000357a8        0xc drivers/pci/built-in.o
                0x00000000000357a8                dm_pci_write_config32
 .text.pci_bus_read_config
                0x00000000000357b4       0x1c drivers/pci/built-in.o
                0x00000000000357b4                pci_bus_read_config
 .text.pci_bridge_read_config
                0x00000000000357d0        0xc drivers/pci/built-in.o
 .text.dm_pci_read_config
                0x00000000000357dc       0x70 drivers/pci/built-in.o
                0x00000000000357dc                dm_pci_read_config
 .text.dm_pci_read_config8
                0x000000000003584c       0x34 drivers/pci/built-in.o
                0x000000000003584c                dm_pci_read_config8
 .text.dm_pci_read_config16
                0x0000000000035880       0x34 drivers/pci/built-in.o
                0x0000000000035880                dm_pci_read_config16
 .text.dm_pci_read_config32
                0x00000000000358b4       0x34 drivers/pci/built-in.o
                0x00000000000358b4                dm_pci_read_config32
 .text.pci_auto_config_devices
                0x00000000000358e8       0xbc drivers/pci/built-in.o
                0x00000000000358e8                pci_auto_config_devices
 .text.dm_pci_hose_probe_bus
                0x00000000000359a4       0x84 drivers/pci/built-in.o
                0x00000000000359a4                dm_pci_hose_probe_bus
 .text.pci_bind_bus_devices
                0x0000000000035a28      0x368 drivers/pci/built-in.o
                0x0000000000035a28                pci_bind_bus_devices
 .text.pci_uclass_post_probe
                0x0000000000035d90       0x34 drivers/pci/built-in.o
 .text.pci_conv_32_to_size
                0x0000000000035dc4       0x34 drivers/pci/built-in.o
                0x0000000000035dc4                pci_conv_32_to_size
 .text.pci_conv_size_to_32
                0x0000000000035df8       0x4c drivers/pci/built-in.o
                0x0000000000035df8                pci_conv_size_to_32
 .text.dm_pci_bus_to_phys
                0x0000000000035e44       0x80 drivers/pci/built-in.o
                0x0000000000035e44                dm_pci_bus_to_phys
 .text._dm_pci_phys_to_bus
                0x0000000000035ec4       0xa0 drivers/pci/built-in.o
                0x0000000000035ec4                _dm_pci_phys_to_bus
 .text.dm_pci_phys_to_bus
                0x0000000000035f64       0x74 drivers/pci/built-in.o
                0x0000000000035f64                dm_pci_phys_to_bus
 .text.dm_pci_map_bar
                0x0000000000035fd8       0x3c drivers/pci/built-in.o
                0x0000000000035fd8                dm_pci_map_bar
 .text.pci_init
                0x0000000000036014       0x30 drivers/pci/built-in.o
                0x0000000000036014                pci_init
 .text.dm_pciauto_setup_device
                0x0000000000036044      0x2a0 drivers/pci/built-in.o
                0x0000000000036044                dm_pciauto_setup_device
 .text.dm_pciauto_prescan_setup_bridge
                0x00000000000362e4      0x1c8 drivers/pci/built-in.o
                0x00000000000362e4                dm_pciauto_prescan_setup_bridge
 .text.dm_pciauto_postscan_setup_bridge
                0x00000000000364ac      0x11c drivers/pci/built-in.o
                0x00000000000364ac                dm_pciauto_postscan_setup_bridge
 .text.dm_pciauto_config_device
                0x00000000000365c8       0xd4 drivers/pci/built-in.o
                0x00000000000365c8                dm_pciauto_config_device
 .text.pciauto_region_init
                0x000000000003669c       0x18 drivers/pci/built-in.o
                0x000000000003669c                pciauto_region_init
 .text.pciauto_region_align
                0x00000000000366b4       0x1c drivers/pci/built-in.o
                0x00000000000366b4                pciauto_region_align
 .text.pciauto_region_allocate
                0x00000000000366d0       0x50 drivers/pci/built-in.o
                0x00000000000366d0                pciauto_region_allocate
 .text.pciauto_config_init
                0x0000000000036720       0xdc drivers/pci/built-in.o
                0x0000000000036720                pciauto_config_init
 .text.pci_class_str
                0x00000000000367fc      0x16c drivers/pci/built-in.o
                0x00000000000367fc                pci_class_str
 .text.pcie_advk_ofdata_to_platdata
                0x0000000000036968       0x40 drivers/pci/built-in.o
 .text.pcie_advk_probe
                0x00000000000369a8      0x230 drivers/pci/built-in.o
 .text.pcie_advk_wait_pio.isra.1
                0x0000000000036bd8       0x88 drivers/pci/built-in.o
 .text.pcie_advk_check_pio_status.isra.3
                0x0000000000036c60       0x88 drivers/pci/built-in.o
 .text.pcie_advk_write_config
                0x0000000000036ce8      0x178 drivers/pci/built-in.o
 .text.pcie_advk_read_config
                0x0000000000036e60      0x140 drivers/pci/built-in.o
 .text.regulator_show
                0x0000000000036fa0       0x9c drivers/power/regulator/built-in.o
 .text.regulator_pre_probe
                0x000000000003703c      0x15c drivers/power/regulator/built-in.o
 .text.regulator_post_bind
                0x0000000000037198      0x104 drivers/power/regulator/built-in.o
 .text.regulator_set_value
                0x000000000003729c       0x88 drivers/power/regulator/built-in.o
                0x000000000003729c                regulator_set_value
 .text.regulator_set_enable
                0x0000000000037324       0x48 drivers/power/regulator/built-in.o
                0x0000000000037324                regulator_set_enable
 .text.regulator_get_by_platname
                0x000000000003736c       0x7c drivers/power/regulator/built-in.o
                0x000000000003736c                regulator_get_by_platname
 .text.device_get_supply_regulator
                0x00000000000373e8       0x14 drivers/power/regulator/built-in.o
                0x00000000000373e8                device_get_supply_regulator
 .text.regulator_unset
                0x00000000000373fc       0x40 drivers/power/regulator/built-in.o
                0x00000000000373fc                regulator_unset
 .text.regulators_enable_boot_off
                0x000000000003743c       0x88 drivers/power/regulator/built-in.o
                0x000000000003743c                regulators_enable_boot_off
 .text.fixed_regulator_set_enable
                0x00000000000374c4       0xa4 drivers/power/regulator/built-in.o
 .text.fixed_regulator_get_enable
                0x0000000000037568       0x30 drivers/power/regulator/built-in.o
 .text.fixed_regulator_get_current
                0x0000000000037598       0x30 drivers/power/regulator/built-in.o
 .text.fixed_regulator_get_value
                0x00000000000375c8       0x30 drivers/power/regulator/built-in.o
 .text.fixed_regulator_ofdata_to_platdata
                0x00000000000375f8       0xd4 drivers/power/regulator/built-in.o
 .text.gpio_regulator_set_value
                0x00000000000376cc       0xac drivers/power/regulator/built-in.o
 .text.gpio_regulator_get_value
                0x0000000000037778       0x6c drivers/power/regulator/built-in.o
 .text.gpio_regulator_ofdata_to_platdata
                0x00000000000377e4       0xc8 drivers/power/regulator/built-in.o
 .text._serial_putc
                0x00000000000378ac       0x58 drivers/serial/built-in.o
 .text._serial_getc
                0x0000000000037904       0x40 drivers/serial/built-in.o
 .text._serial_tstc
                0x0000000000037944       0x20 drivers/serial/built-in.o
 .text.serial_stub_putc
                0x0000000000037964        0x8 drivers/serial/built-in.o
 .text.serial_stub_getc
                0x000000000003796c        0x8 drivers/serial/built-in.o
                0x000000000003796c                serial_stub_getc
 .text.serial_stub_tstc
                0x0000000000037974        0x8 drivers/serial/built-in.o
                0x0000000000037974                serial_stub_tstc
 .text.serial_pre_remove
                0x000000000003797c        0x8 drivers/serial/built-in.o
 .text.serial_post_probe
                0x0000000000037984       0xcc drivers/serial/built-in.o
 .text.serial_stub_puts
                0x0000000000037a50       0x38 drivers/serial/built-in.o
                0x0000000000037a50                serial_stub_puts
 .text.serial_init
                0x0000000000037a88      0x158 drivers/serial/built-in.o
                0x0000000000037a88                serial_init
 .text.serial_initialize
                0x0000000000037be0        0x4 drivers/serial/built-in.o
                0x0000000000037be0                serial_initialize
 .text.serial_putc
                0x0000000000037be4       0x18 drivers/serial/built-in.o
                0x0000000000037be4                serial_putc
 .text.serial_puts
                0x0000000000037bfc       0x44 drivers/serial/built-in.o
                0x0000000000037bfc                serial_puts
 .text.serial_getc
                0x0000000000037c40       0x18 drivers/serial/built-in.o
                0x0000000000037c40                serial_getc
 .text.serial_tstc
                0x0000000000037c58       0x18 drivers/serial/built-in.o
                0x0000000000037c58                serial_tstc
 .text.serial_setbrg
                0x0000000000037c70       0x2c drivers/serial/built-in.o
                0x0000000000037c70                serial_setbrg
 .text.on_baudrate
                0x0000000000037c9c      0x100 drivers/serial/built-in.o
 .text.serial_stdio_init
                0x0000000000037d9c        0x4 drivers/serial/built-in.o
                0x0000000000037d9c                serial_stdio_init
 .text.mvebu_serial_pending
                0x0000000000037da0       0x3c drivers/serial/built-in.o
 .text.mvebu_serial_putc
                0x0000000000037ddc       0x50 drivers/serial/built-in.o
 .text.mvebu_serial_getc
                0x0000000000037e2c       0x54 drivers/serial/built-in.o
 .text.mvebu_serial_setbrg
                0x0000000000037e80       0x44 drivers/serial/built-in.o
 .text.mvebu_serial_ofdata_to_platdata
                0x0000000000037ec4       0x34 drivers/serial/built-in.o
 .text.mvebu_serial_probe
                0x0000000000037ef8       0xa0 drivers/serial/built-in.o
 .text.printch  0x0000000000037f98       0x58 drivers/serial/built-in.o
                0x0000000000037f98                printch
 .text.spi_set_speed_mode
                0x0000000000037ff0       0x98 drivers/spi/built-in.o
 .text.spi_child_pre_probe
                0x0000000000038088       0x4c drivers/spi/built-in.o
 .text.spi_post_probe
                0x00000000000380d4       0x44 drivers/spi/built-in.o
 .text.dm_spi_claim_bus
                0x0000000000038118       0xcc drivers/spi/built-in.o
                0x0000000000038118                dm_spi_claim_bus
 .text.dm_spi_release_bus
                0x00000000000381e4       0x1c drivers/spi/built-in.o
                0x00000000000381e4                dm_spi_release_bus
 .text.dm_spi_xfer
                0x0000000000038200       0x30 drivers/spi/built-in.o
                0x0000000000038200                dm_spi_xfer
 .text.spi_claim_bus
                0x0000000000038230        0x8 drivers/spi/built-in.o
                0x0000000000038230                spi_claim_bus
 .text.spi_release_bus
                0x0000000000038238        0x8 drivers/spi/built-in.o
                0x0000000000038238                spi_release_bus
 .text.spi_xfer
                0x0000000000038240        0x8 drivers/spi/built-in.o
                0x0000000000038240                spi_xfer
 .text.spi_chip_select
                0x0000000000038248       0x24 drivers/spi/built-in.o
                0x0000000000038248                spi_chip_select
 .text.spi_find_chip_select
                0x000000000003826c       0x60 drivers/spi/built-in.o
                0x000000000003826c                spi_find_chip_select
 .text.spi_find_bus_and_cs
                0x00000000000382cc       0x68 drivers/spi/built-in.o
                0x00000000000382cc                spi_find_bus_and_cs
 .text.spi_get_bus_and_cs
                0x0000000000038334      0x184 drivers/spi/built-in.o
                0x0000000000038334                spi_get_bus_and_cs
 .text.spi_slave_ofdata_to_platdata
                0x00000000000384b8      0x1a4 drivers/spi/built-in.o
                0x00000000000384b8                spi_slave_ofdata_to_platdata
 .text.spi_child_post_bind
                0x000000000003865c       0x44 drivers/spi/built-in.o
 .text.mvebu_spi_set_mode
                0x00000000000386a0       0x58 drivers/spi/built-in.o
 .text.mvebu_spi_set_speed
                0x00000000000386f8       0x50 drivers/spi/built-in.o
 .text.mvebu_spi_probe
                0x0000000000038748       0xa4 drivers/spi/built-in.o
 .text.spi_fifo_xfer_finisher
                0x00000000000387ec       0xa4 drivers/spi/built-in.o
 .text.mvebu_spi_xfer
                0x0000000000038890      0x420 drivers/spi/built-in.o
 .text.mvebu_spi_ofdata_to_platdata
                0x0000000000038cb0       0x70 drivers/spi/built-in.o
 .text.usb_ether_register
                0x0000000000038d20      0x124 drivers/usb/eth/built-in.o
                0x0000000000038d20                usb_ether_register
 .text.usb_ether_deregister
                0x0000000000038e44        0x8 drivers/usb/eth/built-in.o
                0x0000000000038e44                usb_ether_deregister
 .text.usb_ether_receive
                0x0000000000038e4c       0xb8 drivers/usb/eth/built-in.o
                0x0000000000038e4c                usb_ether_receive
 .text.usb_ether_advance_rxbuf
                0x0000000000038f04       0x24 drivers/usb/eth/built-in.o
                0x0000000000038f04                usb_ether_advance_rxbuf
 .text.usb_ether_get_rx_bytes
                0x0000000000038f28       0x24 drivers/usb/eth/built-in.o
                0x0000000000038f28                usb_ether_get_rx_bytes
 .text.asix_eth_stop
                0x0000000000038f4c        0x4 drivers/usb/eth/built-in.o
                0x0000000000038f4c                asix_eth_stop
 .text.asix_send_common
                0x0000000000038f50       0x98 drivers/usb/eth/built-in.o
 .text.asix_eth_send
                0x0000000000038fe8       0x30 drivers/usb/eth/built-in.o
                0x0000000000038fe8                asix_eth_send
 .text.asix_eth_recv
                0x0000000000039018       0xd8 drivers/usb/eth/built-in.o
                0x0000000000039018                asix_eth_recv
 .text.asix_free_pkt
                0x00000000000390f0       0x38 drivers/usb/eth/built-in.o
 .text.asix_write_cmd.isra.0
                0x0000000000039128       0x60 drivers/usb/eth/built-in.o
 .text.asix_write_hwaddr_common
                0x0000000000039188       0x4c drivers/usb/eth/built-in.o
 .text.asix_write_hwaddr
                0x00000000000391d4       0x4c drivers/usb/eth/built-in.o
                0x00000000000391d4                asix_write_hwaddr
 .text.asix_mdio_write
                0x0000000000039220       0x8c drivers/usb/eth/built-in.o
 .text.asix_sw_reset
                0x00000000000392ac       0x4c drivers/usb/eth/built-in.o
 .text.asix_read_cmd.isra.1
                0x00000000000392f8       0x68 drivers/usb/eth/built-in.o
 .text.asix_mdio_read
                0x0000000000039360       0x8c drivers/usb/eth/built-in.o
 .text.asix_read_rx_ctl
                0x00000000000393ec       0x44 drivers/usb/eth/built-in.o
 .text.asix_eth_probe
                0x0000000000039430      0x2ac drivers/usb/eth/built-in.o
 .text.asix_eth_start
                0x00000000000396dc      0x108 drivers/usb/eth/built-in.o
 .text.mcs7830_eth_stop
                0x00000000000397e4        0x4 drivers/usb/eth/built-in.o
                0x00000000000397e4                mcs7830_eth_stop
 .text.mcs7830_send_common
                0x00000000000397e8       0x78 drivers/usb/eth/built-in.o
 .text.mcs7830_eth_send
                0x0000000000039860       0x30 drivers/usb/eth/built-in.o
                0x0000000000039860                mcs7830_eth_send
 .text.mcs7830_eth_recv
                0x0000000000039890       0xe8 drivers/usb/eth/built-in.o
                0x0000000000039890                mcs7830_eth_recv
 .text.mcs7830_write_reg
                0x0000000000039978       0xa4 drivers/usb/eth/built-in.o
 .text.mcs7830_write_hwaddr
                0x0000000000039a1c       0x48 drivers/usb/eth/built-in.o
                0x0000000000039a1c                mcs7830_write_hwaddr
 .text.mcs7830_read_reg
                0x0000000000039a64       0xb0 drivers/usb/eth/built-in.o
 .text.mcs7830_free_pkt
                0x0000000000039b14       0x38 drivers/usb/eth/built-in.o
 .text.mcs7830_phy_emit_wait
                0x0000000000039b4c       0x8c drivers/usb/eth/built-in.o
 .text.mcs7830_write_phy
                0x0000000000039bd8       0x50 drivers/usb/eth/built-in.o
 .text.mcs7830_eth_probe
                0x0000000000039c28      0x1c4 drivers/usb/eth/built-in.o
 .text.mcs7830_eth_start
                0x0000000000039dec       0x7c drivers/usb/eth/built-in.o
 .text.smsc95xx_eth_stop
                0x0000000000039e68        0x4 drivers/usb/eth/built-in.o
                0x0000000000039e68                smsc95xx_eth_stop
 .text.smsc95xx_send_common
                0x0000000000039e6c       0xb4 drivers/usb/eth/built-in.o
 .text.smsc95xx_eth_send
                0x0000000000039f20       0x2c drivers/usb/eth/built-in.o
                0x0000000000039f20                smsc95xx_eth_send
 .text.smsc95xx_eth_recv
                0x0000000000039f4c       0xc8 drivers/usb/eth/built-in.o
                0x0000000000039f4c                smsc95xx_eth_recv
 .text.smsc95xx_free_pkt
                0x000000000003a014       0x34 drivers/usb/eth/built-in.o
 .text.smsc95xx_write_reg
                0x000000000003a048       0x60 drivers/usb/eth/built-in.o
 .text.smsc95xx_read_reg
                0x000000000003a0a8       0x7c drivers/usb/eth/built-in.o
 .text.unlikely.smsc95xx_phy_wait_not_busy
                0x000000000003a124       0x5c drivers/usb/eth/built-in.o
 .text.unlikely.smsc95xx_mdio_read
                0x000000000003a180       0x70 drivers/usb/eth/built-in.o
 .text.smsc95xx_eth_probe
                0x000000000003a1f0       0x2c drivers/usb/eth/built-in.o
 .text.smsc95xx_write_hwaddr_common.isra.1
                0x000000000003a21c       0x78 drivers/usb/eth/built-in.o
 .text.smsc95xx_write_hwaddr
                0x000000000003a294       0x4c drivers/usb/eth/built-in.o
                0x000000000003a294                smsc95xx_write_hwaddr
 .text.unlikely.smsc95xx_mdio_write
                0x000000000003a2e0       0x74 drivers/usb/eth/built-in.o
 .text.smsc95xx_eth_start
                0x000000000003a354      0x48c drivers/usb/eth/built-in.o
 .text.smsc95xx_read_rom_hwaddr
                0x000000000003a7e0      0x184 drivers/usb/eth/built-in.o
                0x000000000003a7e0                smsc95xx_read_rom_hwaddr
 .text.r8152_eth_stop
                0x000000000003a964       0x18 drivers/usb/eth/built-in.o
                0x000000000003a964                r8152_eth_stop
 .text.r8152_send_common
                0x000000000003a97c       0x84 drivers/usb/eth/built-in.o
 .text.r8152_eth_send
                0x000000000003aa00       0x30 drivers/usb/eth/built-in.o
                0x000000000003aa00                r8152_eth_send
 .text.r8152_eth_recv
                0x000000000003aa30       0xa8 drivers/usb/eth/built-in.o
                0x000000000003aa30                r8152_eth_recv
 .text.r8152_free_pkt
                0x000000000003aad8       0x34 drivers/usb/eth/built-in.o
 .text.set_registers.isra.1
                0x000000000003ab0c       0xa8 drivers/usb/eth/built-in.o
 .text.generic_ocp_read
                0x000000000003abb4      0x150 drivers/usb/eth/built-in.o
                0x000000000003abb4                generic_ocp_read
 .text.generic_ocp_write
                0x000000000003ad04      0x140 drivers/usb/eth/built-in.o
                0x000000000003ad04                generic_ocp_write
 .text.pla_ocp_read
                0x000000000003ae44        0x8 drivers/usb/eth/built-in.o
                0x000000000003ae44                pla_ocp_read
 .text.r8152_read_mac
                0x000000000003ae4c       0x4c drivers/usb/eth/built-in.o
 .text.r8152_read_rom_hwaddr
                0x000000000003ae98       0x38 drivers/usb/eth/built-in.o
                0x000000000003ae98                r8152_read_rom_hwaddr
 .text.pla_ocp_write
                0x000000000003aed0        0x8 drivers/usb/eth/built-in.o
                0x000000000003aed0                pla_ocp_write
 .text.usb_ocp_write
                0x000000000003aed8        0x8 drivers/usb/eth/built-in.o
                0x000000000003aed8                usb_ocp_write
 .text.r8153_u1u2en.constprop.5
                0x000000000003aee0       0x44 drivers/usb/eth/built-in.o
 .text.ocp_read_dword
                0x000000000003af24       0x2c drivers/usb/eth/built-in.o
                0x000000000003af24                ocp_read_dword
 .text.ocp_write_dword
                0x000000000003af50       0x30 drivers/usb/eth/built-in.o
                0x000000000003af50                ocp_write_dword
 .text.ocp_read_word
                0x000000000003af80       0x40 drivers/usb/eth/built-in.o
                0x000000000003af80                ocp_read_word
 .text.ocp_write_word
                0x000000000003afc0       0x50 drivers/usb/eth/built-in.o
                0x000000000003afc0                ocp_write_word
 .text.rxdy_gated_en
                0x000000000003b010       0x4c drivers/usb/eth/built-in.o
 .text.rtl_set_eee_plus
                0x000000000003b05c       0x3c drivers/usb/eth/built-in.o
 .text.rtl_tally_reset
                0x000000000003b098       0x3c drivers/usb/eth/built-in.o
 .text.r8152_power_cut_en
                0x000000000003b0d4       0x70 drivers/usb/eth/built-in.o
 .text.rtl8152_unload
                0x000000000003b144       0x18 drivers/usb/eth/built-in.o
 .text.r8153_power_cut_en.constprop.3
                0x000000000003b15c       0x60 drivers/usb/eth/built-in.o
 .text.rtl8153_unload
                0x000000000003b1bc        0x4 drivers/usb/eth/built-in.o
 .text.r8153_u2p3en.constprop.4
                0x000000000003b1c0       0x38 drivers/usb/eth/built-in.o
 .text.rtl_rx_vlan_en.constprop.6
                0x000000000003b1f8       0x3c drivers/usb/eth/built-in.o
 .text.ocp_read_byte
                0x000000000003b234       0x3c drivers/usb/eth/built-in.o
                0x000000000003b234                ocp_read_byte
 .text.r8152_eth_start
                0x000000000003b270       0xbc drivers/usb/eth/built-in.o
 .text.ocp_write_byte
                0x000000000003b32c       0x50 drivers/usb/eth/built-in.o
                0x000000000003b32c                ocp_write_byte
 .text.r8152_write_hwaddr
                0x000000000003b37c       0x94 drivers/usb/eth/built-in.o
 .text.rtl_enable
                0x000000000003b410       0xd0 drivers/usb/eth/built-in.o
 .text.rtl8153_enable
                0x000000000003b4e0       0x50 drivers/usb/eth/built-in.o
 .text.rtl8152_enable
                0x000000000003b530       0x24 drivers/usb/eth/built-in.o
 .text.ocp_reg_read
                0x000000000003b554       0x60 drivers/usb/eth/built-in.o
                0x000000000003b554                ocp_reg_read
 .text.ocp_reg_write
                0x000000000003b5b4       0x68 drivers/usb/eth/built-in.o
                0x000000000003b5b4                ocp_reg_write
 .text.r8153_disable_aldps
                0x000000000003b61c       0x50 drivers/usb/eth/built-in.o
 .text.r8152b_enable_fc
                0x000000000003b66c       0x34 drivers/usb/eth/built-in.o
 .text.r8152b_disable_aldps
                0x000000000003b6a0       0x3c drivers/usb/eth/built-in.o
 .text.r8152b_init
                0x000000000003b6dc      0x154 drivers/usb/eth/built-in.o
 .text.r8152_eth_probe
                0x000000000003b830      0x24c drivers/usb/eth/built-in.o
 .text.sram_write
                0x000000000003ba7c       0x38 drivers/usb/eth/built-in.o
                0x000000000003ba7c                sram_write
 .text.r8152_wait_for_bit
                0x000000000003bab4       0xa4 drivers/usb/eth/built-in.o
                0x000000000003bab4                r8152_wait_for_bit
 .text.rtl8152_nic_reset
                0x000000000003bb58       0x58 drivers/usb/eth/built-in.o
 .text.rtl_disable
                0x000000000003bbb0       0x8c drivers/usb/eth/built-in.o
 .text.rtl8153_disable
                0x000000000003bc3c       0x24 drivers/usb/eth/built-in.o
 .text.rtl8152_disable
                0x000000000003bc60       0x34 drivers/usb/eth/built-in.o
 .text.rtl8152_reinit_ll
                0x000000000003bc94       0x7c drivers/usb/eth/built-in.o
 .text.rtl8153_down
                0x000000000003bd10      0x12c drivers/usb/eth/built-in.o
 .text.rtl8153_up
                0x000000000003be3c      0x2d8 drivers/usb/eth/built-in.o
 .text.rtl8152_down
                0x000000000003c114      0x148 drivers/usb/eth/built-in.o
 .text.rtl8152_up
                0x000000000003c25c      0x210 drivers/usb/eth/built-in.o
 .text.r8153_init
                0x000000000003c46c      0x260 drivers/usb/eth/built-in.o
 .text.r8153_wdt1_end
                0x000000000003c6cc       0x4c drivers/usb/eth/built-in.o
 .text.rtl_clear_bp
                0x000000000003c718       0xf4 drivers/usb/eth/built-in.o
 .text.r8153_clear_bp
                0x000000000003c80c       0x44 drivers/usb/eth/built-in.o
 .text.r8153_pre_ram_code
                0x000000000003c850       0xa8 drivers/usb/eth/built-in.o
 .text.r8153_post_ram_code
                0x000000000003c8f8       0x8c drivers/usb/eth/built-in.o
 .text.r8152b_firmware
                0x000000000003c984      0x1e4 drivers/usb/eth/built-in.o
                0x000000000003c984                r8152b_firmware
 .text.r8153_firmware
                0x000000000003cb68      0x498 drivers/usb/eth/built-in.o
                0x000000000003cb68                r8153_firmware
 .text.usb_child_post_bind
                0x000000000003d000       0x9c drivers/usb/host/built-in.o
                0x000000000003d000                usb_child_post_bind
 .text.remove_inactive_children.isra.0
                0x000000000003d09c       0x80 drivers/usb/host/built-in.o
 .text.usb_disable_asynch
                0x000000000003d11c       0x1c drivers/usb/host/built-in.o
                0x000000000003d11c                usb_disable_asynch
 .text.submit_int_msg
                0x000000000003d138       0x38 drivers/usb/host/built-in.o
                0x000000000003d138                submit_int_msg
 .text.submit_control_msg
                0x000000000003d170       0x98 drivers/usb/host/built-in.o
                0x000000000003d170                submit_control_msg
 .text.submit_bulk_msg
                0x000000000003d208       0x34 drivers/usb/host/built-in.o
                0x000000000003d208                submit_bulk_msg
 .text.usb_alloc_device
                0x000000000003d23c       0x24 drivers/usb/host/built-in.o
                0x000000000003d23c                usb_alloc_device
 .text.usb_reset_root_port
                0x000000000003d260       0x24 drivers/usb/host/built-in.o
                0x000000000003d260                usb_reset_root_port
 .text.usb_stop
                0x000000000003d284       0xa8 drivers/usb/host/built-in.o
                0x000000000003d284                usb_stop
 .text.usb_match_device
                0x000000000003d32c       0xd4 drivers/usb/host/built-in.o
                0x000000000003d32c                usb_match_device
 .text.usb_match_one_id_intf
                0x000000000003d400       0x84 drivers/usb/host/built-in.o
                0x000000000003d400                usb_match_one_id_intf
 .text.usb_match_one_id
                0x000000000003d484       0x3c drivers/usb/host/built-in.o
                0x000000000003d484                usb_match_one_id
 .text.usb_get_bus
                0x000000000003d4c0       0x3c drivers/usb/host/built-in.o
                0x000000000003d4c0                usb_get_bus
 .text.usb_scan_device
                0x000000000003d4fc      0x280 drivers/usb/host/built-in.o
                0x000000000003d4fc                usb_scan_device
 .text.usb_scan_bus.isra.1
                0x000000000003d77c       0x80 drivers/usb/host/built-in.o
 .text.usb_init
                0x000000000003d7fc      0x1d0 drivers/usb/host/built-in.o
                0x000000000003d7fc                usb_init
 .text.usb_child_pre_probe
                0x000000000003d9cc       0x84 drivers/usb/host/built-in.o
                0x000000000003d9cc                usb_child_pre_probe
 .text.ehci_get_port_speed
                0x000000000003da50        0x8 drivers/usb/host/built-in.o
 .text.ehci_set_usbmode
                0x000000000003da58       0x18 drivers/usb/host/built-in.o
 .text.ehci_get_portsc_register
                0x000000000003da70       0x28 drivers/usb/host/built-in.o
 .text.ehci_powerup_fixup
                0x000000000003da98       0x30 drivers/usb/host/built-in.o
 .text.handshake
                0x000000000003dac8       0xe4 drivers/usb/host/built-in.o
 .text.ehci_td_buffer
                0x000000000003dbac       0x94 drivers/usb/host/built-in.o
 .text.ehci_shutdown
                0x000000000003dc40       0xcc drivers/usb/host/built-in.o
 .text._ehci_poll_int_queue
                0x000000000003dd0c       0xe0 drivers/usb/host/built-in.o
 .text.ehci_poll_int_queue
                0x000000000003ddec        0xc drivers/usb/host/built-in.o
 .text.disable_periodic.isra.1
                0x000000000003ddf8       0x4c drivers/usb/host/built-in.o
 .text.enable_periodic.isra.2
                0x000000000003de44       0x54 drivers/usb/host/built-in.o
 .text.ehci_get_ctrl.isra.3
                0x000000000003de98       0x14 drivers/usb/host/built-in.o
 .text._ehci_destroy_int_queue
                0x000000000003deac      0x100 drivers/usb/host/built-in.o
 .text.ehci_destroy_int_queue
                0x000000000003dfac        0xc drivers/usb/host/built-in.o
 .text.ehci_update_endpt2_dev_n_port.isra.4
                0x000000000003dfb8       0x60 drivers/usb/host/built-in.o
 .text.ehci_submit_async
                0x000000000003e018      0x5bc drivers/usb/host/built-in.o
 .text.ehci_submit_bulk_msg
                0x000000000003e5d4       0x2c drivers/usb/host/built-in.o
 .text._ehci_create_int_queue.isra.5
                0x000000000003e600      0x3ac drivers/usb/host/built-in.o
 .text.ehci_create_int_queue
                0x000000000003e9ac       0x18 drivers/usb/host/built-in.o
 .text.ehci_submit_int_msg
                0x000000000003e9c4       0xd0 drivers/usb/host/built-in.o
 .text.ehci_submit_control_msg
                0x000000000003ea94      0x584 drivers/usb/host/built-in.o
 .text.ehci_register
                0x000000000003f018      0x328 drivers/usb/host/built-in.o
                0x000000000003f018                ehci_register
 .text.ehci_deregister
                0x000000000003f340       0x28 drivers/usb/host/built-in.o
                0x000000000003f340                ehci_deregister
 .text.marvell_ehci_powerup_fixup
                0x000000000003f368       0x44 drivers/usb/host/built-in.o
 .text.ehci_mvebu_probe
                0x000000000003f3ac      0x14c drivers/usb/host/built-in.o
 .text.xhci_submit_int_msg
                0x000000000003f4f8        0x8 drivers/usb/host/built-in.o
 .text.xhci_submit_bulk_msg
                0x000000000003f500       0x40 drivers/usb/host/built-in.o
 .text.xhci_get_ctrl
                0x000000000003f540       0x38 drivers/usb/host/built-in.o
                0x000000000003f540                xhci_get_ctrl
 .text.xhci_configure_endpoints
                0x000000000003f578      0x108 drivers/usb/host/built-in.o
 .text.xhci_submit_control_msg
                0x000000000003f680      0x8d4 drivers/usb/host/built-in.o
 .text.xhci_reset
                0x000000000003ff54       0xc0 drivers/usb/host/built-in.o
                0x000000000003ff54                xhci_reset
 .text._xhci_alloc_device
                0x0000000000040014       0xd4 drivers/usb/host/built-in.o
                0x0000000000040014                _xhci_alloc_device
 .text.xhci_alloc_device
                0x00000000000400e8        0x8 drivers/usb/host/built-in.o
 .text.xhci_check_maxpacket
                0x00000000000400f0       0xdc drivers/usb/host/built-in.o
                0x00000000000400f0                xhci_check_maxpacket
 .text.xhci_register
                0x00000000000401cc      0x1a4 drivers/usb/host/built-in.o
                0x00000000000401cc                xhci_register
 .text.xhci_deregister
                0x0000000000040370       0x6c drivers/usb/host/built-in.o
                0x0000000000040370                xhci_deregister
 .text.xhci_link_segments
                0x00000000000403dc       0x3c drivers/usb/host/built-in.o
 .text.xhci_ring_free
                0x0000000000040418       0x98 drivers/usb/host/built-in.o
 .text.xhci_flush_cache
                0x00000000000404b0       0x54 drivers/usb/host/built-in.o
                0x00000000000404b0                xhci_flush_cache
 .text.xhci_malloc
                0x0000000000040504       0x7c drivers/usb/host/built-in.o
 .text.xhci_segment_alloc
                0x0000000000040580       0x64 drivers/usb/host/built-in.o
 .text.xhci_alloc_container_ctx.isra.5
                0x00000000000405e4       0xec drivers/usb/host/built-in.o
 .text.xhci_inval_cache
                0x00000000000406d0       0x54 drivers/usb/host/built-in.o
                0x00000000000406d0                xhci_inval_cache
 .text.xhci_cleanup
                0x0000000000040724       0xdc drivers/usb/host/built-in.o
                0x0000000000040724                xhci_cleanup
 .text.xhci_ring_alloc
                0x0000000000040800      0x104 drivers/usb/host/built-in.o
                0x0000000000040800                xhci_ring_alloc
 .text.xhci_alloc_virt_device
                0x0000000000040904       0xfc drivers/usb/host/built-in.o
                0x0000000000040904                xhci_alloc_virt_device
 .text.xhci_mem_init
                0x0000000000040a00      0x1b4 drivers/usb/host/built-in.o
                0x0000000000040a00                xhci_mem_init
 .text.xhci_get_input_control_ctx
                0x0000000000040bb4       0x48 drivers/usb/host/built-in.o
                0x0000000000040bb4                xhci_get_input_control_ctx
 .text.xhci_get_slot_ctx
                0x0000000000040bfc       0x40 drivers/usb/host/built-in.o
                0x0000000000040bfc                xhci_get_slot_ctx
 .text.xhci_get_ep_ctx
                0x0000000000040c3c       0x40 drivers/usb/host/built-in.o
                0x0000000000040c3c                xhci_get_ep_ctx
 .text.xhci_endpoint_copy
                0x0000000000040c7c       0x5c drivers/usb/host/built-in.o
                0x0000000000040c7c                xhci_endpoint_copy
 .text.xhci_slot_copy
                0x0000000000040cd8       0x44 drivers/usb/host/built-in.o
                0x0000000000040cd8                xhci_slot_copy
 .text.xhci_setup_addressable_virt_dev
                0x0000000000040d1c      0x18c drivers/usb/host/built-in.o
                0x0000000000040d1c                xhci_setup_addressable_virt_dev
 .text.giveback_first_trb
                0x0000000000040ea8       0x84 drivers/usb/host/built-in.o
 .text.record_transfer_result
                0x0000000000040f2c       0xa8 drivers/usb/host/built-in.o
 .text.prepare_ring
                0x0000000000040fd4      0x148 drivers/usb/host/built-in.o
 .text.queue_trb
                0x000000000004111c      0x158 drivers/usb/host/built-in.o
 .text.xhci_queue_command
                0x0000000000041274       0xc0 drivers/usb/host/built-in.o
                0x0000000000041274                xhci_queue_command
 .text.xhci_acknowledge_event
                0x0000000000041334       0xc8 drivers/usb/host/built-in.o
                0x0000000000041334                xhci_acknowledge_event
 .text.xhci_wait_for_event
                0x00000000000413fc      0x12c drivers/usb/host/built-in.o
                0x00000000000413fc                xhci_wait_for_event
 .text.abort_td
                0x0000000000041528      0x16c drivers/usb/host/built-in.o
 .text.xhci_bulk_tx
                0x0000000000041694      0x344 drivers/usb/host/built-in.o
                0x0000000000041694                xhci_bulk_tx
 .text.xhci_ctrl_tx
                0x00000000000419d8      0x350 drivers/usb/host/built-in.o
                0x00000000000419d8                xhci_ctrl_tx
 .text.xhci_usb_ofdata_to_platdata
                0x0000000000041d28       0x3c drivers/usb/host/built-in.o
 .text.xhci_usb_remove
                0x0000000000041d64       0x70 drivers/usb/host/built-in.o
 .text.board_xhci_enable
                0x0000000000041dd4        0x8 drivers/usb/host/built-in.o
                0x0000000000041dd4                board_xhci_enable
 .text.xhci_usb_probe
                0x0000000000041ddc       0xa4 drivers/usb/host/built-in.o
 .text.fs_probe_unsupported
                0x0000000000041e80       0x20 fs/built-in.o
 .text.fs_exists_unsupported
                0x0000000000041ea0        0x8 fs/built-in.o
 .text.fs_size_unsupported
                0x0000000000041ea8        0x8 fs/built-in.o
 .text.fs_write_unsupported
                0x0000000000041eb0        0x8 fs/built-in.o
 .text.fs_close_unsupported
                0x0000000000041eb8        0x4 fs/built-in.o
 .text.fs_uuid_unsupported
                0x0000000000041ebc        0x8 fs/built-in.o
 .text.fs_get_info
                0x0000000000041ec4       0x34 fs/built-in.o
 .text.fs_close
                0x0000000000041ef8       0x30 fs/built-in.o
 .text.fs_read_unsupported
                0x0000000000041f28        0x8 fs/built-in.o
 .text.fs_ls_unsupported
                0x0000000000041f30        0x8 fs/built-in.o
 .text.fs_set_blk_dev
                0x0000000000041f38       0xb8 fs/built-in.o
                0x0000000000041f38                fs_set_blk_dev
 .text.fs_ls    0x0000000000041ff0       0x44 fs/built-in.o
                0x0000000000041ff0                fs_ls
 .text.fs_exists
                0x0000000000042034       0x40 fs/built-in.o
                0x0000000000042034                fs_exists
 .text.fs_size  0x0000000000042074       0x48 fs/built-in.o
                0x0000000000042074                fs_size
 .text.fs_read  0x00000000000420bc       0x8c fs/built-in.o
                0x00000000000420bc                fs_read
 .text.fs_write
                0x0000000000042148       0x88 fs/built-in.o
                0x0000000000042148                fs_write
 .text.do_size  0x00000000000421d0       0x68 fs/built-in.o
                0x00000000000421d0                do_size
 .text.do_load  0x0000000000042238      0x20c fs/built-in.o
                0x0000000000042238                do_load
 .text.do_ls    0x0000000000042444       0x88 fs/built-in.o
                0x0000000000042444                do_ls
 .text.file_exists
                0x00000000000424cc       0x3c fs/built-in.o
                0x00000000000424cc                file_exists
 .text.do_save  0x0000000000042508      0x148 fs/built-in.o
                0x0000000000042508                do_save
 .text.do_fs_type
                0x0000000000042650       0x88 fs/built-in.o
                0x0000000000042650                do_fs_type
 .text.get_fs   0x00000000000426d8        0xc fs/built-in.o
                0x00000000000426d8                get_fs
 .text.ext4fs_free_node
                0x00000000000426e4       0x20 fs/built-in.o
                0x00000000000426e4                ext4fs_free_node
 .text.ext4fs_read_file
                0x0000000000042704      0x30c fs/built-in.o
                0x0000000000042704                ext4fs_read_file
 .text.ext4fs_ls
                0x0000000000042a10       0x84 fs/built-in.o
                0x0000000000042a10                ext4fs_ls
 .text.ext4fs_exists
                0x0000000000042a94       0x20 fs/built-in.o
                0x0000000000042a94                ext4fs_exists
 .text.ext4fs_size
                0x0000000000042ab4        0x4 fs/built-in.o
                0x0000000000042ab4                ext4fs_size
 .text.ext4fs_read
                0x0000000000042ab8       0x30 fs/built-in.o
                0x0000000000042ab8                ext4fs_read
 .text.ext4fs_probe
                0x0000000000042ae8       0x3c fs/built-in.o
                0x0000000000042ae8                ext4fs_probe
 .text.ext4_read_file
                0x0000000000042b24       0x7c fs/built-in.o
                0x0000000000042b24                ext4_read_file
 .text.ext4fs_uuid
                0x0000000000042ba0       0x38 fs/built-in.o
                0x0000000000042ba0                ext4fs_uuid
 .text.ext4fs_get_group_descriptor
                0x0000000000042bd8       0x14 fs/built-in.o
                0x0000000000042bd8                ext4fs_get_group_descriptor
 .text.ext4fs_sb_get_free_blocks
                0x0000000000042bec       0x10 fs/built-in.o
                0x0000000000042bec                ext4fs_sb_get_free_blocks
 .text.ext4fs_sb_set_free_blocks
                0x0000000000042bfc       0x10 fs/built-in.o
                0x0000000000042bfc                ext4fs_sb_set_free_blocks
 .text.ext4fs_bg_get_free_blocks
                0x0000000000042c0c       0x20 fs/built-in.o
                0x0000000000042c0c                ext4fs_bg_get_free_blocks
 .text.ext4fs_bg_get_block_id
                0x0000000000042c2c       0x20 fs/built-in.o
                0x0000000000042c2c                ext4fs_bg_get_block_id
 .text.ext4fs_bg_get_inode_id
                0x0000000000042c4c       0x20 fs/built-in.o
                0x0000000000042c4c                ext4fs_bg_get_inode_id
 .text.ext4fs_bg_get_inode_table_id
                0x0000000000042c6c       0x20 fs/built-in.o
                0x0000000000042c6c                ext4fs_bg_get_inode_table_id
 .text.ext4fs_div_roundup
                0x0000000000042c8c       0x14 fs/built-in.o
                0x0000000000042c8c                ext4fs_div_roundup
 .text.put_ext4
                0x0000000000042ca0      0x13c fs/built-in.o
                0x0000000000042ca0                put_ext4
 .text.ext4fs_set_block_bmap
                0x0000000000042ddc       0xac fs/built-in.o
                0x0000000000042ddc                ext4fs_set_block_bmap
 .text.ext4fs_reset_block_bmap
                0x0000000000042e88       0x9c fs/built-in.o
                0x0000000000042e88                ext4fs_reset_block_bmap
 .text.ext4fs_set_inode_bmap
                0x0000000000042f24       0x78 fs/built-in.o
                0x0000000000042f24                ext4fs_set_inode_bmap
 .text.ext4fs_reset_inode_bmap
                0x0000000000042f9c       0x70 fs/built-in.o
                0x0000000000042f9c                ext4fs_reset_inode_bmap
 .text.ext4fs_checksum_update
                0x000000000004300c       0x80 fs/built-in.o
                0x000000000004300c                ext4fs_checksum_update
 .text.ext4fs_get_new_blk_no
                0x000000000004308c      0x3f4 fs/built-in.o
                0x000000000004308c                ext4fs_get_new_blk_no
 .text.ext4fs_get_new_inode_no
                0x0000000000043480      0x3e4 fs/built-in.o
                0x0000000000043480                ext4fs_get_new_inode_no
 .text.ext4fs_allocate_blocks
                0x0000000000043864      0x450 fs/built-in.o
                0x0000000000043864                ext4fs_allocate_blocks
 .text.ext4fs_read_inode
                0x0000000000043cb4      0x10c fs/built-in.o
                0x0000000000043cb4                ext4fs_read_inode
 .text.ext4fs_iget
                0x0000000000043dc0       0x2c fs/built-in.o
                0x0000000000043dc0                ext4fs_iget
 .text.read_allocated_block
                0x0000000000043dec      0x84c fs/built-in.o
                0x0000000000043dec                read_allocated_block
 .text.ext4fs_update_parent_dentry
                0x0000000000044638      0x388 fs/built-in.o
                0x0000000000044638                ext4fs_update_parent_dentry
 .text.search_dir
                0x00000000000449c0      0x150 fs/built-in.o
 .text.ext4fs_get_parent_inode_num
                0x0000000000044b10      0x420 fs/built-in.o
                0x0000000000044b10                ext4fs_get_parent_inode_num
 .text.ext4fs_filename_unlink
                0x0000000000044f30      0x1d4 fs/built-in.o
                0x0000000000044f30                ext4fs_filename_unlink
 .text.ext4fs_reinit_global
                0x0000000000045104       0x90 fs/built-in.o
                0x0000000000045104                ext4fs_reinit_global
 .text.ext4fs_close
                0x0000000000045194       0x4c fs/built-in.o
                0x0000000000045194                ext4fs_close
 .text.ext4fs_iterate_dir
                0x00000000000451e0      0x294 fs/built-in.o
                0x00000000000451e0                ext4fs_iterate_dir
 .text.ext4fs_find_file1
                0x0000000000045474      0x294 fs/built-in.o
 .text.ext4fs_find_file
                0x0000000000045708       0x74 fs/built-in.o
                0x0000000000045708                ext4fs_find_file
 .text.ext4fs_open
                0x000000000004577c       0xa0 fs/built-in.o
                0x000000000004577c                ext4fs_open
 .text.ext4fs_mount
                0x000000000004581c       0xec fs/built-in.o
                0x000000000004581c                ext4fs_mount
 .text.ext4fs_set_blk_dev
                0x0000000000045908       0x68 fs/built-in.o
                0x0000000000045908                ext4fs_set_blk_dev
 .text.ext4fs_devread
                0x0000000000045970      0x25c fs/built-in.o
                0x0000000000045970                ext4fs_devread
 .text.ext4_read_superblock
                0x0000000000045bcc       0x48 fs/built-in.o
                0x0000000000045bcc                ext4_read_superblock
 .text.ext4fs_update
                0x0000000000045c14      0x110 fs/built-in.o
 .text.ext4fs_get_bgdtable
                0x0000000000045d24       0xcc fs/built-in.o
                0x0000000000045d24                ext4fs_get_bgdtable
 .text.ext4fs_deinit
                0x0000000000045df0      0x180 fs/built-in.o
                0x0000000000045df0                ext4fs_deinit
 .text.ext4fs_init
                0x0000000000045f70      0x2e8 fs/built-in.o
                0x0000000000045f70                ext4fs_init
 .text.ext4fs_write
                0x0000000000046258     0x1134 fs/built-in.o
                0x0000000000046258                ext4fs_write
 .text.ext4_write_file
                0x000000000004738c       0x60 fs/built-in.o
                0x000000000004738c                ext4_write_file
 .text.ext4fs_dump_metadata
                0x00000000000473ec       0x68 fs/built-in.o
                0x00000000000473ec                ext4fs_dump_metadata
 .text.ext4fs_free_journal
                0x0000000000047454       0xe4 fs/built-in.o
                0x0000000000047454                ext4fs_free_journal
 .text.ext4fs_log_gdt
                0x0000000000047538       0xe4 fs/built-in.o
                0x0000000000047538                ext4fs_log_gdt
 .text.ext4fs_log_journal
                0x000000000004761c      0x104 fs/built-in.o
                0x000000000004761c                ext4fs_log_journal
 .text.ext4fs_put_metadata
                0x0000000000047720       0xe0 fs/built-in.o
                0x0000000000047720                ext4fs_put_metadata
 .text.ext4fs_push_revoke_blk
                0x0000000000047800       0xf4 fs/built-in.o
                0x0000000000047800                ext4fs_push_revoke_blk
 .text.ext4fs_free_revoke_blks
                0x00000000000478f4       0x68 fs/built-in.o
                0x00000000000478f4                ext4fs_free_revoke_blks
 .text.check_blknr_for_revoke
                0x000000000004795c       0x68 fs/built-in.o
                0x000000000004795c                check_blknr_for_revoke
 .text.recover_transaction
                0x00000000000479c4      0x170 fs/built-in.o
                0x00000000000479c4                recover_transaction
 .text.print_jrnl_status
                0x0000000000047b34       0x20 fs/built-in.o
                0x0000000000047b34                print_jrnl_status
 .text.ext4fs_check_journal_state
                0x0000000000047b54      0x300 fs/built-in.o
                0x0000000000047b54                ext4fs_check_journal_state
 .text.ext4fs_init_journal
                0x0000000000047e54      0x234 fs/built-in.o
                0x0000000000047e54                ext4fs_init_journal
 .text.ext4fs_update_journal
                0x0000000000048088      0x32c fs/built-in.o
                0x0000000000048088                ext4fs_update_journal
 .text.ext2fs_crc16
                0x00000000000483b4       0x3c fs/built-in.o
                0x00000000000483b4                ext2fs_crc16
 .text.downcase
                0x00000000000483f0       0x30 fs/built-in.o
 .text.dirdelim
                0x0000000000048420       0x34 fs/built-in.o
 .text.mkcksum  0x0000000000048454       0x54 fs/built-in.o
 .text.disk_read
                0x00000000000484a8       0x60 fs/built-in.o
 .text.get_fatent
                0x0000000000048508      0x170 fs/built-in.o
 .text.get_cluster
                0x0000000000048678      0x18c fs/built-in.o
 .text.get_name
                0x0000000000048804       0xd0 fs/built-in.o
 .text.read_bootsectandvi
                0x00000000000488d4      0x12c fs/built-in.o
 .text.slot2str
                0x0000000000048a00       0xac fs/built-in.o
 .text.get_vfatname
                0x0000000000048aac      0x1e0 fs/built-in.o
 .text.fat_set_blk_dev
                0x0000000000048c8c       0xcc fs/built-in.o
                0x0000000000048c8c                fat_set_blk_dev
 .text.do_fat_read_at
                0x0000000000048d58      0xb58 fs/built-in.o
                0x0000000000048d58                do_fat_read_at
 .text.do_fat_read
                0x00000000000498b0       0x1c fs/built-in.o
                0x00000000000498b0                do_fat_read
 .text.file_fat_detectfs
                0x00000000000498cc      0x140 fs/built-in.o
                0x00000000000498cc                file_fat_detectfs
 .text.file_fat_ls
                0x0000000000049a0c       0x24 fs/built-in.o
                0x0000000000049a0c                file_fat_ls
 .text.fat_exists
                0x0000000000049a30       0x34 fs/built-in.o
                0x0000000000049a30                fat_exists
 .text.fat_size
                0x0000000000049a64       0x1c fs/built-in.o
                0x0000000000049a64                fat_size
 .text.file_fat_read_at
                0x0000000000049a80       0x68 fs/built-in.o
                0x0000000000049a80                file_fat_read_at
 .text.fat_read_file
                0x0000000000049ae8       0x48 fs/built-in.o
                0x0000000000049ae8                fat_read_file
 .text.fat_close
                0x0000000000049b30        0x4 fs/built-in.o
                0x0000000000049b30                fat_close
 .text.efi_return_handle
                0x0000000000049b34        0xc lib/built-in.o
                0x0000000000049b34                efi_return_handle
 .text.efi_load_pe
                0x0000000000049b40      0x2b4 lib/built-in.o
                0x0000000000049b40                efi_load_pe
 .text.efi_search.isra.0.part.1
                0x0000000000049df4       0x5c lib/built-in.o
 .text.efi_save_gd
                0x0000000000049e50        0xc lib/built-in.o
                0x0000000000049e50                efi_save_gd
 .text.efi_restore_gd
                0x0000000000049e5c       0x24 lib/built-in.o
                0x0000000000049e5c                efi_restore_gd
 .text.efi_set_mem
                0x0000000000049e80       0x28 lib/built-in.o
 .text.efi_copy_mem
                0x0000000000049ea8       0x24 lib/built-in.o
 .text.efi_exit
                0x0000000000049ecc       0x48 lib/built-in.o
 .text.efi_allocate_pages_ext
                0x0000000000049f14       0x30 lib/built-in.o
                0x0000000000049f14                efi_allocate_pages_ext
 .text.efi_free_pages_ext
                0x0000000000049f44       0x28 lib/built-in.o
                0x0000000000049f44                efi_free_pages_ext
 .text.efi_get_memory_map_ext
                0x0000000000049f6c       0x30 lib/built-in.o
                0x0000000000049f6c                efi_get_memory_map_ext
 .text.efi_calculate_crc32
                0x0000000000049f9c       0x44 lib/built-in.o
 .text.efi_uninstall_multiple_protocol_interfaces
                0x0000000000049fe0       0x54 lib/built-in.o
 .text.efi_install_multiple_protocol_interfaces
                0x000000000004a034       0x54 lib/built-in.o
 .text.efi_locate_protocol
                0x000000000004a088       0x64 lib/built-in.o
 .text.efi_locate_handle_buffer
                0x000000000004a0ec       0x24 lib/built-in.o
 .text.efi_protocols_per_handle
                0x000000000004a110       0x24 lib/built-in.o
 .text.efi_open_protocol_information
                0x000000000004a134       0x24 lib/built-in.o
 .text.efi_open_protocol
                0x000000000004a158       0xe4 lib/built-in.o
 .text.efi_handle_protocol
                0x000000000004a23c       0x10 lib/built-in.o
 .text.efi_disconnect_controller
                0x000000000004a24c       0x24 lib/built-in.o
 .text.efi_connect_controller
                0x000000000004a270       0x24 lib/built-in.o
 .text.efi_set_watchdog_timer
                0x000000000004a294       0x20 lib/built-in.o
 .text.efi_stall
                0x000000000004a2b4       0x2c lib/built-in.o
 .text.efi_get_next_monotonic_count
                0x000000000004a2e0       0x38 lib/built-in.o
 .text.efi_exit_boot_services
                0x000000000004a318       0x28 lib/built-in.o
 .text.efi_unload_image
                0x000000000004a340       0x60 lib/built-in.o
 .text.efi_start_image
                0x000000000004a3a0       0x94 lib/built-in.o
 .text.efi_load_image
                0x000000000004a434       0xd4 lib/built-in.o
 .text.efi_locate_device_path
                0x000000000004a508       0x24 lib/built-in.o
 .text.efi_locate_handle
                0x000000000004a52c       0xf8 lib/built-in.o
 .text.efi_reinstall_protocol_interface
                0x000000000004a624       0x20 lib/built-in.o
 .text.efi_install_protocol_interface
                0x000000000004a644       0x24 lib/built-in.o
 .text.efi_check_event
                0x000000000004a668       0x24 lib/built-in.o
 .text.efi_close_event
                0x000000000004a68c       0x2c lib/built-in.o
 .text.efi_signal_event
                0x000000000004a6b8       0x20 lib/built-in.o
 .text.efi_set_timer
                0x000000000004a6d8       0xbc lib/built-in.o
 .text.efi_create_event
                0x000000000004a794       0x58 lib/built-in.o
 .text.efi_free_pool_ext
                0x000000000004a7ec       0x28 lib/built-in.o
 .text.efi_allocate_pool_ext
                0x000000000004a814       0x30 lib/built-in.o
 .text.efi_restore_tpl
                0x000000000004a844       0x1c lib/built-in.o
 .text.efi_raise_tpl
                0x000000000004a860       0x20 lib/built-in.o
 .text.efi_close_protocol
                0x000000000004a880       0x24 lib/built-in.o
 .text.efi_uninstall_protocol_interface
                0x000000000004a8a4       0x24 lib/built-in.o
 .text.efi_register_protocol_notify
                0x000000000004a8c8       0x24 lib/built-in.o
 .text.efi_exit_func
                0x000000000004a8ec        0xc lib/built-in.o
                0x000000000004a8ec                efi_exit_func
 .text.efi_timer_check
                0x000000000004a8f8       0x58 lib/built-in.o
                0x000000000004a8f8                efi_timer_check
 .text.efi_wait_for_event
                0x000000000004a950       0x38 lib/built-in.o
 .text.efi_install_configuration_table
                0x000000000004a988       0xc8 lib/built-in.o
                0x000000000004a988                efi_install_configuration_table
 .text.efi_install_configuration_table_ext
                0x000000000004aa50       0x28 lib/built-in.o
 .text.efi_get_time_boottime
                0x000000000004aa78        0x8 lib/built-in.o
 .text.efi_reset_system_boottime
                0x000000000004aa80       0x34 lib/built-in.o
 .text.efi_reset_system_init
                0x000000000004aab4        0x4 lib/built-in.o
                0x000000000004aab4                efi_reset_system_init
 .text.efi_get_time_init
                0x000000000004aab8        0x4 lib/built-in.o
                0x000000000004aab8                efi_get_time_init
 .text.efi_runtime_relocate
                0x000000000004aabc       0xec lib/built-in.o
                0x000000000004aabc                efi_runtime_relocate
 .text.efi_set_virtual_address_map
                0x000000000004aba8      0x134 lib/built-in.o
 .text.efi_cin_lock_std_in
                0x000000000004acdc       0x18 lib/built-in.o
 .text.efi_cin_set_mode
                0x000000000004acf4       0x18 lib/built-in.o
 .text.efi_cin_get_mode
                0x000000000004ad0c       0x4c lib/built-in.o
 .text.efi_cout_set_attribute
                0x000000000004ad58       0x18 lib/built-in.o
 .text.efi_cout_test_string
                0x000000000004ad70       0x18 lib/built-in.o
 .text.efi_cout_reset
                0x000000000004ad88       0x18 lib/built-in.o
 .text.efi_cin_reset
                0x000000000004ada0       0x18 lib/built-in.o
 .text.efi_cout_enable_cursor
                0x000000000004adb8       0x40 lib/built-in.o
 .text.efi_cout_set_cursor_position
                0x000000000004adf8       0x48 lib/built-in.o
 .text.efi_cout_clear_screen
                0x000000000004ae40       0x24 lib/built-in.o
 .text.efi_cout_output_string
                0x000000000004ae64      0x124 lib/built-in.o
 .text.efi_cout_set_mode
                0x000000000004af88       0x48 lib/built-in.o
 .text.efi_cin_read_key_stroke
                0x000000000004afd0      0x150 lib/built-in.o
 .text.efi_cout_query_mode
                0x000000000004b120      0x238 lib/built-in.o
 .text.efi_mem_cmp
                0x000000000004b358       0x20 lib/built-in.o
 .text.efi_find_free_memory
                0x000000000004b378       0x68 lib/built-in.o
 .text.efi_add_memory_map
                0x000000000004b3e0      0x218 lib/built-in.o
                0x000000000004b3e0                efi_add_memory_map
 .text.efi_allocate_pages
                0x000000000004b5f8       0xa4 lib/built-in.o
                0x000000000004b5f8                efi_allocate_pages
 .text.efi_alloc
                0x000000000004b69c       0x34 lib/built-in.o
                0x000000000004b69c                efi_alloc
 .text.efi_free_pages
                0x000000000004b6d0       0x38 lib/built-in.o
                0x000000000004b6d0                efi_free_pages
 .text.efi_allocate_pool
                0x000000000004b708       0x60 lib/built-in.o
                0x000000000004b708                efi_allocate_pool
 .text.efi_free_pool
                0x000000000004b768        0xc lib/built-in.o
                0x000000000004b768                efi_free_pool
 .text.efi_get_memory_map
                0x000000000004b774       0xb4 lib/built-in.o
                0x000000000004b774                efi_get_memory_map
 .text.efi_memory_init
                0x000000000004b828       0xc4 lib/built-in.o
                0x000000000004b828                efi_memory_init
 .text.efi_disk_open_block
                0x000000000004b8ec       0x10 lib/built-in.o
 .text.efi_disk_open_dp
                0x000000000004b8fc       0x10 lib/built-in.o
 .text.efi_disk_flush_blocks
                0x000000000004b90c       0x18 lib/built-in.o
 .text.efi_disk_reset
                0x000000000004b924       0x18 lib/built-in.o
 .text.efi_disk_add_dev.part.0
                0x000000000004b93c      0x150 lib/built-in.o
 .text.efi_disk_write_blocks
                0x000000000004ba8c       0x8c lib/built-in.o
 .text.efi_disk_read_blocks
                0x000000000004bb18       0x8c lib/built-in.o
 .text.efi_disk_register
                0x000000000004bba4      0x13c lib/built-in.o
                0x000000000004bba4                efi_disk_register
 .text.efi_net_push
                0x000000000004bce0       0x10 lib/built-in.o
 .text.efi_net_open_dp
                0x000000000004bcf0       0x10 lib/built-in.o
 .text.efi_net_open_pxe
                0x000000000004bd00       0x10 lib/built-in.o
 .text.efi_net_get_status
                0x000000000004bd10       0x44 lib/built-in.o
 .text.efi_net_nvdata
                0x000000000004bd54       0x1c lib/built-in.o
 .text.efi_net_mcastiptomac
                0x000000000004bd70       0x1c lib/built-in.o
 .text.efi_net_station_address
                0x000000000004bd8c       0x1c lib/built-in.o
 .text.efi_net_receive_filters
                0x000000000004bda8       0x18 lib/built-in.o
 .text.efi_net_shutdown
                0x000000000004bdc0       0x18 lib/built-in.o
 .text.efi_net_stop
                0x000000000004bdd8        0x4 lib/built-in.o
 .text.efi_net_start
                0x000000000004bddc        0x4 lib/built-in.o
 .text.efi_net_reset
                0x000000000004bde0       0x18 lib/built-in.o
 .text.efi_net_initialize
                0x000000000004bdf8       0x1c lib/built-in.o
 .text.efi_net_receive
                0x000000000004be14       0x9c lib/built-in.o
 .text.efi_net_transmit
                0x000000000004beb0       0x58 lib/built-in.o
 .text.efi_net_statistics
                0x000000000004bf08       0x1c lib/built-in.o
 .text.efi_net_set_dhcp_ack
                0x000000000004bf24       0x54 lib/built-in.o
                0x000000000004bf24                efi_net_set_dhcp_ack
 .text.efi_net_register
                0x000000000004bf78      0x21c lib/built-in.o
                0x000000000004bf78                efi_net_register
 .text.efi_smbios_register
                0x000000000004c194       0x48 lib/built-in.o
                0x000000000004c194                efi_smbios_register
 .text.zcalloc  0x000000000004c1dc        0x8 lib/built-in.o
                0x000000000004c1dc                zcalloc
 .text.zcfree   0x000000000004c1e4        0x8 lib/built-in.o
                0x000000000004c1e4                zcfree
 .text.inflate_fast
                0x000000000004c1ec      0x4f8 lib/built-in.o
                0x000000000004c1ec                inflate_fast
 .text.inflate_table
                0x000000000004c6e4      0x468 lib/built-in.o
                0x000000000004c6e4                inflate_table
 .text.inflateReset
                0x000000000004cb4c       0x64 lib/built-in.o
                0x000000000004cb4c                inflateReset
 .text.inflateInit2_
                0x000000000004cbb0      0x108 lib/built-in.o
                0x000000000004cbb0                inflateInit2_
 .text.inflateEnd
                0x000000000004ccb8       0x6c lib/built-in.o
                0x000000000004ccb8                inflateEnd
 .text.adler32  0x000000000004cd24      0x300 lib/built-in.o
                0x000000000004cd24                adler32
 .text.inflate  0x000000000004d024     0x13b8 lib/built-in.o
                0x000000000004d024                inflate
 .text.crc16_ccitt
                0x000000000004e3dc       0x3c lib/built-in.o
                0x000000000004e3dc                crc16_ccitt
 .text.gzalloc  0x000000000004e418       0x10 lib/built-in.o
                0x000000000004e418                gzalloc
 .text.gzfree   0x000000000004e428        0x8 lib/built-in.o
                0x000000000004e428                gzfree
 .text.zunzip   0x000000000004e430      0x114 lib/built-in.o
                0x000000000004e430                zunzip
 .text.gunzip   0x000000000004e544       0xa4 lib/built-in.o
                0x000000000004e544                gunzip
 .text.smbios_write_type127
                0x000000000004e5e8       0x68 lib/built-in.o
 .text.smbios_write_type32
                0x000000000004e650       0x68 lib/built-in.o
 .text.smbios_string_table_len
                0x000000000004e6b8       0x44 lib/built-in.o
 .text.smbios_add_string
                0x000000000004e6fc       0x80 lib/built-in.o
 .text.smbios_write_type3
                0x000000000004e77c       0xa0 lib/built-in.o
 .text.smbios_write_type2
                0x000000000004e81c       0xb0 lib/built-in.o
 .text.smbios_write_type0
                0x000000000004e8cc      0x104 lib/built-in.o
 .text.smbios_write_type1
                0x000000000004e9d0       0xd4 lib/built-in.o
 .text.smbios_write_type4
                0x000000000004eaa4       0xe8 lib/built-in.o
 .text.write_smbios_table
                0x000000000004eb8c      0x13c lib/built-in.o
                0x000000000004eb8c                write_smbios_table
 .text.initcall_run_list
                0x000000000004ecc8       0x80 lib/built-in.o
                0x000000000004ecc8                initcall_run_list
 .text.lmb_add_region
                0x000000000004ed48      0x170 lib/built-in.o
 .text.lmb_init
                0x000000000004eeb8       0x18 lib/built-in.o
                0x000000000004eeb8                lmb_init
 .text.lmb_add  0x000000000004eed0        0x4 lib/built-in.o
                0x000000000004eed0                lmb_add
 .text.lmb_free
                0x000000000004eed4       0xc0 lib/built-in.o
                0x000000000004eed4                lmb_free
 .text.lmb_reserve
                0x000000000004ef94        0x8 lib/built-in.o
                0x000000000004ef94                lmb_reserve
 .text.__lmb_alloc_base
                0x000000000004ef9c      0x108 lib/built-in.o
                0x000000000004ef9c                __lmb_alloc_base
 .text.lmb_alloc_base
                0x000000000004f0a4       0x4c lib/built-in.o
                0x000000000004f0a4                lmb_alloc_base
 .text.lmb_alloc
                0x000000000004f0f0        0x8 lib/built-in.o
                0x000000000004f0f0                lmb_alloc
 .text.board_lmb_reserve
                0x000000000004f0f8        0x4 lib/built-in.o
                0x000000000004f0f8                board_lmb_reserve
 .text.ldiv     0x000000000004f0fc       0x30 lib/built-in.o
                0x000000000004f0fc                ldiv
 .text.string_to_ip
                0x000000000004f12c       0xa0 lib/built-in.o
                0x000000000004f12c                string_to_ip
 .text.qsort    0x000000000004f1cc       0xf4 lib/built-in.o
                0x000000000004f1cc                qsort
 .text.strcmp_compar
                0x000000000004f2c0        0xc lib/built-in.o
                0x000000000004f2c0                strcmp_compar
 .text.merge    0x000000000004f2cc       0x8c lib/built-in.o
 .text.list_sort
                0x000000000004f358      0x1b4 lib/built-in.o
                0x000000000004f358                list_sort
 .text.sha1_process
                0x000000000004f50c     0x1784 lib/built-in.o
 .text.sha1_update.part.0
                0x0000000000050c90      0x108 lib/built-in.o
 .text.sha1_starts
                0x0000000000050d98       0x44 lib/built-in.o
                0x0000000000050d98                sha1_starts
 .text.sha1_update
                0x0000000000050ddc        0xc lib/built-in.o
                0x0000000000050ddc                sha1_update
 .text.sha1_finish
                0x0000000000050de8      0x180 lib/built-in.o
                0x0000000000050de8                sha1_finish
 .text.sha1_csum_wd
                0x0000000000050f68       0x48 lib/built-in.o
                0x0000000000050f68                sha1_csum_wd
 .text.sha256_process
                0x0000000000050fb0     0x1fa0 lib/built-in.o
 .text.sha256_update.part.0
                0x0000000000052f50      0x104 lib/built-in.o
 .text.sha256_starts
                0x0000000000053054       0x68 lib/built-in.o
                0x0000000000053054                sha256_starts
 .text.sha256_update
                0x00000000000530bc        0xc lib/built-in.o
                0x00000000000530bc                sha256_update
 .text.sha256_finish
                0x00000000000530c8      0x1bc lib/built-in.o
                0x00000000000530c8                sha256_finish
 .text.sha256_csum_wd
                0x0000000000053284       0x48 lib/built-in.o
                0x0000000000053284                sha256_csum_wd
 .text.fdt_check_header
                0x00000000000532cc       0x70 lib/built-in.o
                0x00000000000532cc                fdt_check_header
 .text.fdt_offset_ptr
                0x000000000005333c       0x7c lib/built-in.o
                0x000000000005333c                fdt_offset_ptr
 .text.fdt_next_tag
                0x00000000000533b8       0xe0 lib/built-in.o
                0x00000000000533b8                fdt_next_tag
 .text._fdt_check_node_offset
                0x0000000000053498       0x3c lib/built-in.o
                0x0000000000053498                _fdt_check_node_offset
 .text._fdt_check_prop_offset
                0x00000000000534d4       0x3c lib/built-in.o
                0x00000000000534d4                _fdt_check_prop_offset
 .text.fdt_next_node
                0x0000000000053510       0xac lib/built-in.o
                0x0000000000053510                fdt_next_node
 .text.fdt_first_subnode
                0x00000000000535bc       0x34 lib/built-in.o
                0x00000000000535bc                fdt_first_subnode
 .text.fdt_next_subnode
                0x00000000000535f0       0x5c lib/built-in.o
                0x00000000000535f0                fdt_next_subnode
 .text._fdt_find_string
                0x000000000005364c       0x74 lib/built-in.o
                0x000000000005364c                _fdt_find_string
 .text.fdt_move
                0x00000000000536c0       0x48 lib/built-in.o
                0x00000000000536c0                fdt_move
 .text.fdt_path_next_separator
                0x0000000000053708       0x68 lib/built-in.o
 .text._nextprop
                0x0000000000053770       0x68 lib/built-in.o
 .text.fdt_string
                0x00000000000537d8       0x14 lib/built-in.o
                0x00000000000537d8                fdt_string
 .text.fdt_get_mem_rsv
                0x00000000000537ec       0x60 lib/built-in.o
                0x00000000000537ec                fdt_get_mem_rsv
 .text.fdt_num_mem_rsv
                0x000000000005384c       0x28 lib/built-in.o
                0x000000000005384c                fdt_num_mem_rsv
 .text.fdt_subnode_offset_namelen
                0x0000000000053874       0xec lib/built-in.o
                0x0000000000053874                fdt_subnode_offset_namelen
 .text.fdt_subnode_offset
                0x0000000000053960       0x44 lib/built-in.o
                0x0000000000053960                fdt_subnode_offset
 .text.fdt_get_name
                0x00000000000539a4       0x84 lib/built-in.o
                0x00000000000539a4                fdt_get_name
 .text.fdt_first_property_offset
                0x0000000000053a28       0x38 lib/built-in.o
                0x0000000000053a28                fdt_first_property_offset
 .text.fdt_next_property_offset
                0x0000000000053a60       0x38 lib/built-in.o
                0x0000000000053a60                fdt_next_property_offset
 .text.fdt_get_property_by_offset
                0x0000000000053a98       0x70 lib/built-in.o
                0x0000000000053a98                fdt_get_property_by_offset
 .text.fdt_get_property_namelen
                0x0000000000053b08       0xd4 lib/built-in.o
                0x0000000000053b08                fdt_get_property_namelen
 .text.fdt_get_property
                0x0000000000053bdc       0x4c lib/built-in.o
                0x0000000000053bdc                fdt_get_property
 .text.fdt_getprop_namelen
                0x0000000000053c28       0x20 lib/built-in.o
                0x0000000000053c28                fdt_getprop_namelen
 .text.fdt_getprop_by_offset
                0x0000000000053c48       0x54 lib/built-in.o
                0x0000000000053c48                fdt_getprop_by_offset
 .text.fdt_getprop
                0x0000000000053c9c       0x4c lib/built-in.o
                0x0000000000053c9c                fdt_getprop
 .text.fdt_get_phandle
                0x0000000000053ce8       0x78 lib/built-in.o
                0x0000000000053ce8                fdt_get_phandle
 .text.fdt_get_alias_namelen
                0x0000000000053d60       0x64 lib/built-in.o
                0x0000000000053d60                fdt_get_alias_namelen
 .text.fdt_path_offset_namelen
                0x0000000000053dc4      0x100 lib/built-in.o
                0x0000000000053dc4                fdt_path_offset_namelen
 .text.fdt_path_offset
                0x0000000000053ec4       0x34 lib/built-in.o
                0x0000000000053ec4                fdt_path_offset
 .text.fdt_supernode_atdepth_offset
                0x0000000000053ef8       0xb8 lib/built-in.o
                0x0000000000053ef8                fdt_supernode_atdepth_offset
 .text.fdt_node_depth
                0x0000000000053fb0       0x34 lib/built-in.o
                0x0000000000053fb0                fdt_node_depth
 .text.fdt_parent_offset
                0x0000000000053fe4       0x44 lib/built-in.o
                0x0000000000053fe4                fdt_parent_offset
 .text.fdt_node_offset_by_phandle
                0x0000000000054028       0x80 lib/built-in.o
                0x0000000000054028                fdt_node_offset_by_phandle
 .text.fdt_stringlist_contains
                0x00000000000540a8       0x98 lib/built-in.o
                0x00000000000540a8                fdt_stringlist_contains
 .text.fdt_stringlist_count
                0x0000000000054140       0x80 lib/built-in.o
                0x0000000000054140                fdt_stringlist_count
 .text.fdt_stringlist_search
                0x00000000000541c0       0xc4 lib/built-in.o
                0x00000000000541c0                fdt_stringlist_search
 .text.fdt_stringlist_get
                0x0000000000054284       0xb4 lib/built-in.o
                0x0000000000054284                fdt_stringlist_get
 .text.fdt_node_check_compatible
                0x0000000000054338       0x4c lib/built-in.o
                0x0000000000054338                fdt_node_check_compatible
 .text.fdt_node_offset_by_compatible
                0x0000000000054384       0x6c lib/built-in.o
                0x0000000000054384                fdt_node_offset_by_compatible
 .text._fdt_blocks_misordered
                0x00000000000543f0       0x68 lib/built-in.o
 .text._fdt_splice
                0x0000000000054458       0x9c lib/built-in.o
 .text._fdt_splice_mem_rsv
                0x00000000000544f4       0x6c lib/built-in.o
 .text._fdt_splice_struct
                0x0000000000054560       0x60 lib/built-in.o
 .text._fdt_packblocks
                0x00000000000545c0       0xb0 lib/built-in.o
 .text._fdt_find_add_string
                0x0000000000054670       0xc0 lib/built-in.o
 .text._fdt_add_property
                0x0000000000054730       0xa0 lib/built-in.o
 .text._fdt_rw_check_header
                0x00000000000547d0       0x68 lib/built-in.o
 .text.fdt_add_mem_rsv
                0x0000000000054838       0x7c lib/built-in.o
                0x0000000000054838                fdt_add_mem_rsv
 .text.fdt_del_mem_rsv
                0x00000000000548b4       0x70 lib/built-in.o
                0x00000000000548b4                fdt_del_mem_rsv
 .text.fdt_setprop
                0x0000000000054924       0xd8 lib/built-in.o
                0x0000000000054924                fdt_setprop
 .text.fdt_delprop
                0x00000000000549fc       0x74 lib/built-in.o
                0x00000000000549fc                fdt_delprop
 .text.fdt_add_subnode_namelen
                0x0000000000054a70      0x120 lib/built-in.o
                0x0000000000054a70                fdt_add_subnode_namelen
 .text.fdt_add_subnode
                0x0000000000054b90       0x44 lib/built-in.o
                0x0000000000054b90                fdt_add_subnode
 .text.fdt_del_node
                0x0000000000054bd4       0x60 lib/built-in.o
                0x0000000000054bd4                fdt_del_node
 .text.fdt_open_into
                0x0000000000054c34      0x18c lib/built-in.o
                0x0000000000054c34                fdt_open_into
 .text.fdt_strerror
                0x0000000000054dc0       0x50 lib/built-in.o
                0x0000000000054dc0                fdt_strerror
 .text._fdt_node_end_offset
                0x0000000000054e10       0x4c lib/built-in.o
                0x0000000000054e10                _fdt_node_end_offset
 .text.fdt_address_cells
                0x0000000000054e5c       0x58 lib/built-in.o
                0x0000000000054e5c                fdt_address_cells
 .text.fdt_size_cells
                0x0000000000054eb4       0x54 lib/built-in.o
                0x0000000000054eb4                fdt_size_cells
 .text.fdtdec_get_int
                0x0000000000054f08       0x44 lib/built-in.o
                0x0000000000054f08                fdtdec_get_int
 .text.fdtdec_get_uint
                0x0000000000054f4c       0x44 lib/built-in.o
                0x0000000000054f4c                fdtdec_get_uint
 .text.get_prop_check_min_len
                0x0000000000054f90       0x4c lib/built-in.o
 .text.fdtdec_get_pci_addr
                0x0000000000054fdc       0xb0 lib/built-in.o
                0x0000000000054fdc                fdtdec_get_pci_addr
 .text.fdtdec_get_is_enabled
                0x000000000005508c       0x40 lib/built-in.o
                0x000000000005508c                fdtdec_get_is_enabled
 .text.fdtdec_get_alias_seq
                0x00000000000550cc      0x128 lib/built-in.o
                0x00000000000550cc                fdtdec_get_alias_seq
 .text.fdtdec_get_chosen_prop
                0x00000000000551f4       0x44 lib/built-in.o
                0x00000000000551f4                fdtdec_get_chosen_prop
 .text.fdtdec_get_chosen_node
                0x0000000000055238       0x3c lib/built-in.o
                0x0000000000055238                fdtdec_get_chosen_node
 .text.fdtdec_prepare_fdt
                0x0000000000055274       0x44 lib/built-in.o
                0x0000000000055274                fdtdec_prepare_fdt
 .text.fdtdec_get_int_array
                0x00000000000552b8       0x5c lib/built-in.o
                0x00000000000552b8                fdtdec_get_int_array
 .text.fdtdec_get_int_array_count
                0x0000000000055314       0x68 lib/built-in.o
                0x0000000000055314                fdtdec_get_int_array_count
 .text.fdtdec_get_bool
                0x000000000005537c       0x20 lib/built-in.o
                0x000000000005537c                fdtdec_get_bool
 .text.fdtdec_parse_phandle_with_args
                0x000000000005539c      0x16c lib/built-in.o
                0x000000000005539c                fdtdec_parse_phandle_with_args
 .text.fdtdec_get_config_int
                0x0000000000055508       0x60 lib/built-in.o
                0x0000000000055508                fdtdec_get_config_int
 .text.fdtdec_get_config_string
                0x0000000000055568       0x4c lib/built-in.o
                0x0000000000055568                fdtdec_get_config_string
 .text.fdtdec_get_number
                0x00000000000555b4       0x30 lib/built-in.o
                0x00000000000555b4                fdtdec_get_number
 .text.fdtdec_get_addr_size_fixed
                0x00000000000555e4       0xdc lib/built-in.o
                0x00000000000555e4                fdtdec_get_addr_size_fixed
 .text.fdtdec_get_addr_size
                0x00000000000556c0       0x1c lib/built-in.o
                0x00000000000556c0                fdtdec_get_addr_size
 .text.fdtdec_setup
                0x00000000000556dc       0x40 lib/built-in.o
                0x00000000000556dc                fdtdec_setup
 .text.cmpkey   0x000000000005571c       0x14 lib/built-in.o
 .text._hdelete.isra.0
                0x0000000000055730       0x64 lib/built-in.o
 .text.drop_var_from_set.part.1
                0x0000000000055794       0x6c lib/built-in.o
 .text.match_string
                0x0000000000055800       0xd4 lib/built-in.o
 .text.match_entry
                0x00000000000558d4       0xdc lib/built-in.o
 .text.hcreate_r
                0x00000000000559b0       0x9c lib/built-in.o
                0x00000000000559b0                hcreate_r
 .text.hdestroy_r
                0x0000000000055a4c       0x8c lib/built-in.o
                0x0000000000055a4c                hdestroy_r
 .text.hmatch_r
                0x0000000000055ad8       0xb8 lib/built-in.o
                0x0000000000055ad8                hmatch_r
 .text.hsearch_r
                0x0000000000055b90      0x40c lib/built-in.o
                0x0000000000055b90                hsearch_r
 .text.hdelete_r
                0x0000000000055f9c       0xe0 lib/built-in.o
                0x0000000000055f9c                hdelete_r
 .text.hexport_r
                0x000000000005607c      0x298 lib/built-in.o
                0x000000000005607c                hexport_r
 .text.himport_r
                0x0000000000056314      0x398 lib/built-in.o
                0x0000000000056314                himport_r
 .text.hwalk_r  0x00000000000566ac       0x70 lib/built-in.o
                0x00000000000566ac                hwalk_r
 .text.display_options
                0x000000000005671c       0x28 lib/built-in.o
                0x000000000005671c                display_options
 .text.print_size
                0x0000000000056744       0xf8 lib/built-in.o
                0x0000000000056744                print_size
 .text.print_buffer
                0x000000000005683c      0x1e8 lib/built-in.o
                0x000000000005683c                print_buffer
 .text.crc32_no_comp
                0x0000000000056a24       0xe0 lib/built-in.o
                0x0000000000056a24                crc32_no_comp
 .text.crc32    0x0000000000056b04       0x1c lib/built-in.o
                0x0000000000056b04                crc32
 .text.crc32_wd
                0x0000000000056b20        0x4 lib/built-in.o
                0x0000000000056b20                crc32_wd
 .text.crc32_wd_buf
                0x0000000000056b24       0x3c lib/built-in.o
                0x0000000000056b24                crc32_wd_buf
 .text.__div64_32
                0x0000000000056b60       0x6c lib/built-in.o
                0x0000000000056b60                __div64_32
 .text.hang     0x0000000000056bcc       0x20 lib/built-in.o
                0x0000000000056bcc                hang
 .text.kmalloc  0x0000000000056bec       0x4c lib/built-in.o
                0x0000000000056bec                kmalloc
 .text.skip_spaces
                0x0000000000056c38       0x20 lib/built-in.o
                0x0000000000056c38                skip_spaces
 .text.strim    0x0000000000056c58       0x60 lib/built-in.o
                0x0000000000056c58                strim
 .text.emit     0x0000000000056cb8       0x2c lib/built-in.o
 .text.store_char_in_data
                0x0000000000056ce4       0x30 lib/built-in.o
 .text.get_escape_char
                0x0000000000056d14       0x78 lib/built-in.o
 .text.relocate
                0x0000000000056d8c       0x58 lib/built-in.o
 .text.match    0x0000000000056de4      0x408 lib/built-in.o
 .text.loop_greedy
                0x00000000000571ec       0xb4 lib/built-in.o
 .text.loop_non_greedy
                0x00000000000572a0       0xa0 lib/built-in.o
 .text.quantifier
                0x0000000000057340       0xc0 lib/built-in.o
 .text.fixup_branch
                0x0000000000057400       0x54 lib/built-in.o
 .text.compile  0x0000000000057454      0x3a0 lib/built-in.o
 .text.slre_compile
                0x00000000000577f4       0xe4 lib/built-in.o
                0x00000000000577f4                slre_compile
 .text.slre_match
                0x00000000000578d8       0xa0 lib/built-in.o
                0x00000000000578d8                slre_match
 .text.strncasecmp
                0x0000000000057978       0x7c lib/built-in.o
                0x0000000000057978                strncasecmp
 .text.strcpy   0x00000000000579f4       0x18 lib/built-in.o
                0x00000000000579f4                strcpy
 .text.strncpy  0x0000000000057a0c       0x20 lib/built-in.o
                0x0000000000057a0c                strncpy
 .text.strcat   0x0000000000057a2c       0x2c lib/built-in.o
                0x0000000000057a2c                strcat
 .text.strncat  0x0000000000057a58       0x44 lib/built-in.o
                0x0000000000057a58                strncat
 .text.strcmp   0x0000000000057a9c       0x28 lib/built-in.o
                0x0000000000057a9c                strcmp
 .text.strncmp  0x0000000000057ac4       0x38 lib/built-in.o
                0x0000000000057ac4                strncmp
 .text.strchr   0x0000000000057afc       0x28 lib/built-in.o
                0x0000000000057afc                strchr
 .text.strlen   0x0000000000057b24       0x1c lib/built-in.o
                0x0000000000057b24                strlen
 .text.strrchr  0x0000000000057b40       0x40 lib/built-in.o
                0x0000000000057b40                strrchr
 .text.strnlen  0x0000000000057b80       0x28 lib/built-in.o
                0x0000000000057b80                strnlen
 .text.strdup   0x0000000000057ba8       0x58 lib/built-in.o
                0x0000000000057ba8                strdup
 .text.strspn   0x0000000000057c00       0x3c lib/built-in.o
                0x0000000000057c00                strspn
 .text.strpbrk  0x0000000000057c3c       0x34 lib/built-in.o
                0x0000000000057c3c                strpbrk
 .text.strtok   0x0000000000057c70       0x78 lib/built-in.o
                0x0000000000057c70                strtok
 .text.memset   0x0000000000057ce8       0x74 lib/built-in.o
                0x0000000000057ce8                memset
 .text.memcpy   0x0000000000057d5c       0x6c lib/built-in.o
                0x0000000000057d5c                memcpy
 .text.strlcpy  0x0000000000057dc8       0x50 lib/built-in.o
                0x0000000000057dc8                strlcpy
 .text.memmove  0x0000000000057e18       0x48 lib/built-in.o
                0x0000000000057e18                memmove
 .text.memcmp   0x0000000000057e60       0x30 lib/built-in.o
                0x0000000000057e60                memcmp
 .text.strstr   0x0000000000057e90       0x6c lib/built-in.o
                0x0000000000057e90                strstr
 .text.memchr   0x0000000000057efc       0x30 lib/built-in.o
                0x0000000000057efc                memchr
 .text.tick_to_time
                0x0000000000057f2c       0x4c lib/built-in.o
 .text.timer_init
                0x0000000000057f78        0x8 lib/built-in.o
                0x0000000000057f78                timer_init
 .text.get_timer
                0x0000000000057f80       0x28 lib/built-in.o
                0x0000000000057f80                get_timer
 .text.timer_get_us
                0x0000000000057fa8       0x1c lib/built-in.o
                0x0000000000057fa8                timer_get_us
 .text.__udelay
                0x0000000000057fc4       0x7c lib/built-in.o
                0x0000000000057fc4                __udelay
 .text.udelay   0x0000000000058040       0x44 lib/built-in.o
                0x0000000000058040                udelay
 .text.uuid_str_valid
                0x0000000000058084       0x88 lib/built-in.o
                0x0000000000058084                uuid_str_valid
 .text.uuid_str_to_bin
                0x000000000005810c      0x190 lib/built-in.o
                0x000000000005810c                uuid_str_to_bin
 .text.uuid_bin_to_str
                0x000000000005829c       0xd4 lib/built-in.o
                0x000000000005829c                uuid_bin_to_str
 .text.rand_r   0x0000000000058370       0x1c lib/built-in.o
                0x0000000000058370                rand_r
 .text.put_dec_trunc
                0x000000000005838c       0xd8 lib/built-in.o
 .text.string   0x0000000000058464       0xd8 lib/built-in.o
 .text.put_dec  0x000000000005853c      0x124 lib/built-in.o
 .text.number   0x0000000000058660      0x2d4 lib/built-in.o
 .text.vsnprintf_internal
                0x0000000000058934      0x878 lib/built-in.o
 .text.vscnprintf
                0x00000000000591ac       0x74 lib/built-in.o
                0x00000000000591ac                vscnprintf
 .text.snprintf
                0x0000000000059220       0x7c lib/built-in.o
                0x0000000000059220                snprintf
 .text.vsprintf
                0x000000000005929c       0x44 lib/built-in.o
                0x000000000005929c                vsprintf
 .text.sprintf  0x00000000000592e0       0x74 lib/built-in.o
                0x00000000000592e0                sprintf
 .text.printf   0x0000000000059354       0xcc lib/built-in.o
                0x0000000000059354                printf
 .text.vprintf  0x0000000000059420       0x54 lib/built-in.o
                0x0000000000059420                vprintf
 .text.simple_itoa
                0x0000000000059474       0x40 lib/built-in.o
                0x0000000000059474                simple_itoa
 .text.str2off  0x00000000000594b4       0x50 lib/built-in.o
                0x00000000000594b4                str2off
 .text.panic_finish
                0x0000000000059504       0x34 lib/built-in.o
 .text.panic_str
                0x0000000000059538       0x10 lib/built-in.o
                0x0000000000059538                panic_str
 .text.panic    0x0000000000059548       0x74 lib/built-in.o
                0x0000000000059548                panic
 .text.simple_strtoul
                0x00000000000595bc       0xd4 lib/built-in.o
                0x00000000000595bc                simple_strtoul
 .text.strict_strtoul
                0x0000000000059690       0x84 lib/built-in.o
                0x0000000000059690                strict_strtoul
 .text.simple_strtol
                0x0000000000059714       0x2c lib/built-in.o
                0x0000000000059714                simple_strtol
 .text.ustrtoul
                0x0000000000059740       0x80 lib/built-in.o
                0x0000000000059740                ustrtoul
 .text.simple_strtoull
                0x00000000000597c0       0xd4 lib/built-in.o
                0x00000000000597c0                simple_strtoull
 .text.ustrtoull
                0x0000000000059894       0x80 lib/built-in.o
                0x0000000000059894                ustrtoull
 .text.trailing_strtoln
                0x0000000000059914       0x78 lib/built-in.o
                0x0000000000059914                trailing_strtoln
 .text.trailing_strtol
                0x000000000005998c        0x8 lib/built-in.o
                0x000000000005998c                trailing_strtol
 .text.compute_ip_checksum
                0x0000000000059994       0x80 net/built-in.o
                0x0000000000059994                compute_ip_checksum
 .text.ip_checksum_ok
                0x0000000000059a14       0x1c net/built-in.o
                0x0000000000059a14                ip_checksum_ok
 .text.arp_init
                0x0000000000059a30       0x3c net/built-in.o
                0x0000000000059a30                arp_init
 .text.arp_raw_request
                0x0000000000059a6c       0xe0 net/built-in.o
                0x0000000000059a6c                arp_raw_request
 .text.arp_request
                0x0000000000059b4c       0x84 net/built-in.o
                0x0000000000059b4c                arp_request
 .text.arp_timeout_check
                0x0000000000059bd0       0x8c net/built-in.o
                0x0000000000059bd0                arp_timeout_check
 .text.arp_receive
                0x0000000000059c5c      0x210 net/built-in.o
                0x0000000000059c5c                arp_receive
 .text.dhcp_extended
                0x0000000000059e6c      0x230 net/built-in.o
 .text.dhcp_process_options
                0x000000000005a09c      0x224 net/built-in.o
 .text.dhcp_packet_process_options
                0x000000000005a2c0       0x88 net/built-in.o
 .text.dhcp_handler
                0x000000000005a348      0x3c0 net/built-in.o
 .text.bootp_reset
                0x000000000005a708       0x3c net/built-in.o
                0x000000000005a708                bootp_reset
 .text.bootp_request
                0x000000000005a744      0x274 net/built-in.o
                0x000000000005a744                bootp_request
 .text.bootp_timeout_handler
                0x000000000005a9b8       0x6c net/built-in.o
 .text.dhcp_request
                0x000000000005aa24        0x4 net/built-in.o
                0x000000000005aa24                dhcp_request
 .text.eth_get_uclass_priv
                0x000000000005aa28       0x24 net/built-in.o
 .text.eth_pre_remove
                0x000000000005aa4c       0x40 net/built-in.o
 .text.eth_write_hwaddr
                0x000000000005aa8c       0xf0 net/built-in.o
 .text.on_ethaddr
                0x000000000005ab7c       0x90 net/built-in.o
 .text.eth_post_probe
                0x000000000005ac0c      0x1f8 net/built-in.o
 .text.eth_post_bind
                0x000000000005ae04       0x48 net/built-in.o
 .text.eth_set_current_to_next
                0x000000000005ae4c       0x48 net/built-in.o
                0x000000000005ae4c                eth_set_current_to_next
 .text.eth_get_dev
                0x000000000005ae94       0x40 net/built-in.o
                0x000000000005ae94                eth_get_dev
 .text.eth_set_dev
                0x000000000005aed4       0x44 net/built-in.o
                0x000000000005aed4                eth_set_dev
 .text.eth_pre_unbind
                0x000000000005af18       0x38 net/built-in.o
 .text.eth_get_dev_by_name
                0x000000000005af50       0xfc net/built-in.o
                0x000000000005af50                eth_get_dev_by_name
 .text.eth_get_ethaddr
                0x000000000005b04c       0x2c net/built-in.o
                0x000000000005b04c                eth_get_ethaddr
 .text.eth_halt_state_only
                0x000000000005b078       0x2c net/built-in.o
                0x000000000005b078                eth_halt_state_only
 .text.eth_get_dev_index
                0x000000000005b0a4       0x28 net/built-in.o
                0x000000000005b0a4                eth_get_dev_index
 .text.eth_init
                0x000000000005b0cc       0xf8 net/built-in.o
                0x000000000005b0cc                eth_init
 .text.eth_halt
                0x000000000005b1c4       0x48 net/built-in.o
                0x000000000005b1c4                eth_halt
 .text.eth_send
                0x000000000005b20c       0x5c net/built-in.o
                0x000000000005b20c                eth_send
 .text.eth_rx   0x000000000005b268       0xc4 net/built-in.o
                0x000000000005b268                eth_rx
 .text.eth_initialize
                0x000000000005b32c      0x118 net/built-in.o
                0x000000000005b32c                eth_initialize
 .text.eth_parse_enetaddr
                0x000000000005b444       0x6c net/built-in.o
                0x000000000005b444                eth_parse_enetaddr
 .text.eth_getenv_enetaddr
                0x000000000005b4b0       0x6c net/built-in.o
                0x000000000005b4b0                eth_getenv_enetaddr
 .text.eth_setenv_enetaddr
                0x000000000005b51c       0x3c net/built-in.o
                0x000000000005b51c                eth_setenv_enetaddr
 .text.eth_getenv_enetaddr_by_index
                0x000000000005b558       0x50 net/built-in.o
                0x000000000005b558                eth_getenv_enetaddr_by_index
 .text.eth_setenv_enetaddr_by_index
                0x000000000005b5a8       0x50 net/built-in.o
                0x000000000005b5a8                eth_setenv_enetaddr_by_index
 .text.eth_common_init
                0x000000000005b5f8       0x1c net/built-in.o
                0x000000000005b5f8                eth_common_init
 .text.eth_mac_skip
                0x000000000005b614       0x44 net/built-in.o
                0x000000000005b614                eth_mac_skip
 .text.eth_get_name
                0x000000000005b658       0x2c net/built-in.o
                0x000000000005b658                eth_get_name
 .text.eth_current_changed
                0x000000000005b684       0x98 net/built-in.o
                0x000000000005b684                eth_current_changed
 .text.eth_try_another
                0x000000000005b71c       0x80 net/built-in.o
                0x000000000005b71c                eth_try_another
 .text.eth_set_current
                0x000000000005b79c       0x88 net/built-in.o
                0x000000000005b79c                eth_set_current
 .text.net_clear_handlers
                0x000000000005b824       0x24 net/built-in.o
 .text.start_again_timeout_handler
                0x000000000005b848       0x10 net/built-in.o
 .text.dummy_handler
                0x000000000005b858        0x4 net/built-in.o
 .text.on_ipaddr
                0x000000000005b85c       0x30 net/built-in.o
 .text.on_gatewayip
                0x000000000005b88c       0x30 net/built-in.o
 .text.on_netmask
                0x000000000005b8bc       0x30 net/built-in.o
 .text.on_serverip
                0x000000000005b8ec       0x30 net/built-in.o
 .text.net_init_loop
                0x000000000005b91c       0x34 net/built-in.o
 .text.net_auto_load
                0x000000000005b950       0x6c net/built-in.o
                0x000000000005b950                net_auto_load
 .text.net_init
                0x000000000005b9bc       0x78 net/built-in.o
                0x000000000005b9bc                net_init
 .text.net_start_again
                0x000000000005ba34      0x148 net/built-in.o
                0x000000000005ba34                net_start_again
 .text.net_loop
                0x000000000005bb7c      0x304 net/built-in.o
                0x000000000005bb7c                net_loop
 .text.net_set_udp_handler
                0x000000000005be80       0x18 net/built-in.o
                0x000000000005be80                net_set_udp_handler
 .text.net_get_arp_handler
                0x000000000005be98        0xc net/built-in.o
                0x000000000005be98                net_get_arp_handler
 .text.net_set_timeout_handler
                0x000000000005bea4       0x54 net/built-in.o
                0x000000000005bea4                net_set_timeout_handler
 .text.net_process_received_packet
                0x000000000005bef8      0x2a0 net/built-in.o
                0x000000000005bef8                net_process_received_packet
 .text.net_eth_hdr_size
                0x000000000005c198       0x3c net/built-in.o
                0x000000000005c198                net_eth_hdr_size
 .text.net_set_ether
                0x000000000005c1d4       0xb0 net/built-in.o
                0x000000000005c1d4                net_set_ether
 .text.net_update_ether
                0x000000000005c284       0x90 net/built-in.o
                0x000000000005c284                net_update_ether
 .text.net_set_ip_header
                0x000000000005c314       0x8c net/built-in.o
                0x000000000005c314                net_set_ip_header
 .text.net_set_udp_header
                0x000000000005c3a0       0x94 net/built-in.o
                0x000000000005c3a0                net_set_udp_header
 .text.net_send_udp_packet
                0x000000000005c434      0x110 net/built-in.o
                0x000000000005c434                net_send_udp_packet
 .text.copy_filename
                0x000000000005c544       0x44 net/built-in.o
                0x000000000005c544                copy_filename
 .text.on_bootfile
                0x000000000005c588       0x34 net/built-in.o
 .text.ip_to_string
                0x000000000005c5bc       0x28 net/built-in.o
                0x000000000005c5bc                ip_to_string
 .text.string_to_vlan
                0x000000000005c5e4       0x58 net/built-in.o
                0x000000000005c5e4                string_to_vlan
 .text.on_nvlan
                0x000000000005c63c       0x30 net/built-in.o
 .text.on_vlan  0x000000000005c66c       0x30 net/built-in.o
 .text.rpc_lookup_reply
                0x000000000005c69c       0xd0 net/built-in.o
 .text.nfs_mount_reply
                0x000000000005c76c       0xbc net/built-in.o
 .text.nfs_umountall_reply
                0x000000000005c828       0x9c net/built-in.o
 .text.nfs_lookup_reply
                0x000000000005c8c4      0x134 net/built-in.o
 .text.nfs3_get_attributes_offset
                0x000000000005c9f8       0x14 net/built-in.o
 .text.nfs_readlink_reply
                0x000000000005ca0c      0x188 net/built-in.o
 .text.basename
                0x000000000005cb94       0x4c net/built-in.o
 .text.rpc_req  0x000000000005cbe0      0x130 net/built-in.o
 .text.nfs_umountall_req
                0x000000000005cd10       0x70 net/built-in.o
 .text.nfs_read_reply.isra.0
                0x000000000005cd80      0x1a8 net/built-in.o
 .text.nfs_mount_req
                0x000000000005cf28       0xb8 net/built-in.o
 .text.nfs_readlink_req
                0x000000000005cfe0       0xc8 net/built-in.o
 .text.nfs_lookup_req
                0x000000000005d0a8      0x14c net/built-in.o
 .text.nfs_read_req
                0x000000000005d1f4       0xf0 net/built-in.o
 .text.nfs_send
                0x000000000005d2e4      0x100 net/built-in.o
 .text.nfs_handler
                0x000000000005d3e4      0x238 net/built-in.o
 .text.nfs_timeout_handler
                0x000000000005d61c       0x70 net/built-in.o
 .text.nfs_start
                0x000000000005d68c      0x144 net/built-in.o
                0x000000000005d68c                nfs_start
 .text.ping_timeout_handler
                0x000000000005d7d0       0x20 net/built-in.o
 .text.ping_start
                0x000000000005d7f0      0x118 net/built-in.o
                0x000000000005d7f0                ping_start
 .text.ping_receive
                0x000000000005d908       0xf0 net/built-in.o
                0x000000000005d908                ping_receive
 .text.tftp_send
                0x000000000005d9f8      0x19c net/built-in.o
 .text.tftp_handler
                0x000000000005db94      0x390 net/built-in.o
 .text.tftp_timeout_handler
                0x000000000005df24       0x84 net/built-in.o
 .text.tftp_start
                0x000000000005dfa8      0x330 net/built-in.o
                0x000000000005dfa8                tftp_start
 .text.do_dm_dump_devres
                0x000000000005e2d8        0x8 test/dm/built-in.o
 .text.do_dm    0x000000000005e2e0       0x94 test/dm/built-in.o
 .text.do_dm_dump_uclass
                0x000000000005e374       0x18 test/dm/built-in.o
 .text.do_dm_dump_all
                0x000000000005e38c       0x18 test/dm/built-in.o
                0x000000000005e3a8                . = ALIGN (0x8)

.rodata         0x000000000005e3a8    0x1606e
 *(SORT(.rodata*))
 .rodata        0x000000000005e3a8       0x18 cmd/built-in.o
 .rodata        0x000000000005e3c0      0x128 drivers/built-in.o
 .rodata        0x000000000005e4e8       0x20 lib/built-in.o
 .rodata.CSWTCH.13
                0x000000000005e508       0x20 drivers/pci/built-in.o
 .rodata.CSWTCH.24
                0x000000000005e528       0x40 common/built-in.o
 .rodata.CSWTCH.31
                0x000000000005e568       0x28 cmd/built-in.o
 .rodata.CSWTCH.42
                0x000000000005e590       0x40 disk/built-in.o
 .rodata.CSWTCH.49
                0x000000000005e5d0       0x18 common/built-in.o
 .rodata.__FUNCTION__.7383
                0x000000000005e5e8       0x18 common/built-in.o
 .rodata.__FUNCTION__.7547
                0x000000000005e600       0x18 common/built-in.o
 .rodata.__FUNCTION__.8200
                0x000000000005e618       0x18 drivers/usb/host/built-in.o
 .rodata.__FUNCTION__.8235
                0x000000000005e630       0x18 drivers/usb/host/built-in.o
 .rodata.__FUNCTION__.8246
                0x000000000005e648       0x10 drivers/usb/host/built-in.o
 .rodata.__FUNCTION__.8256
                0x000000000005e658       0x18 drivers/usb/host/built-in.o
 .rodata.__FUNCTION__.8300
                0x000000000005e670       0x10 drivers/usb/host/built-in.o
 .rodata.__FUNCTION__.8324
                0x000000000005e680       0x10 drivers/usb/host/built-in.o
 .rodata.__FUNCTION__.8513
                0x000000000005e690       0x18 drivers/usb/host/built-in.o
 .rodata.__FUNCTION__.8518
                0x000000000005e6a8       0x18 drivers/usb/host/built-in.o
 .rodata.__FUNCTION__.8527
                0x000000000005e6c0       0x10 drivers/usb/host/built-in.o
 .rodata.__FUNCTION__.8558
                0x000000000005e6d0       0x20 drivers/usb/host/built-in.o
 .rodata.__FUNCTION__.8559
                0x000000000005e6f0       0x10 drivers/usb/host/built-in.o
 .rodata.__FUNCTION__.8574
                0x000000000005e700       0x18 drivers/usb/host/built-in.o
 .rodata.__FUNCTION__.8581
                0x000000000005e718       0x10 drivers/usb/host/built-in.o
 .rodata.__FUNCTION__.8591
                0x000000000005e728       0x20 drivers/usb/host/built-in.o
 .rodata.__FUNCTION__.8600
                0x000000000005e748       0x18 drivers/usb/host/built-in.o
 .rodata.__FUNCTION__.8614
                0x000000000005e760       0x18 drivers/usb/host/built-in.o
 .rodata.__FUNCTION__.8623
                0x000000000005e778       0x20 drivers/usb/host/built-in.o
 .rodata.__FUNCTION__.8663
                0x000000000005e798       0x20 drivers/usb/host/built-in.o
 .rodata.__func__.5839
                0x000000000005e7b8       0x10 disk/built-in.o
 .rodata.__func__.5851
                0x000000000005e7c8       0x18 disk/built-in.o
 .rodata.__func__.5861
                0x000000000005e7e0       0x10 common/built-in.o
 .rodata.__func__.5877
                0x000000000005e7f0       0x10 common/built-in.o
 .rodata.__func__.5884
                0x000000000005e800       0x10 common/built-in.o
 .rodata.__func__.5980
                0x000000000005e810       0x10 disk/built-in.o
 .rodata.__func__.5989
                0x000000000005e820       0x18 disk/built-in.o
 .rodata.__func__.5994
                0x000000000005e838       0x10 disk/built-in.o
 .rodata.__func__.6111
                0x000000000005e848       0x10 fs/built-in.o
 .rodata.__func__.6144
                0x000000000005e858       0x18 fs/built-in.o
 .rodata.__func__.6153
                0x000000000005e870       0x18 fs/built-in.o
 .rodata.__func__.6234
                0x000000000005e888       0x10 cmd/built-in.o
 .rodata.__func__.6271
                0x000000000005e898       0x10 cmd/built-in.o
 .rodata.__func__.6282
                0x000000000005e8a8       0x10 drivers/mmc/built-in.o
 .rodata.__func__.6314
                0x000000000005e8b8       0x18 drivers/mmc/built-in.o
 .rodata.__func__.6337
                0x000000000005e8d0       0x18 drivers/mmc/built-in.o
 .rodata.__func__.6351
                0x000000000005e8e8       0x10 drivers/mmc/built-in.o
 .rodata.__func__.6388
                0x000000000005e8f8       0x10 drivers/mmc/built-in.o
 .rodata.__func__.6402
                0x000000000005e908       0x10 drivers/mmc/built-in.o
 .rodata.__func__.6482
                0x000000000005e918       0x10 lib/built-in.o
 .rodata.__func__.6560
                0x000000000005e928       0x20 fs/built-in.o
 .rodata.__func__.6891
                0x000000000005e948       0x10 common/built-in.o
 .rodata.__func__.7260
                0x000000000005e958       0x18 common/built-in.o
 .rodata.__func__.7422
                0x000000000005e970       0x10 drivers/built-in.o
 .rodata.__func__.7482
                0x000000000005e980       0x10 drivers/built-in.o
 .rodata.__func__.7635
                0x000000000005e990       0x10 arch/arm/mach-mvebu/built-in.o
 .rodata.__func__.7766
                0x000000000005e9a0       0x18 drivers/pci/built-in.o
 .rodata.__func__.7776
                0x000000000005e9b8       0x20 drivers/power/regulator/built-in.o
 .rodata.__func__.7777
                0x000000000005e9d8       0x20 drivers/power/regulator/built-in.o
 .rodata.__func__.7779
                0x000000000005e9f8       0x20 drivers/pci/built-in.o
 .rodata.__func__.7848
                0x000000000005ea18       0x18 drivers/pci/built-in.o
 .rodata.__func__.7963
                0x000000000005ea30       0x10 drivers/built-in.o
 .rodata.__func__.7969
                0x000000000005ea40       0x18 drivers/built-in.o
 .rodata.__func__.7973
                0x000000000005ea58       0x18 drivers/built-in.o
 .rodata.__func__.7977
                0x000000000005ea70       0x18 drivers/built-in.o
 .rodata.__func__.7981
                0x000000000005ea88       0x10 drivers/built-in.o
 .rodata.__func__.7985
                0x000000000005ea98       0x18 drivers/built-in.o
 .rodata.__func__.7989
                0x000000000005eab0       0x18 drivers/built-in.o
 .rodata.__func__.8037
                0x000000000005eac8       0x20 drivers/built-in.o
 .rodata.__func__.8063
                0x000000000005eae8       0x18 drivers/mmc/built-in.o
 .rodata.__func__.8067
                0x000000000005eb00       0x10 drivers/mmc/built-in.o
 .rodata.__func__.8217
                0x000000000005eb10       0x18 drivers/usb/eth/built-in.o
 .rodata.__func__.8222
                0x000000000005eb28       0x18 board/Marvell/mvebu_armada-37xx/built-in.o
 .rodata.__func__.8231
                0x000000000005eb40       0x18 board/Marvell/mvebu_armada-37xx/built-in.o
 .rodata.__func__.8258
                0x000000000005eb58       0x18 drivers/usb/eth/built-in.o
 .rodata.__func__.8268
                0x000000000005eb70       0x10 drivers/built-in.o
 .rodata.__func__.8319
                0x000000000005eb80       0x18 drivers/built-in.o
 .rodata.__func__.8381
                0x000000000005eb98       0x10 drivers/built-in.o
 .rodata.__func__.8541
                0x000000000005eba8       0x18 drivers/net/built-in.o
 .rodata.__func__.8550
                0x000000000005ebc0       0x18 drivers/net/built-in.o
 .rodata.__func__.8604
                0x000000000005ebd8       0x18 drivers/usb/host/built-in.o
 .rodata._ctype
                0x000000000005ebf0      0x100 lib/built-in.o
                0x000000000005ebf0                _ctype
 .rodata.armada_37xx_gpio_ops
                0x000000000005ecf0       0x50 drivers/built-in.o
 .rodata.armada_37xx_pin_nb
                0x000000000005ed40       0x20 drivers/built-in.o
                0x000000000005ed40                armada_37xx_pin_nb
 .rodata.armada_37xx_pin_sb
                0x000000000005ed60       0x20 drivers/built-in.o
                0x000000000005ed60                armada_37xx_pin_sb
 .rodata.armada_37xx_pinctrl_of_match
                0x000000000005ed80       0x30 drivers/built-in.o
 .rodata.armada_37xx_pinctrl_ops
                0x000000000005edb0       0x88 drivers/built-in.o
                0x000000000005edb0                armada_37xx_pinctrl_ops
 .rodata.asix_eth_id_table
                0x000000000005ee38      0x1a0 drivers/usb/eth/built-in.o
 .rodata.asix_eth_ops
                0x000000000005efd8       0x38 drivers/usb/eth/built-in.o
 .rodata.baudrate_table
                0x000000000005f010       0x40 drivers/serial/built-in.o
 .rodata.bitpattern.6019
                0x000000000005f050       0x40 cmd/built-in.o
 .rodata.boot_os
                0x000000000005f090       0xc0 common/built-in.o
 .rodata.comphy_ids
                0x000000000005f150       0x20 drivers/built-in.o
 .rodata.crc16_tab
                0x000000000005f170      0x200 lib/built-in.o
 .rodata.crc16_table
                0x000000000005f370      0x200 fs/built-in.o
 .rodata.crc_table
                0x000000000005f570      0x400 lib/built-in.o
 .rodata.dbase.6022
                0x000000000005f970       0x40 lib/built-in.o
 .rodata.default_environment
                0x000000000005f9b0      0x3c0 common/built-in.o
                0x000000000005f9b0                default_environment
 .rodata.desc_and_len_tbl
                0x000000000005fd70       0x60 cmd/built-in.o
 .rodata.dext.6023
                0x000000000005fdd0       0x40 lib/built-in.o
 .rodata.digits.5677
                0x000000000005fe10       0x10 lib/built-in.o
 .rodata.distfix
                0x000000000005fe20       0x80 lib/built-in.o
 .rodata.e1000_eth_ids
                0x000000000005fea0       0x20 drivers/net/built-in.o
 .rodata.e1000_eth_ops
                0x000000000005fec0       0x38 drivers/net/built-in.o
 .rodata.efi_block_io_guid
                0x000000000005fef8       0x10 lib/built-in.o
 .rodata.efi_boot_services
                0x000000000005ff08      0x178 lib/built-in.o
 .rodata.efi_con_in
                0x0000000000060080       0x18 lib/built-in.o
                0x0000000000060080                efi_con_in
 .rodata.efi_con_out
                0x0000000000060098       0x50 lib/built-in.o
                0x0000000000060098                efi_con_out
 .rodata.efi_console_control
                0x00000000000600e8       0x18 lib/built-in.o
                0x00000000000600e8                efi_console_control
 .rodata.efi_guid_console_control
                0x0000000000060100       0x10 lib/built-in.o
                0x0000000000060100                efi_guid_console_control
 .rodata.efi_guid_device_path
                0x0000000000060110       0x10 lib/built-in.o
                0x0000000000060110                efi_guid_device_path
 .rodata.efi_guid_loaded_image
                0x0000000000060120       0x10 lib/built-in.o
                0x0000000000060120                efi_guid_loaded_image
 .rodata.efi_net_guid
                0x0000000000060130       0x10 lib/built-in.o
 .rodata.efi_pxe_guid
                0x0000000000060140       0x10 lib/built-in.o
 .rodata.efi_runtime_detach_list
                0x0000000000060150       0x70 lib/built-in.o
 .rodata.ehci_usb_ids
                0x00000000000601c0       0x30 drivers/usb/host/built-in.o
 .rodata.env_flags_varaccess_mask
                0x00000000000601f0       0x10 common/built-in.o
 .rodata.env_flags_varaccess_rep
                0x0000000000060200        0x8 common/built-in.o
 .rodata.env_flags_vartype_rep
                0x0000000000060208        0x8 common/built-in.o
 .rodata.erase_seq
                0x0000000000060210        0x8 common/built-in.o
 .rodata.ext_csd_bits.8030
                0x0000000000060218       0x18 drivers/mmc/built-in.o
 .rodata.ext_to_hostcaps.8031
                0x0000000000060230       0x20 drivers/mmc/built-in.o
 .rodata.fbase  0x0000000000060250       0x10 drivers/mmc/built-in.o
 .rodata.fdt_errtable
                0x0000000000060260       0x90 lib/built-in.o
 .rodata.fixed_regulator_ids
                0x00000000000602f0       0x20 drivers/power/regulator/built-in.o
 .rodata.fixed_regulator_ops
                0x0000000000060310       0x40 drivers/power/regulator/built-in.o
 .rodata.generic_simple_bus_ids
                0x0000000000060350       0x30 drivers/built-in.o
 .rodata.gpio_function
                0x0000000000060380       0x28 drivers/gpio/built-in.o
 .rodata.gpio_regulator_ids
                0x00000000000603a8       0x20 drivers/power/regulator/built-in.o
 .rodata.gpio_regulator_ops
                0x00000000000603c8       0x40 drivers/power/regulator/built-in.o
 .rodata.hdr.8313
                0x0000000000060408        0x8 drivers/built-in.o
 .rodata.hex_asc
                0x0000000000060410       0x18 lib/built-in.o
 .rodata.hub_id_table
                0x0000000000060428       0x40 common/built-in.o
 .rodata.if_type_uclass_id
                0x0000000000060468       0x30 drivers/built-in.o
 .rodata.if_typename_str
                0x0000000000060498       0x58 drivers/built-in.o
 .rodata.init_sequence_f
                0x00000000000604f0      0x138 common/built-in.o
 .rodata.lbase.6020
                0x0000000000060628       0x40 lib/built-in.o
 .rodata.lenfix
                0x0000000000060668      0x800 lib/built-in.o
 .rodata.lext.6021
                0x0000000000060e68       0x40 lib/built-in.o
 .rodata.mass_storage_id_table
                0x0000000000060ea8       0x40 common/built-in.o
 .rodata.mcs7830_eth_id_table
                0x0000000000060ee8       0xa0 drivers/usb/eth/built-in.o
 .rodata.mcs7830_eth_ops
                0x0000000000060f88       0x38 drivers/usb/eth/built-in.o
 .rodata.mmc_blk_ops
                0x0000000000060fc0       0x20 drivers/mmc/built-in.o
 .rodata.multipliers
                0x0000000000060fe0       0x10 drivers/mmc/built-in.o
 .rodata.mv_i2c_ids
                0x0000000000060ff0       0x20 drivers/i2c/built-in.o
 .rodata.mv_i2c_ops
                0x0000000000061010       0x30 drivers/i2c/built-in.o
 .rodata.mvebu_ahci_ids
                0x0000000000061040       0x30 arch/arm/mach-mvebu/built-in.o
 .rodata.mvebu_gpio_ids
                0x0000000000061070       0x20 drivers/gpio/built-in.o
 .rodata.mvebu_gpio_ops
                0x0000000000061090       0x50 drivers/gpio/built-in.o
 .rodata.mvebu_scsi_ids
                0x00000000000610e0       0x20 drivers/built-in.o
 .rodata.mvebu_serial_ids
                0x0000000000061100       0x30 drivers/serial/built-in.o
 .rodata.mvebu_serial_ops
                0x0000000000061130       0x28 drivers/serial/built-in.o
 .rodata.mvebu_spi_ids
                0x0000000000061158       0x20 drivers/spi/built-in.o
 .rodata.mvebu_spi_ops
                0x0000000000061178       0x38 drivers/spi/built-in.o
 .rodata.mvneta_ids
                0x00000000000611b0       0x40 drivers/net/built-in.o
 .rodata.mvneta_ops
                0x00000000000611f0       0x38 drivers/net/built-in.o
 .rodata.names.5824
                0x0000000000061228        0x8 lib/built-in.o
 .rodata.net_bcast_ethaddr
                0x0000000000061230        0x8 net/built-in.o
                0x0000000000061230                net_bcast_ethaddr
 .rodata.op_adv
                0x0000000000061238      0x180 cmd/built-in.o
                0x0000000000061238                op_adv
 .rodata.op_table
                0x00000000000613b8       0xd0 cmd/built-in.o
 .rodata.order.6116
                0x0000000000061488       0x28 lib/built-in.o
 .rodata.pci_bridge_ids
                0x00000000000614b0       0x20 drivers/pci/built-in.o
 .rodata.pci_bridge_ops
                0x00000000000614d0       0x10 drivers/pci/built-in.o
 .rodata.pci_generic_ids
                0x00000000000614e0       0x20 drivers/pci/built-in.o
 .rodata.pcie_advk_ids
                0x0000000000061500       0x20 drivers/pci/built-in.o
 .rodata.pcie_advk_ops
                0x0000000000061520       0x10 drivers/pci/built-in.o
 .rodata.phy_interface_strings
                0x0000000000061530       0x90 drivers/net/phy/built-in.o
 .rodata.r8152_eth_id_table
                0x00000000000615c0      0x1e0 drivers/usb/eth/built-in.o
 .rodata.r8152_eth_ops
                0x00000000000617a0       0x38 drivers/usb/eth/built-in.o
 .rodata.r8152_versions
                0x00000000000617d8       0x30 drivers/usb/eth/built-in.o
 .rodata.r8152b_pla_patch_a2_bp
                0x0000000000061808       0x18 drivers/usb/eth/built-in.o
 .rodata.r8152b_pla_patch_a_bp
                0x0000000000061820       0x30 drivers/usb/eth/built-in.o
 .rodata.r8152b_ram_code1
                0x0000000000061850      0x3d0 drivers/usb/eth/built-in.o
 .rodata.r8153_pla_patch_b_bp
                0x0000000000061c20       0x28 drivers/usb/eth/built-in.o
 .rodata.r8153_pla_patch_c_bp
                0x0000000000061c48       0x28 drivers/usb/eth/built-in.o
 .rodata.r8153_ram_code_a
                0x0000000000061c70      0x160 drivers/usb/eth/built-in.o
 .rodata.r8153_ram_code_bc
                0x0000000000061dd0       0x80 drivers/usb/eth/built-in.o
 .rodata.r8153_ram_code_d
                0x0000000000061e50       0x60 drivers/usb/eth/built-in.o
 .rodata.r8153_usb_patch_b_bp
                0x0000000000061eb0       0x28 drivers/usb/eth/built-in.o
 .rodata.r8153_usb_patch_c_bp
                0x0000000000061ed8       0x28 drivers/usb/eth/built-in.o
 .rodata.r8153_usb_patch_d_bp
                0x0000000000061f00       0x28 drivers/usb/eth/built-in.o
 .rodata.reg_0_5_desc_tbl
                0x0000000000061f28       0x60 cmd/built-in.o
 .rodata.reg_0_desc_tbl
                0x0000000000061f88       0xa0 cmd/built-in.o
 .rodata.reg_1_desc_tbl
                0x0000000000062028      0x100 cmd/built-in.o
 .rodata.reg_2_desc_tbl
                0x0000000000062128       0x10 cmd/built-in.o
 .rodata.reg_3_desc_tbl
                0x0000000000062138       0x30 cmd/built-in.o
 .rodata.reg_4_desc_tbl
                0x0000000000062168       0xc0 cmd/built-in.o
 .rodata.reg_5_desc_tbl
                0x0000000000062228       0xc0 cmd/built-in.o
 .rodata.root_info
                0x00000000000622e8       0x10 drivers/built-in.o
 .rodata.scsi_blk_ops
                0x00000000000622f8       0x20 common/built-in.o
 .rodata.sd_au_size
                0x0000000000062318       0x40 drivers/mmc/built-in.o
 .rodata.sdhci_ops
                0x0000000000062358       0x20 drivers/mmc/built-in.o
                0x0000000000062358                sdhci_ops
 .rodata.sgmii_phy_init
                0x0000000000062378      0x400 drivers/built-in.o
 .rodata.sgmii_phy_init_fix
                0x0000000000062778       0x68 drivers/built-in.o
 .rodata.sha1_padding
                0x00000000000627e0       0x40 lib/built-in.o
 .rodata.smbios_guid
                0x0000000000062820       0x10 lib/built-in.o
 .rodata.smbios_write_funcs
                0x0000000000062830       0x38 lib/built-in.o
 .rodata.smsc95xx_eth_id_table
                0x0000000000062868       0xe0 drivers/usb/eth/built-in.o
 .rodata.smsc95xx_eth_ops
                0x0000000000062948       0x38 drivers/usb/eth/built-in.o
 .rodata.spi_flash_ids
                0x0000000000062980      0x980 drivers/mtd/spi/built-in.o
                0x0000000000062980                spi_flash_ids
 .rodata.spi_flash_std_ids
                0x0000000000063300       0x20 drivers/mtd/spi/built-in.o
 .rodata.spi_flash_std_ops
                0x0000000000063320       0x18 drivers/mtd/spi/built-in.o
 .rodata.tab_seq
                0x0000000000063338       0x10 common/built-in.o
 .rodata.uimage_arch
                0x0000000000063348      0x270 common/built-in.o
 .rodata.uimage_comp
                0x00000000000635b8       0xa8 common/built-in.o
 .rodata.uimage_os
                0x0000000000063660       0xf0 common/built-in.o
 .rodata.uimage_type
                0x0000000000063750      0x300 common/built-in.o
 .rodata.us_direction
                0x0000000000063a50       0x20 common/built-in.o
 .rodata.usb_hub_ids
                0x0000000000063a70       0x20 common/built-in.o
 .rodata.usb_mass_storage_ids
                0x0000000000063a90       0x20 common/built-in.o
 .rodata.usb_storage_ops
                0x0000000000063ab0       0x20 common/built-in.o
 .rodata.version_string
                0x0000000000063ad0       0x48 cmd/built-in.o
                0x0000000000063ad0                version_string
 .rodata.widths.8032
                0x0000000000063b18       0x18 drivers/mmc/built-in.o
 .rodata.xenon_sdhci_ids
                0x0000000000063b30       0x30 drivers/mmc/built-in.o
 .rodata.xenon_sdhci_ops
                0x0000000000063b60       0x20 drivers/mmc/built-in.o
 .rodata.xhci_usb_ids
                0x0000000000063b80       0x30 drivers/usb/host/built-in.o
 .rodata.binary_test
                0x0000000000063bb0       0x10 cmd/built-in.o
 .rodata.cli_readline_into_buffer
                0x0000000000063bc0       0x40 common/built-in.o
 .rodata.comphy_a3700_init
                0x0000000000063c00       0x24 drivers/built-in.o
 .rodata.dev_print
                0x0000000000063c24       0x14 disk/built-in.o
 .rodata.do_fdt
                0x0000000000063c38       0x14 cmd/built-in.o
 .rodata.do_itest
                0x0000000000063c4c        0x8 cmd/built-in.o
 .rodata.do_scsi
                0x0000000000063c54        0x8 cmd/built-in.o
 .rodata.do_test
                0x0000000000063c5c       0x10 cmd/built-in.o
 .rodata.e1000_eth_start
                0x0000000000063c6c       0x24 drivers/net/built-in.o
 .rodata.e1000_force_mac_fc
                0x0000000000063c90        0x4 drivers/net/built-in.o
 .rodata.e1000_init_eeprom_params
                0x0000000000063c94       0x14 drivers/net/built-in.o
 .rodata.e1000_phy_hw_reset.part.15
                0x0000000000063ca8        0x8 drivers/net/built-in.o
 .rodata.efi_load_pe
                0x0000000000063cb0        0xc lib/built-in.o
 .rodata.env_flags_validate
                0x0000000000063cbc        0x8 common/built-in.o
 .rodata.fdt_next_tag
                0x0000000000063cc4        0xc lib/built-in.o
 .rodata.file_fat_detectfs
                0x0000000000063cd0        0x8 fs/built-in.o
 .rodata.inflate
                0x0000000000063cd8       0x3c lib/built-in.o
 .rodata.load_serial
                0x0000000000063d14        0xc cmd/built-in.o
 .rodata.match  0x0000000000063d20       0x24 lib/built-in.o
 .rodata.mmc_set_capacity
                0x0000000000063d44        0x8 drivers/mmc/built-in.o
 .rodata.mmc_startup
                0x0000000000063d4c       0x10 drivers/mmc/built-in.o
 .rodata.mvneta_port_power_up
                0x0000000000063d5c        0x8 drivers/net/built-in.o
 .rodata.net_loop
                0x0000000000063d64       0x18 net/built-in.o
 .rodata.nfs_handler
                0x0000000000063d7c        0x8 net/built-in.o
 .rodata.nfs_send
                0x0000000000063d84        0x8 net/built-in.o
 .rodata.part_get_info_iso_verb
                0x0000000000063d8c        0x8 disk/built-in.o
 .rodata.part_print
                0x0000000000063d94        0xc disk/built-in.o
 .rodata.prepare_ring
                0x0000000000063da0        0x8 drivers/usb/host/built-in.o
 .rodata.record_transfer_result
                0x0000000000063da8       0x10 drivers/usb/host/built-in.o
 .rodata.srec_decode
                0x0000000000063db8        0xc common/built-in.o
 .rodata.tftp_send
                0x0000000000063dc4        0x8 net/built-in.o
 .rodata.usb_display_class_sub
                0x0000000000063dcc        0x8 cmd/built-in.o
 .rodata.xhci_setup_addressable_virt_dev
                0x0000000000063dd4       0x10 drivers/usb/host/built-in.o
 .rodata.xhci_submit_control_msg
                0x0000000000063de4        0x8 drivers/usb/host/built-in.o
 .rodata        0x0000000000063dec      0x103 common/built-in.o
 .rodata        0x0000000000063eef       0x79 drivers/usb/host/built-in.o
 .rodata        0x0000000000063f68        0x7 net/built-in.o
 .rodata.str1.1
                0x0000000000063f6f      0x16f arch/arm/cpu/armv8/built-in.o
 .rodata.str1.1
                0x00000000000640de      0x1d3 arch/arm/lib/built-in.o
                                        0x25b (size before relaxing)
 .rodata.str1.1
                0x00000000000642b1      0x128 arch/arm/mach-mvebu/built-in.o
                                        0x130 (size before relaxing)
 .rodata.str1.1
                0x00000000000643d9      0x166 board/Marvell/mvebu_armada-37xx/built-in.o
 .rodata.str1.1
                0x000000000006453f     0x6bcb cmd/built-in.o
                                       0x71fb (size before relaxing)
 .rodata.str1.1
                0x000000000006b10a     0x25ac common/built-in.o
                                       0x297c (size before relaxing)
 .rodata.str1.1
                0x000000000006d6b6      0xdea disk/built-in.o
                                        0xe30 (size before relaxing)
 .rodata.str1.1
                0x000000000006e4a0     0x10af drivers/built-in.o
                                       0x11c1 (size before relaxing)
 .rodata.str1.1
                0x000000000006f54f       0xcb drivers/gpio/built-in.o
                                         0xee (size before relaxing)
 .rodata.str1.1
                0x000000000006f61a       0xa6 drivers/i2c/built-in.o
                                         0xb2 (size before relaxing)
 .rodata.str1.1
                0x000000000006f6c0      0x640 drivers/mmc/built-in.o
                                        0x6ea (size before relaxing)
 .rodata.str1.1
                0x000000000006fd00      0x12d drivers/mtd/built-in.o
 .rodata.str1.1
                0x000000000006fe2d      0x4fa drivers/mtd/spi/built-in.o
                                        0x50b (size before relaxing)
 .rodata.str1.1
                0x0000000000070327      0x59e drivers/net/built-in.o
                                        0x5ac (size before relaxing)
 .rodata.str1.1
                0x00000000000708c5      0x878 drivers/net/phy/built-in.o
                                        0x8d5 (size before relaxing)
 .rodata.str1.1
                0x000000000007113d      0x42c drivers/pci/built-in.o
                                        0x43f (size before relaxing)
 .rodata.str1.1
                0x0000000000071569      0x1e6 drivers/power/regulator/built-in.o
                                        0x233 (size before relaxing)
 .rodata.str1.1
                0x000000000007174f       0xb6 drivers/serial/built-in.o
                                        0x100 (size before relaxing)
 .rodata.str1.1
                0x0000000000071805      0x24d drivers/spi/built-in.o
                                        0x287 (size before relaxing)
 .rodata.str1.1
                0x0000000000071a52      0x1e1 drivers/usb/eth/built-in.o
                                        0x25f (size before relaxing)
 .rodata.str1.1
                0x0000000000071c33      0x8c9 drivers/usb/host/built-in.o
                                        0x953 (size before relaxing)
 .rodata.str1.1
                0x00000000000724fc      0x9a1 fs/built-in.o
                                        0xa10 (size before relaxing)
 .rodata.str1.1
                0x0000000000072e9d      0xd29 lib/built-in.o
                                        0xe3c (size before relaxing)
 .rodata.str1.1
                0x0000000000073bc6      0x774 net/built-in.o
                                        0x866 (size before relaxing)
 .rodata.str1.1
                0x000000000007433a       0xdc test/dm/built-in.o
                                         0xe2 (size before relaxing)

.hash           0x0000000000074418       0x34
 .hash          0x0000000000074418       0x34 arch/arm/cpu/armv8/start.o
                0x0000000000074450                . = ALIGN (0x8)

.data           0x0000000000074450     0x5ba0
 *(.data*)
 .data.mvebu_mem_map
                0x0000000000074450       0x80 arch/arm/mach-mvebu/built-in.o
 .data.mem_map  0x00000000000744d0        0x8 arch/arm/mach-mvebu/built-in.o
                0x00000000000744d0                mem_map
 .data.sys_info_in_ptr
                0x00000000000744d8        0x8 arch/arm/mach-mvebu/built-in.o
                0x00000000000744d8                sys_info_in_ptr
 .data.bootm_help_text
                0x00000000000744e0      0x390 cmd/built-in.o
 .data.cmd_bootm_sub
                0x0000000000074870      0x1b0 cmd/built-in.o
 .data.source_help_text
                0x0000000000074a20       0x50 cmd/built-in.o
 .data.cmd_blkc_sub
                0x0000000000074a70       0x60 cmd/built-in.o
 .data.bootefi_device_path
                0x0000000000074ad0       0x88 cmd/built-in.o
 .data.loaded_image_info_obj
                0x0000000000074b58       0x58 cmd/built-in.o
 .data.bootefi_image_path
                0x0000000000074bb0       0x88 cmd/built-in.o
 .data.bootefi_help_text
                0x0000000000074c38       0xc0 cmd/built-in.o
 .data.bootefi_device_obj
                0x0000000000074cf8       0x58 cmd/built-in.o
 .data.loaded_image_info
                0x0000000000074d50       0xa0 cmd/built-in.o
 .data.booti_help_text
                0x0000000000074df0      0x1e8 cmd/built-in.o
 .data.tabs.6988
                0x0000000000074fd8       0x28 cmd/built-in.o
 .data.root.6904
                0x0000000000075000        0x8 cmd/built-in.o
 .data.fdt_help_text
                0x0000000000075008      0x610 cmd/built-in.o
 .data.i2c_help_text
                0x0000000000075618      0x3f0 cmd/built-in.o
 .data.cmd_i2c_sub
                0x0000000000075a08      0x2d0 cmd/built-in.o
 .data.i2c_dp_last_length
                0x0000000000075cd8        0x4 cmd/built-in.o
 .data.do_echo  0x0000000000075cdc        0x4 cmd/built-in.o
 .data.dp_last_length
                0x0000000000075ce0        0x8 cmd/built-in.o
 .data.curr_device
                0x0000000000075ce8        0x4 cmd/built-in.o
 *fill*         0x0000000000075cec        0x4 
 .data.cmd_mmc  0x0000000000075cf0      0x1e0 cmd/built-in.o
 .data.regs_start
                0x0000000000075ed0       0x60 cmd/built-in.o
 .data.regs_cardbus
                0x0000000000075f30      0x190 cmd/built-in.o
 .data.pci_help_text
                0x00000000000760c0      0x230 cmd/built-in.o
 .data.regs_bridge
                0x00000000000762f0      0x150 cmd/built-in.o
 .data.regs_rest
                0x0000000000076440       0x80 cmd/built-in.o
 .data.regs_normal
                0x00000000000764c0       0xe0 cmd/built-in.o
 .data.usb_stor_curr_dev
                0x00000000000765a0        0x4 cmd/built-in.o
 *fill*         0x00000000000765a4        0x4 
 .data.imgextract_help_text
                0x00000000000765a8       0x58 cmd/built-in.o
 .data.env_help_text
                0x0000000000076600      0x250 cmd/built-in.o
 .data.env_id   0x0000000000076850        0x4 cmd/built-in.o
 *fill*         0x0000000000076854        0x4 
 .data.cmd_env_sub
                0x0000000000076858      0x1e0 cmd/built-in.o
 .data.bubt_devs
                0x0000000000076a38       0xa0 cmd/built-in.o
                0x0000000000076a38                bubt_devs
 .data.hash_algo
                0x0000000000076ad8       0xa8 common/built-in.o
 .data.reserved_list
                0x0000000000076b80      0x108 common/built-in.o
 .data.init_sequence_r
                0x0000000000076c88       0xf0 common/built-in.o
 .data.first_call
                0x0000000000076d78        0x8 common/built-in.o
 .data.env_name_spec
                0x0000000000076d80        0x8 common/built-in.o
                0x0000000000076d80                env_name_spec
 .data.of_busses
                0x0000000000076d88       0x30 common/built-in.o
 .data.usb_scan_list
                0x0000000000076db8       0x10 common/built-in.o
 .data.env_htab
                0x0000000000076dc8       0x18 common/built-in.o
                0x0000000000076dc8                env_htab
 .data.av_      0x0000000000076de0      0x810 common/built-in.o
 .data.sbrk_base
                0x00000000000775f0        0x8 common/built-in.o
 .data.trim_threshold
                0x00000000000775f8        0x8 common/built-in.o
 .data.load_addr
                0x0000000000077600        0x8 common/built-in.o
                0x0000000000077600                load_addr
 .data.stdio_names
                0x0000000000077608       0x18 common/built-in.o
                0x0000000000077608                stdio_names
 .data.hist_cur
                0x0000000000077620        0x4 common/built-in.o
 *fill*         0x0000000000077624        0x4 
 .data.system_guid
                0x0000000000077628       0x10 disk/built-in.o
 .data.armada_37xx_gpio_driver
                0x0000000000077638       0x78 drivers/built-in.o
 .data.armada_37xx_nb_groups
                0x00000000000776b0      0x580 drivers/built-in.o
 .data.armada_37xx_sb_groups
                0x0000000000077c30      0x240 drivers/built-in.o
 .data.block_cache
                0x0000000000077e70       0x10 drivers/built-in.o
 .data._stats   0x0000000000077e80       0x18 drivers/built-in.o
 .data.lane_mux_map
                0x0000000000077e98       0x18 drivers/built-in.o
                0x0000000000077e98                lane_mux_map
 .data.a3700_comphy_mux_data
                0x0000000000077eb0      0x100 drivers/built-in.o
                0x0000000000077eb0                a3700_comphy_mux_data
 .data.cmd_timeout.6336
                0x0000000000077fb0        0x4 drivers/mmc/built-in.o
 *fill*         0x0000000000077fb4        0x4 
 .data.e1000_supported
                0x0000000000077fb8      0x600 drivers/net/built-in.o
 .data.REG_PORT_BASE
                0x00000000000785b8        0x4 drivers/net/phy/built-in.o
 *fill*         0x00000000000785bc        0x4 
 .data.genphy_driver
                0x00000000000785c0       0x58 drivers/net/phy/built-in.o
 .data.phy_drivers
                0x0000000000078618       0x10 drivers/net/phy/built-in.o
 .data.M88E1111S_driver
                0x0000000000078628       0x58 drivers/net/phy/built-in.o
 .data.M88E1680_driver
                0x0000000000078680       0x58 drivers/net/phy/built-in.o
 .data.M88E1310_driver
                0x00000000000786d8       0x58 drivers/net/phy/built-in.o
 .data.M88E1011S_driver
                0x0000000000078730       0x58 drivers/net/phy/built-in.o
 .data.M88E1118_driver
                0x0000000000078788       0x58 drivers/net/phy/built-in.o
 .data.M88E1518_driver
                0x00000000000787e0       0x58 drivers/net/phy/built-in.o
 .data.M88E1145_driver
                0x0000000000078838       0x58 drivers/net/phy/built-in.o
 .data.M88E2110_driver
                0x0000000000078890       0x58 drivers/net/phy/built-in.o
 .data.M88E1149S_driver
                0x00000000000788e8       0x58 drivers/net/phy/built-in.o
 .data.M88E1121R_driver
                0x0000000000078940       0x58 drivers/net/phy/built-in.o
 .data.M88E1118R_driver
                0x0000000000078998       0x58 drivers/net/phy/built-in.o
 .data.M88E1510_driver
                0x00000000000789f0       0x58 drivers/net/phy/built-in.o
 .data.r8152b_pla_patch_a
                0x0000000000078a48      0x400 drivers/usb/eth/built-in.o
 .data.r8153_usb_patch_b
                0x0000000000078e48      0x160 drivers/usb/eth/built-in.o
 .data.r8153_usb_patch_c
                0x0000000000078fa8      0x118 drivers/usb/eth/built-in.o
 .data.r8152b_pla_patch_a2
                0x00000000000790c0      0x288 drivers/usb/eth/built-in.o
 .data.r8153_pla_patch_c
                0x0000000000079348      0x400 drivers/usb/eth/built-in.o
 .data.r8153_pla_patch_b
                0x0000000000079748      0x400 drivers/usb/eth/built-in.o
 .data.usb_patch_d
                0x0000000000079b48       0x70 drivers/usb/eth/built-in.o
 .data.ehci_usb_ops
                0x0000000000079bb8       0x40 drivers/usb/host/built-in.o
                0x0000000000079bb8                ehci_usb_ops
 .data.descriptor
                0x0000000000079bf8       0x78 drivers/usb/host/built-in.o
 .data.xhci_usb_ops
                0x0000000000079c70       0x40 drivers/usb/host/built-in.o
                0x0000000000079c70                xhci_usb_ops
 .data.fstypes  0x0000000000079cb0      0x108 fs/built-in.o
 .data.ext4fs_indir3_blkno
                0x0000000000079db8        0x4 fs/built-in.o
                0x0000000000079db8                ext4fs_indir3_blkno
 .data.prev_bg_bitmap_index.6483
                0x0000000000079dbc        0x4 fs/built-in.o
 .data.ext4fs_indir1_blkno
                0x0000000000079dc0        0x4 fs/built-in.o
                0x0000000000079dc0                ext4fs_indir1_blkno
 .data.prev_inode_bitmap_index.6507
                0x0000000000079dc4        0x4 fs/built-in.o
 .data.ext4fs_indir2_blkno
                0x0000000000079dc8        0x4 fs/built-in.o
                0x0000000000079dc8                ext4fs_indir2_blkno
 .data.prev_bg_bmap_idx.6166
                0x0000000000079dcc        0x4 fs/built-in.o
 .data.prev_bg_bmap_idx.6203
                0x0000000000079dd0        0x4 fs/built-in.o
 .data.prev_bg_bmap_idx.6181
                0x0000000000079dd4        0x4 fs/built-in.o
 .data.prev_bg_bmap_idx.6238
                0x0000000000079dd8        0x4 fs/built-in.o
 .data.first_node
                0x0000000000079ddc        0x4 fs/built-in.o
 .data.efi_event
                0x0000000000079de0       0x30 lib/built-in.o
 .data.loaded_image_info_obj.6611
                0x0000000000079e10       0x58 lib/built-in.o
 .data.efi_obj_list
                0x0000000000079e68       0x10 lib/built-in.o
                0x0000000000079e68                efi_obj_list
 .data.efi_runtime_mmio
                0x0000000000079e78       0x10 lib/built-in.o
                0x0000000000079e78                efi_runtime_mmio
 .data.efi_cout_modes
                0x0000000000079e88       0x48 lib/built-in.o
 .data.efi_con_mode
                0x0000000000079ed0       0x18 lib/built-in.o
 .data.efi_mem  0x0000000000079ee8       0x10 lib/built-in.o
                0x0000000000079ee8                efi_mem
 .data.sha256_padding
                0x0000000000079ef8       0x40 lib/built-in.o
 .data.first_call.5994
                0x0000000000079f38        0x4 net/built-in.o
 .data.net_native_vlan
                0x0000000000079f3c        0x2 net/built-in.o
                0x0000000000079f3c                net_native_vlan
 .data.net_our_vlan
                0x0000000000079f3e        0x2 net/built-in.o
                0x0000000000079f3e                net_our_vlan
 .data.nfs_offset
                0x0000000000079f40        0x4 net/built-in.o
 .data.supported_nfs_versions
                0x0000000000079f44        0x1 net/built-in.o
 *fill*         0x0000000000079f45        0x1 
 .data.tftp_block_size_option
                0x0000000000079f46        0x2 net/built-in.o
 .data.tftp_timeout_count_max
                0x0000000000079f48        0x4 net/built-in.o
                0x0000000000079f48                tftp_timeout_count_max
 *fill*         0x0000000000079f4c        0x4 
 .data.timeout_ms
                0x0000000000079f50        0x8 net/built-in.o
 .data.tftp_block_size
                0x0000000000079f58        0x2 net/built-in.o
 *fill*         0x0000000000079f5a        0x2 
 .data.timeout_count_max
                0x0000000000079f5c        0x4 net/built-in.o
 .data.test_commands
                0x0000000000079f60       0x90 test/dm/built-in.o

.got            0x0000000000079ff0        0x8
 .got           0x0000000000079ff0        0x8 arch/arm/cpu/armv8/start.o
                0x0000000000079ff0                _GLOBAL_OFFSET_TABLE_

.got.plt        0x0000000000079ff8       0x18
 .got.plt       0x0000000000079ff8       0x18 arch/arm/cpu/armv8/start.o

.__efi_runtime_rel_start
                0x000000000007a010        0x0
 .__efi_runtime_rel_start
                0x000000000007a010        0x0 arch/arm/lib/built-in.o

.__efi_runtime_stop
                0x000000000007a010        0x0
 .__efi_runtime_stop
                0x000000000007a010        0x0 arch/arm/lib/built-in.o

.__efi_runtime_rel_stop
                0x000000000007a010        0x0
 .__efi_runtime_rel_stop
                0x000000000007a010        0x0 arch/arm/lib/built-in.o

.__efi_runtime_start
                0x000000000007a010        0x0
 .__efi_runtime_start
                0x000000000007a010        0x0 arch/arm/lib/built-in.o
                0x000000000007a010                . = ALIGN (0x8)
                0x000000000007a010                . = .
                0x000000000007a010                . = ALIGN (0x8)

.u_boot_list    0x000000000007a010     0x2e68
 *(SORT(.u_boot_list*))
 .u_boot_list_2_cmd_1
                0x000000000007a010        0x0 cmd/built-in.o
 .u_boot_list_2_cmd_1
                0x000000000007a010        0x0 common/built-in.o
 .u_boot_list_2_cmd_2_base
                0x000000000007a010       0x30 cmd/built-in.o
                0x000000000007a010                _u_boot_list_2_cmd_2_base
 .u_boot_list_2_cmd_2_bdinfo
                0x000000000007a040       0x30 cmd/built-in.o
                0x000000000007a040                _u_boot_list_2_cmd_2_bdinfo
 .u_boot_list_2_cmd_2_blkcache
                0x000000000007a070       0x30 cmd/built-in.o
                0x000000000007a070                _u_boot_list_2_cmd_2_blkcache
 .u_boot_list_2_cmd_2_boot
                0x000000000007a0a0       0x30 cmd/built-in.o
                0x000000000007a0a0                _u_boot_list_2_cmd_2_boot
 .u_boot_list_2_cmd_2_bootd
                0x000000000007a0d0       0x30 cmd/built-in.o
                0x000000000007a0d0                _u_boot_list_2_cmd_2_bootd
 .u_boot_list_2_cmd_2_bootefi
                0x000000000007a100       0x30 cmd/built-in.o
                0x000000000007a100                _u_boot_list_2_cmd_2_bootefi
 .u_boot_list_2_cmd_2_bootelf
                0x000000000007a130       0x30 cmd/built-in.o
                0x000000000007a130                _u_boot_list_2_cmd_2_bootelf
 .u_boot_list_2_cmd_2_booti
                0x000000000007a160       0x30 cmd/built-in.o
                0x000000000007a160                _u_boot_list_2_cmd_2_booti
 .u_boot_list_2_cmd_2_bootm
                0x000000000007a190       0x30 cmd/built-in.o
                0x000000000007a190                _u_boot_list_2_cmd_2_bootm
 .u_boot_list_2_cmd_2_bootp
                0x000000000007a1c0       0x30 cmd/built-in.o
                0x000000000007a1c0                _u_boot_list_2_cmd_2_bootp
 .u_boot_list_2_cmd_2_bootvx
                0x000000000007a1f0       0x30 cmd/built-in.o
                0x000000000007a1f0                _u_boot_list_2_cmd_2_bootvx
 .u_boot_list_2_cmd_2_bubt
                0x000000000007a220       0x30 cmd/built-in.o
                0x000000000007a220                _u_boot_list_2_cmd_2_bubt
 .u_boot_list_2_cmd_2_cmp
                0x000000000007a250       0x30 cmd/built-in.o
                0x000000000007a250                _u_boot_list_2_cmd_2_cmp
 .u_boot_list_2_cmd_2_coninfo
                0x000000000007a280       0x30 cmd/built-in.o
                0x000000000007a280                _u_boot_list_2_cmd_2_coninfo
 .u_boot_list_2_cmd_2_cp
                0x000000000007a2b0       0x30 cmd/built-in.o
                0x000000000007a2b0                _u_boot_list_2_cmd_2_cp
 .u_boot_list_2_cmd_2_crc32
                0x000000000007a2e0       0x30 cmd/built-in.o
                0x000000000007a2e0                _u_boot_list_2_cmd_2_crc32
 .u_boot_list_2_cmd_2_dcache
                0x000000000007a310       0x30 cmd/built-in.o
                0x000000000007a310                _u_boot_list_2_cmd_2_dcache
 .u_boot_list_2_cmd_2_dhcp
                0x000000000007a340       0x30 cmd/built-in.o
                0x000000000007a340                _u_boot_list_2_cmd_2_dhcp
 .u_boot_list_2_cmd_2_dm
                0x000000000007a370       0x30 test/dm/built-in.o
                0x000000000007a370                _u_boot_list_2_cmd_2_dm
 .u_boot_list_2_cmd_2_echo
                0x000000000007a3a0       0x30 cmd/built-in.o
                0x000000000007a3a0                _u_boot_list_2_cmd_2_echo
 .u_boot_list_2_cmd_2_editenv
                0x000000000007a3d0       0x30 cmd/built-in.o
                0x000000000007a3d0                _u_boot_list_2_cmd_2_editenv
 .u_boot_list_2_cmd_2_env
                0x000000000007a400       0x30 cmd/built-in.o
                0x000000000007a400                _u_boot_list_2_cmd_2_env
 .u_boot_list_2_cmd_2_exit
                0x000000000007a430       0x30 cmd/built-in.o
                0x000000000007a430                _u_boot_list_2_cmd_2_exit
 .u_boot_list_2_cmd_2_ext4load
                0x000000000007a460       0x30 cmd/built-in.o
                0x000000000007a460                _u_boot_list_2_cmd_2_ext4load
 .u_boot_list_2_cmd_2_ext4ls
                0x000000000007a490       0x30 cmd/built-in.o
                0x000000000007a490                _u_boot_list_2_cmd_2_ext4ls
 .u_boot_list_2_cmd_2_ext4size
                0x000000000007a4c0       0x30 cmd/built-in.o
                0x000000000007a4c0                _u_boot_list_2_cmd_2_ext4size
 .u_boot_list_2_cmd_2_ext4write
                0x000000000007a4f0       0x30 cmd/built-in.o
                0x000000000007a4f0                _u_boot_list_2_cmd_2_ext4write
 .u_boot_list_2_cmd_2_false
                0x000000000007a520       0x30 cmd/built-in.o
                0x000000000007a520                _u_boot_list_2_cmd_2_false
 .u_boot_list_2_cmd_2_fatinfo
                0x000000000007a550       0x30 cmd/built-in.o
                0x000000000007a550                _u_boot_list_2_cmd_2_fatinfo
 .u_boot_list_2_cmd_2_fatload
                0x000000000007a580       0x30 cmd/built-in.o
                0x000000000007a580                _u_boot_list_2_cmd_2_fatload
 .u_boot_list_2_cmd_2_fatls
                0x000000000007a5b0       0x30 cmd/built-in.o
                0x000000000007a5b0                _u_boot_list_2_cmd_2_fatls
 .u_boot_list_2_cmd_2_fatsize
                0x000000000007a5e0       0x30 cmd/built-in.o
                0x000000000007a5e0                _u_boot_list_2_cmd_2_fatsize
 .u_boot_list_2_cmd_2_fdt
                0x000000000007a610       0x30 cmd/built-in.o
                0x000000000007a610                _u_boot_list_2_cmd_2_fdt
 .u_boot_list_2_cmd_2_fstype
                0x000000000007a640       0x30 cmd/built-in.o
                0x000000000007a640                _u_boot_list_2_cmd_2_fstype
 .u_boot_list_2_cmd_2_go
                0x000000000007a670       0x30 cmd/built-in.o
                0x000000000007a670                _u_boot_list_2_cmd_2_go
 .u_boot_list_2_cmd_2_gpio
                0x000000000007a6a0       0x30 cmd/built-in.o
                0x000000000007a6a0                _u_boot_list_2_cmd_2_gpio
 .u_boot_list_2_cmd_2_help
                0x000000000007a6d0       0x30 cmd/built-in.o
                0x000000000007a6d0                _u_boot_list_2_cmd_2_help
 .u_boot_list_2_cmd_2_i2c
                0x000000000007a700       0x30 cmd/built-in.o
                0x000000000007a700                _u_boot_list_2_cmd_2_i2c
 .u_boot_list_2_cmd_2_icache
                0x000000000007a730       0x30 cmd/built-in.o
                0x000000000007a730                _u_boot_list_2_cmd_2_icache
 .u_boot_list_2_cmd_2_iminfo
                0x000000000007a760       0x30 cmd/built-in.o
                0x000000000007a760                _u_boot_list_2_cmd_2_iminfo
 .u_boot_list_2_cmd_2_imxtract
                0x000000000007a790       0x30 cmd/built-in.o
                0x000000000007a790                _u_boot_list_2_cmd_2_imxtract
 .u_boot_list_2_cmd_2_ir
                0x000000000007a7c0       0x30 cmd/built-in.o
                0x000000000007a7c0                _u_boot_list_2_cmd_2_ir
 .u_boot_list_2_cmd_2_itest
                0x000000000007a7f0       0x30 cmd/built-in.o
                0x000000000007a7f0                _u_boot_list_2_cmd_2_itest
 .u_boot_list_2_cmd_2_load
                0x000000000007a820       0x30 cmd/built-in.o
                0x000000000007a820                _u_boot_list_2_cmd_2_load
 .u_boot_list_2_cmd_2_loadb
                0x000000000007a850       0x30 cmd/built-in.o
                0x000000000007a850                _u_boot_list_2_cmd_2_loadb
 .u_boot_list_2_cmd_2_loads
                0x000000000007a880       0x30 cmd/built-in.o
                0x000000000007a880                _u_boot_list_2_cmd_2_loads
 .u_boot_list_2_cmd_2_loadx
                0x000000000007a8b0       0x30 cmd/built-in.o
                0x000000000007a8b0                _u_boot_list_2_cmd_2_loadx
 .u_boot_list_2_cmd_2_loady
                0x000000000007a8e0       0x30 cmd/built-in.o
                0x000000000007a8e0                _u_boot_list_2_cmd_2_loady
 .u_boot_list_2_cmd_2_loop
                0x000000000007a910       0x30 cmd/built-in.o
                0x000000000007a910                _u_boot_list_2_cmd_2_loop
 .u_boot_list_2_cmd_2_ls
                0x000000000007a940       0x30 cmd/built-in.o
                0x000000000007a940                _u_boot_list_2_cmd_2_ls
 .u_boot_list_2_cmd_2_md
                0x000000000007a970       0x30 cmd/built-in.o
                0x000000000007a970                _u_boot_list_2_cmd_2_md
 .u_boot_list_2_cmd_2_mdio
                0x000000000007a9a0       0x30 cmd/built-in.o
                0x000000000007a9a0                _u_boot_list_2_cmd_2_mdio
 .u_boot_list_2_cmd_2_mii
                0x000000000007a9d0       0x30 cmd/built-in.o
                0x000000000007a9d0                _u_boot_list_2_cmd_2_mii
 .u_boot_list_2_cmd_2_mm
                0x000000000007aa00       0x30 cmd/built-in.o
                0x000000000007aa00                _u_boot_list_2_cmd_2_mm
 .u_boot_list_2_cmd_2_mmc
                0x000000000007aa30       0x30 cmd/built-in.o
                0x000000000007aa30                _u_boot_list_2_cmd_2_mmc
 .u_boot_list_2_cmd_2_mmcinfo
                0x000000000007aa60       0x30 cmd/built-in.o
                0x000000000007aa60                _u_boot_list_2_cmd_2_mmcinfo
 .u_boot_list_2_cmd_2_mtest
                0x000000000007aa90       0x30 cmd/built-in.o
                0x000000000007aa90                _u_boot_list_2_cmd_2_mtest
 .u_boot_list_2_cmd_2_mw
                0x000000000007aac0       0x30 cmd/built-in.o
                0x000000000007aac0                _u_boot_list_2_cmd_2_mw
 .u_boot_list_2_cmd_2_nfs
                0x000000000007aaf0       0x30 cmd/built-in.o
                0x000000000007aaf0                _u_boot_list_2_cmd_2_nfs
 .u_boot_list_2_cmd_2_nm
                0x000000000007ab20       0x30 cmd/built-in.o
                0x000000000007ab20                _u_boot_list_2_cmd_2_nm
 .u_boot_list_2_cmd_2_part
                0x000000000007ab50       0x30 cmd/built-in.o
                0x000000000007ab50                _u_boot_list_2_cmd_2_part
 .u_boot_list_2_cmd_2_pci
                0x000000000007ab80       0x30 cmd/built-in.o
                0x000000000007ab80                _u_boot_list_2_cmd_2_pci
 .u_boot_list_2_cmd_2_ping
                0x000000000007abb0       0x30 cmd/built-in.o
                0x000000000007abb0                _u_boot_list_2_cmd_2_ping
 .u_boot_list_2_cmd_2_printenv
                0x000000000007abe0       0x30 cmd/built-in.o
                0x000000000007abe0                _u_boot_list_2_cmd_2_printenv
 .u_boot_list_2_cmd_2_question_mark
                0x000000000007ac10       0x30 cmd/built-in.o
                0x000000000007ac10                _u_boot_list_2_cmd_2_question_mark
 .u_boot_list_2_cmd_2_reset
                0x000000000007ac40       0x30 cmd/built-in.o
                0x000000000007ac40                _u_boot_list_2_cmd_2_reset
 .u_boot_list_2_cmd_2_run
                0x000000000007ac70       0x30 cmd/built-in.o
                0x000000000007ac70                _u_boot_list_2_cmd_2_run
 .u_boot_list_2_cmd_2_save
                0x000000000007aca0       0x30 cmd/built-in.o
                0x000000000007aca0                _u_boot_list_2_cmd_2_save
 .u_boot_list_2_cmd_2_saveenv
                0x000000000007acd0       0x30 cmd/built-in.o
                0x000000000007acd0                _u_boot_list_2_cmd_2_saveenv
 .u_boot_list_2_cmd_2_scsi
                0x000000000007ad00       0x30 cmd/built-in.o
                0x000000000007ad00                _u_boot_list_2_cmd_2_scsi
 .u_boot_list_2_cmd_2_scsiboot
                0x000000000007ad30       0x30 cmd/built-in.o
                0x000000000007ad30                _u_boot_list_2_cmd_2_scsiboot
 .u_boot_list_2_cmd_2_setenv
                0x000000000007ad60       0x30 cmd/built-in.o
                0x000000000007ad60                _u_boot_list_2_cmd_2_setenv
 .u_boot_list_2_cmd_2_sf
                0x000000000007ad90       0x30 cmd/built-in.o
                0x000000000007ad90                _u_boot_list_2_cmd_2_sf
 .u_boot_list_2_cmd_2_showvar
                0x000000000007adc0       0x30 common/built-in.o
                0x000000000007adc0                _u_boot_list_2_cmd_2_showvar
 .u_boot_list_2_cmd_2_size
                0x000000000007adf0       0x30 cmd/built-in.o
                0x000000000007adf0                _u_boot_list_2_cmd_2_size
 .u_boot_list_2_cmd_2_sleep
                0x000000000007ae20       0x30 cmd/built-in.o
                0x000000000007ae20                _u_boot_list_2_cmd_2_sleep
 .u_boot_list_2_cmd_2_source
                0x000000000007ae50       0x30 cmd/built-in.o
                0x000000000007ae50                _u_boot_list_2_cmd_2_source
 .u_boot_list_2_cmd_2_sspi
                0x000000000007ae80       0x30 cmd/built-in.o
                0x000000000007ae80                _u_boot_list_2_cmd_2_sspi
 .u_boot_list_2_cmd_2_switch
                0x000000000007aeb0       0x30 drivers/net/phy/built-in.o
                0x000000000007aeb0                _u_boot_list_2_cmd_2_switch
 .u_boot_list_2_cmd_2_test
                0x000000000007aee0       0x30 cmd/built-in.o
                0x000000000007aee0                _u_boot_list_2_cmd_2_test
 .u_boot_list_2_cmd_2_tftpboot
                0x000000000007af10       0x30 cmd/built-in.o
                0x000000000007af10                _u_boot_list_2_cmd_2_tftpboot
 .u_boot_list_2_cmd_2_time
                0x000000000007af40       0x30 cmd/built-in.o
                0x000000000007af40                _u_boot_list_2_cmd_2_time
 .u_boot_list_2_cmd_2_true
                0x000000000007af70       0x30 cmd/built-in.o
                0x000000000007af70                _u_boot_list_2_cmd_2_true
 .u_boot_list_2_cmd_2_usb
                0x000000000007afa0       0x30 cmd/built-in.o
                0x000000000007afa0                _u_boot_list_2_cmd_2_usb
 .u_boot_list_2_cmd_2_usbboot
                0x000000000007afd0       0x30 cmd/built-in.o
                0x000000000007afd0                _u_boot_list_2_cmd_2_usbboot
 .u_boot_list_2_cmd_2_version
                0x000000000007b000       0x30 cmd/built-in.o
                0x000000000007b000                _u_boot_list_2_cmd_2_version
 .u_boot_list_2_cmd_3
                0x000000000007b030        0x0 cmd/built-in.o
 .u_boot_list_2_cmd_3
                0x000000000007b030        0x0 common/built-in.o
 .u_boot_list_2_driver_1
                0x000000000007b030        0x0 drivers/built-in.o
 .u_boot_list_2_driver_2_ahci_mvebu_drv
                0x000000000007b030       0x78 arch/arm/mach-mvebu/built-in.o
                0x000000000007b030                _u_boot_list_2_driver_2_ahci_mvebu_drv
 .u_boot_list_2_driver_2_armada_37xx_pinctrl
                0x000000000007b0a8       0x78 drivers/built-in.o
                0x000000000007b0a8                _u_boot_list_2_driver_2_armada_37xx_pinctrl
 .u_boot_list_2_driver_2_asix_eth
                0x000000000007b120       0x78 drivers/usb/eth/built-in.o
                0x000000000007b120                _u_boot_list_2_driver_2_asix_eth
 .u_boot_list_2_driver_2_ehci_mvebu
                0x000000000007b198       0x78 drivers/usb/host/built-in.o
                0x000000000007b198                _u_boot_list_2_driver_2_ehci_mvebu
 .u_boot_list_2_driver_2_eth_e1000
                0x000000000007b210       0x78 drivers/net/built-in.o
                0x000000000007b210                _u_boot_list_2_driver_2_eth_e1000
 .u_boot_list_2_driver_2_fixed_regulator
                0x000000000007b288       0x78 drivers/power/regulator/built-in.o
                0x000000000007b288                _u_boot_list_2_driver_2_fixed_regulator
 .u_boot_list_2_driver_2_gpio_mvebu
                0x000000000007b300       0x78 drivers/gpio/built-in.o
                0x000000000007b300                _u_boot_list_2_driver_2_gpio_mvebu
 .u_boot_list_2_driver_2_gpio_regulator
                0x000000000007b378       0x78 drivers/power/regulator/built-in.o
                0x000000000007b378                _u_boot_list_2_driver_2_gpio_regulator
 .u_boot_list_2_driver_2_i2c_generic_chip_drv
                0x000000000007b3f0       0x78 drivers/i2c/built-in.o
                0x000000000007b3f0                _u_boot_list_2_driver_2_i2c_generic_chip_drv
 .u_boot_list_2_driver_2_i2c_mv
                0x000000000007b468       0x78 drivers/i2c/built-in.o
                0x000000000007b468                _u_boot_list_2_driver_2_i2c_mv
 .u_boot_list_2_driver_2_mcs7830_eth
                0x000000000007b4e0       0x78 drivers/usb/eth/built-in.o
                0x000000000007b4e0                _u_boot_list_2_driver_2_mcs7830_eth
 .u_boot_list_2_driver_2_mmc
                0x000000000007b558       0x78 drivers/mmc/built-in.o
                0x000000000007b558                _u_boot_list_2_driver_2_mmc
 .u_boot_list_2_driver_2_mmc_blk
                0x000000000007b5d0       0x78 drivers/mmc/built-in.o
                0x000000000007b5d0                _u_boot_list_2_driver_2_mmc_blk
 .u_boot_list_2_driver_2_mvebu_comphy
                0x000000000007b648       0x78 drivers/built-in.o
                0x000000000007b648                _u_boot_list_2_driver_2_mvebu_comphy
 .u_boot_list_2_driver_2_mvebu_spi
                0x000000000007b6c0       0x78 drivers/spi/built-in.o
                0x000000000007b6c0                _u_boot_list_2_driver_2_mvebu_spi
 .u_boot_list_2_driver_2_mvneta
                0x000000000007b738       0x78 drivers/net/built-in.o
                0x000000000007b738                _u_boot_list_2_driver_2_mvneta
 .u_boot_list_2_driver_2_pci_bridge_drv
                0x000000000007b7b0       0x78 drivers/pci/built-in.o
                0x000000000007b7b0                _u_boot_list_2_driver_2_pci_bridge_drv
 .u_boot_list_2_driver_2_pci_generic_drv
                0x000000000007b828       0x78 drivers/pci/built-in.o
                0x000000000007b828                _u_boot_list_2_driver_2_pci_generic_drv
 .u_boot_list_2_driver_2_pcie_advk
                0x000000000007b8a0       0x78 drivers/pci/built-in.o
                0x000000000007b8a0                _u_boot_list_2_driver_2_pcie_advk
 .u_boot_list_2_driver_2_pinconfig_generic
                0x000000000007b918       0x78 drivers/built-in.o
                0x000000000007b918                _u_boot_list_2_driver_2_pinconfig_generic
 .u_boot_list_2_driver_2_r8152_eth
                0x000000000007b990       0x78 drivers/usb/eth/built-in.o
                0x000000000007b990                _u_boot_list_2_driver_2_r8152_eth
 .u_boot_list_2_driver_2_root_driver
                0x000000000007ba08       0x78 drivers/built-in.o
                0x000000000007ba08                _u_boot_list_2_driver_2_root_driver
 .u_boot_list_2_driver_2_scsi_blk
                0x000000000007ba80       0x78 common/built-in.o
                0x000000000007ba80                _u_boot_list_2_driver_2_scsi_blk
 .u_boot_list_2_driver_2_scsi_mvebu_drv
                0x000000000007baf8       0x78 drivers/built-in.o
                0x000000000007baf8                _u_boot_list_2_driver_2_scsi_mvebu_drv
 .u_boot_list_2_driver_2_serial_mvebu
                0x000000000007bb70       0x78 drivers/serial/built-in.o
                0x000000000007bb70                _u_boot_list_2_driver_2_serial_mvebu
 .u_boot_list_2_driver_2_simple_bus_drv
                0x000000000007bbe8       0x78 drivers/built-in.o
                0x000000000007bbe8                _u_boot_list_2_driver_2_simple_bus_drv
 .u_boot_list_2_driver_2_smsc95xx_eth
                0x000000000007bc60       0x78 drivers/usb/eth/built-in.o
                0x000000000007bc60                _u_boot_list_2_driver_2_smsc95xx_eth
 .u_boot_list_2_driver_2_spi_flash_std
                0x000000000007bcd8       0x78 drivers/mtd/spi/built-in.o
                0x000000000007bcd8                _u_boot_list_2_driver_2_spi_flash_std
 .u_boot_list_2_driver_2_spi_generic_drv
                0x000000000007bd50       0x78 drivers/spi/built-in.o
                0x000000000007bd50                _u_boot_list_2_driver_2_spi_generic_drv
 .u_boot_list_2_driver_2_usb_dev_generic_drv
                0x000000000007bdc8       0x78 drivers/usb/host/built-in.o
                0x000000000007bdc8                _u_boot_list_2_driver_2_usb_dev_generic_drv
 .u_boot_list_2_driver_2_usb_generic_hub
                0x000000000007be40       0x78 common/built-in.o
                0x000000000007be40                _u_boot_list_2_driver_2_usb_generic_hub
 .u_boot_list_2_driver_2_usb_mass_storage
                0x000000000007beb8       0x78 common/built-in.o
                0x000000000007beb8                _u_boot_list_2_driver_2_usb_mass_storage
 .u_boot_list_2_driver_2_usb_storage_blk
                0x000000000007bf30       0x78 common/built-in.o
                0x000000000007bf30                _u_boot_list_2_driver_2_usb_storage_blk
 .u_boot_list_2_driver_2_usb_xhci
                0x000000000007bfa8       0x78 drivers/usb/host/built-in.o
                0x000000000007bfa8                _u_boot_list_2_driver_2_usb_xhci
 .u_boot_list_2_driver_2_xenon_sdhci_drv
                0x000000000007c020       0x78 drivers/mmc/built-in.o
                0x000000000007c020                _u_boot_list_2_driver_2_xenon_sdhci_drv
 .u_boot_list_2_driver_3
                0x000000000007c098        0x0 drivers/built-in.o
 .u_boot_list_2_driver_info_1
                0x000000000007c098        0x0 drivers/built-in.o
 .u_boot_list_2_driver_info_3
                0x000000000007c098        0x0 drivers/built-in.o
 .u_boot_list_2_env_clbk_1
                0x000000000007c098        0x0 common/built-in.o
 .u_boot_list_2_env_clbk_2_baudrate
                0x000000000007c098       0x10 drivers/serial/built-in.o
                0x000000000007c098                _u_boot_list_2_env_clbk_2_baudrate
 .u_boot_list_2_env_clbk_2_bootfile
                0x000000000007c0a8       0x10 net/built-in.o
                0x000000000007c0a8                _u_boot_list_2_env_clbk_2_bootfile
 .u_boot_list_2_env_clbk_2_callbacks
                0x000000000007c0b8       0x10 common/built-in.o
                0x000000000007c0b8                _u_boot_list_2_env_clbk_2_callbacks
 .u_boot_list_2_env_clbk_2_console
                0x000000000007c0c8       0x10 common/built-in.o
                0x000000000007c0c8                _u_boot_list_2_env_clbk_2_console
 .u_boot_list_2_env_clbk_2_ethaddr
                0x000000000007c0d8       0x10 net/built-in.o
                0x000000000007c0d8                _u_boot_list_2_env_clbk_2_ethaddr
 .u_boot_list_2_env_clbk_2_flags
                0x000000000007c0e8       0x10 common/built-in.o
                0x000000000007c0e8                _u_boot_list_2_env_clbk_2_flags
 .u_boot_list_2_env_clbk_2_gatewayip
                0x000000000007c0f8       0x10 net/built-in.o
                0x000000000007c0f8                _u_boot_list_2_env_clbk_2_gatewayip
 .u_boot_list_2_env_clbk_2_ipaddr
                0x000000000007c108       0x10 net/built-in.o
                0x000000000007c108                _u_boot_list_2_env_clbk_2_ipaddr
 .u_boot_list_2_env_clbk_2_loadaddr
                0x000000000007c118       0x10 common/built-in.o
                0x000000000007c118                _u_boot_list_2_env_clbk_2_loadaddr
 .u_boot_list_2_env_clbk_2_netmask
                0x000000000007c128       0x10 net/built-in.o
                0x000000000007c128                _u_boot_list_2_env_clbk_2_netmask
 .u_boot_list_2_env_clbk_2_nvlan
                0x000000000007c138       0x10 net/built-in.o
                0x000000000007c138                _u_boot_list_2_env_clbk_2_nvlan
 .u_boot_list_2_env_clbk_2_serverip
                0x000000000007c148       0x10 net/built-in.o
                0x000000000007c148                _u_boot_list_2_env_clbk_2_serverip
 .u_boot_list_2_env_clbk_2_vlan
                0x000000000007c158       0x10 net/built-in.o
                0x000000000007c158                _u_boot_list_2_env_clbk_2_vlan
 .u_boot_list_2_env_clbk_3
                0x000000000007c168        0x0 common/built-in.o
 .u_boot_list_2_part_driver_1
                0x000000000007c168        0x0 disk/built-in.o
 .u_boot_list_2_part_driver_2_a_efi
                0x000000000007c168       0x28 disk/built-in.o
                0x000000000007c168                _u_boot_list_2_part_driver_2_a_efi
 .u_boot_list_2_part_driver_2_dos
                0x000000000007c190       0x28 disk/built-in.o
                0x000000000007c190                _u_boot_list_2_part_driver_2_dos
 .u_boot_list_2_part_driver_2_iso
                0x000000000007c1b8       0x28 disk/built-in.o
                0x000000000007c1b8                _u_boot_list_2_part_driver_2_iso
 .u_boot_list_2_part_driver_2_mac
                0x000000000007c1e0       0x28 disk/built-in.o
                0x000000000007c1e0                _u_boot_list_2_part_driver_2_mac
 .u_boot_list_2_part_driver_3
                0x000000000007c208        0x0 disk/built-in.o
 .u_boot_list_2_pci_driver_entry_1
                0x000000000007c208        0x0 drivers/pci/built-in.o
 .u_boot_list_2_pci_driver_entry_2_eth_e1000
                0x000000000007c208       0x10 drivers/net/built-in.o
                0x000000000007c208                _u_boot_list_2_pci_driver_entry_2_eth_e1000
 .u_boot_list_2_pci_driver_entry_3
                0x000000000007c218        0x0 drivers/pci/built-in.o
 .u_boot_list_2_uclass_1
                0x000000000007c218        0x0 drivers/built-in.o
 .u_boot_list_2_uclass_2_ahci
                0x000000000007c218       0x80 drivers/built-in.o
                0x000000000007c218                _u_boot_list_2_uclass_2_ahci
 .u_boot_list_2_uclass_2_blk
                0x000000000007c298       0x80 drivers/built-in.o
                0x000000000007c298                _u_boot_list_2_uclass_2_blk
 .u_boot_list_2_uclass_2_eth
                0x000000000007c318       0x80 net/built-in.o
                0x000000000007c318                _u_boot_list_2_uclass_2_eth
 .u_boot_list_2_uclass_2_gpio
                0x000000000007c398       0x80 drivers/gpio/built-in.o
                0x000000000007c398                _u_boot_list_2_uclass_2_gpio
 .u_boot_list_2_uclass_2_i2c
                0x000000000007c418       0x80 drivers/i2c/built-in.o
                0x000000000007c418                _u_boot_list_2_uclass_2_i2c
 .u_boot_list_2_uclass_2_i2c_generic
                0x000000000007c498       0x80 drivers/i2c/built-in.o
                0x000000000007c498                _u_boot_list_2_uclass_2_i2c_generic
 .u_boot_list_2_uclass_2_misc
                0x000000000007c518       0x80 drivers/built-in.o
                0x000000000007c518                _u_boot_list_2_uclass_2_misc
 .u_boot_list_2_uclass_2_mmc
                0x000000000007c598       0x80 drivers/mmc/built-in.o
                0x000000000007c598                _u_boot_list_2_uclass_2_mmc
 .u_boot_list_2_uclass_2_pci
                0x000000000007c618       0x80 drivers/pci/built-in.o
                0x000000000007c618                _u_boot_list_2_uclass_2_pci
 .u_boot_list_2_uclass_2_pci_generic
                0x000000000007c698       0x80 drivers/pci/built-in.o
                0x000000000007c698                _u_boot_list_2_uclass_2_pci_generic
 .u_boot_list_2_uclass_2_pinconfig
                0x000000000007c718       0x80 drivers/built-in.o
                0x000000000007c718                _u_boot_list_2_uclass_2_pinconfig
 .u_boot_list_2_uclass_2_pinctrl
                0x000000000007c798       0x80 drivers/built-in.o
                0x000000000007c798                _u_boot_list_2_uclass_2_pinctrl
 .u_boot_list_2_uclass_2_regulator
                0x000000000007c818       0x80 drivers/power/regulator/built-in.o
                0x000000000007c818                _u_boot_list_2_uclass_2_regulator
 .u_boot_list_2_uclass_2_root
                0x000000000007c898       0x80 drivers/built-in.o
                0x000000000007c898                _u_boot_list_2_uclass_2_root
 .u_boot_list_2_uclass_2_scsi
                0x000000000007c918       0x80 drivers/built-in.o
                0x000000000007c918                _u_boot_list_2_uclass_2_scsi
 .u_boot_list_2_uclass_2_serial
                0x000000000007c998       0x80 drivers/serial/built-in.o
                0x000000000007c998                _u_boot_list_2_uclass_2_serial
 .u_boot_list_2_uclass_2_simple_bus
                0x000000000007ca18       0x80 drivers/built-in.o
                0x000000000007ca18                _u_boot_list_2_uclass_2_simple_bus
 .u_boot_list_2_uclass_2_spi
                0x000000000007ca98       0x80 drivers/spi/built-in.o
                0x000000000007ca98                _u_boot_list_2_uclass_2_spi
 .u_boot_list_2_uclass_2_spi_flash
                0x000000000007cb18       0x80 drivers/mtd/spi/built-in.o
                0x000000000007cb18                _u_boot_list_2_uclass_2_spi_flash
 .u_boot_list_2_uclass_2_spi_generic
                0x000000000007cb98       0x80 drivers/spi/built-in.o
                0x000000000007cb98                _u_boot_list_2_uclass_2_spi_generic
 .u_boot_list_2_uclass_2_usb
                0x000000000007cc18       0x80 drivers/usb/host/built-in.o
                0x000000000007cc18                _u_boot_list_2_uclass_2_usb
 .u_boot_list_2_uclass_2_usb_dev_generic
                0x000000000007cc98       0x80 drivers/usb/host/built-in.o
                0x000000000007cc98                _u_boot_list_2_uclass_2_usb_dev_generic
 .u_boot_list_2_uclass_2_usb_hub
                0x000000000007cd18       0x80 common/built-in.o
                0x000000000007cd18                _u_boot_list_2_uclass_2_usb_hub
 .u_boot_list_2_uclass_2_usb_mass_storage
                0x000000000007cd98       0x80 common/built-in.o
                0x000000000007cd98                _u_boot_list_2_uclass_2_usb_mass_storage
 .u_boot_list_2_uclass_3
                0x000000000007ce18        0x0 drivers/built-in.o
 .u_boot_list_2_usb_driver_entry_1
                0x000000000007ce18        0x0 drivers/usb/host/built-in.o
 .u_boot_list_2_usb_driver_entry_2_asix_eth
                0x000000000007ce18       0x10 drivers/usb/eth/built-in.o
                0x000000000007ce18                _u_boot_list_2_usb_driver_entry_2_asix_eth
 .u_boot_list_2_usb_driver_entry_2_mcs7830_eth
                0x000000000007ce28       0x10 drivers/usb/eth/built-in.o
                0x000000000007ce28                _u_boot_list_2_usb_driver_entry_2_mcs7830_eth
 .u_boot_list_2_usb_driver_entry_2_r8152_eth
                0x000000000007ce38       0x10 drivers/usb/eth/built-in.o
                0x000000000007ce38                _u_boot_list_2_usb_driver_entry_2_r8152_eth
 .u_boot_list_2_usb_driver_entry_2_smsc95xx_eth
                0x000000000007ce48       0x10 drivers/usb/eth/built-in.o
                0x000000000007ce48                _u_boot_list_2_usb_driver_entry_2_smsc95xx_eth
 .u_boot_list_2_usb_driver_entry_2_usb_generic_hub
                0x000000000007ce58       0x10 common/built-in.o
                0x000000000007ce58                _u_boot_list_2_usb_driver_entry_2_usb_generic_hub
 .u_boot_list_2_usb_driver_entry_2_usb_mass_storage
                0x000000000007ce68       0x10 common/built-in.o
                0x000000000007ce68                _u_boot_list_2_usb_driver_entry_2_usb_mass_storage
 .u_boot_list_2_usb_driver_entry_3
                0x000000000007ce78        0x0 drivers/usb/host/built-in.o
                0x000000000007ce78                . = ALIGN (0x8)

.efi_runtime    0x000000000007ce78      0x220
                0x000000000007ce78                __efi_runtime_start = .
 *(efi_runtime_text)
 efi_runtime_text
                0x000000000007ce78       0xac arch/arm/cpu/armv8/built-in.o
                0x000000000007ce78                smc_call
                0x000000000007cebc                psci_system_reset
                0x000000000007cedc                psci_system_off
                0x000000000007cefc                efi_reset_system
 efi_runtime_text
                0x000000000007cf24       0x28 lib/built-in.o
                0x000000000007cf28                efi_get_time
 *(efi_runtime_data)
 *fill*         0x000000000007cf4c        0x4 
 efi_runtime_data
                0x000000000007cf50      0x148 lib/built-in.o
                0x000000000007cf50                systab
                0x000000000007d010                efi_runtime_services
                0x000000000007d098                __efi_runtime_stop = .

.efi_runtime_rel
                0x000000000007d098      0x1b0
                0x000000000007d098                __efi_runtime_rel_start = .
 *(.relaefi_runtime_text)
 *(.relaefi_runtime_data)
 .relaefi_runtime_data
                0x000000000007d098      0x1b0 arch/arm/cpu/armv8/start.o
                0x000000000007d248                __efi_runtime_rel_stop = .
                0x000000000007d248                . = ALIGN (0x8)

.image_copy_end
                0x000000000007d248        0x0
 *(.__image_copy_end)
 .__image_copy_end
                0x000000000007d248        0x0 arch/arm/lib/built-in.o
                0x000000000007d248                . = ALIGN (0x8)

.rel_dyn_start  0x000000000007d248        0x0
 *(.__rel_dyn_start)
 .__rel_dyn_start
                0x000000000007d248        0x0 arch/arm/lib/built-in.o

.rela.dyn       0x000000000007d248     0xc000
 *(.rela*)
 .rela.got      0x000000000007d248        0x0 arch/arm/cpu/armv8/start.o
 .rela.plt      0x000000000007d248        0x0 arch/arm/cpu/armv8/start.o
 .rela.ifunc    0x000000000007d248        0x0 arch/arm/cpu/armv8/start.o
 .rela.text     0x000000000007d248       0x90 arch/arm/cpu/armv8/start.o
 .rela.rodata.mvebu_ahci_ids
                0x000000000007d2d8       0x30 arch/arm/cpu/armv8/start.o
 .rela.data.mem_map
                0x000000000007d308       0x18 arch/arm/cpu/armv8/start.o
 .rela.u_boot_list_2_driver_2_ahci_mvebu_drv
                0x000000000007d320       0x48 arch/arm/cpu/armv8/start.o
 .rela.text.do_version
                0x000000000007d368       0x18 arch/arm/cpu/armv8/start.o
 .rela.rodata.op_table
                0x000000000007d380      0x138 arch/arm/cpu/armv8/start.o
 .rela.rodata.reg_4_desc_tbl
                0x000000000007d4b8      0x120 arch/arm/cpu/armv8/start.o
 .rela.rodata.desc_and_len_tbl
                0x000000000007d5d8       0x90 arch/arm/cpu/armv8/start.o
 .rela.rodata.reg_5_desc_tbl
                0x000000000007d668      0x120 arch/arm/cpu/armv8/start.o
 .rela.rodata.reg_2_desc_tbl
                0x000000000007d788       0x18 arch/arm/cpu/armv8/start.o
 .rela.rodata.reg_0_5_desc_tbl
                0x000000000007d7a0       0x90 arch/arm/cpu/armv8/start.o
 .rela.rodata.reg_3_desc_tbl
                0x000000000007d830       0x48 arch/arm/cpu/armv8/start.o
 .rela.rodata.reg_0_desc_tbl
                0x000000000007d878       0xf0 arch/arm/cpu/armv8/start.o
 .rela.rodata.reg_1_desc_tbl
                0x000000000007d968      0x180 arch/arm/cpu/armv8/start.o
 .rela.rodata.op_adv
                0x000000000007dae8      0x180 arch/arm/cpu/armv8/start.o
 .rela.rodata.CSWTCH.31
                0x000000000007dc68       0x78 arch/arm/cpu/armv8/start.o
 .rela.u_boot_list_2_cmd_2_go
                0x000000000007dce0       0x60 arch/arm/cpu/armv8/start.o
 .rela.u_boot_list_2_cmd_2_reset
                0x000000000007dd40       0x60 arch/arm/cpu/armv8/start.o
 .rela.u_boot_list_2_cmd_2_iminfo
                0x000000000007dda0       0x60 arch/arm/cpu/armv8/start.o
 .rela.u_boot_list_2_cmd_2_boot
                0x000000000007de00       0x60 arch/arm/cpu/armv8/start.o
 .rela.u_boot_list_2_cmd_2_bootd
                0x000000000007de60       0x60 arch/arm/cpu/armv8/start.o
 .rela.u_boot_list_2_cmd_2_bootm
                0x000000000007dec0       0x60 arch/arm/cpu/armv8/start.o
 .rela.data.cmd_bootm_sub
                0x000000000007df20      0x288 arch/arm/cpu/armv8/start.o
 .rela.u_boot_list_2_cmd_2_question_mark
                0x000000000007e1a8       0x60 arch/arm/cpu/armv8/start.o
 .rela.u_boot_list_2_cmd_2_help
                0x000000000007e208       0x60 arch/arm/cpu/armv8/start.o
 .rela.u_boot_list_2_cmd_2_version
                0x000000000007e268       0x60 arch/arm/cpu/armv8/start.o
 .rela.u_boot_list_2_cmd_2_source
                0x000000000007e2c8       0x60 arch/arm/cpu/armv8/start.o
 .rela.u_boot_list_2_cmd_2_bdinfo
                0x000000000007e328       0x60 arch/arm/cpu/armv8/start.o
 .rela.data.cmd_blkc_sub
                0x000000000007e388       0xc0 arch/arm/cpu/armv8/start.o
 .rela.u_boot_list_2_cmd_2_blkcache
                0x000000000007e448       0x60 arch/arm/cpu/armv8/start.o
 .rela.data.loaded_image_info_obj
                0x000000000007e4a8       0x78 arch/arm/cpu/armv8/start.o
 .rela.u_boot_list_2_cmd_2_bootefi
                0x000000000007e520       0x60 arch/arm/cpu/armv8/start.o
 .rela.data.bootefi_device_obj
                0x000000000007e580       0x48 arch/arm/cpu/armv8/start.o
 .rela.data.loaded_image_info
                0x000000000007e5c8       0x30 arch/arm/cpu/armv8/start.o
 .rela.u_boot_list_2_cmd_2_booti
                0x000000000007e5f8       0x60 arch/arm/cpu/armv8/start.o
 .rela.u_boot_list_2_cmd_2_icache
                0x000000000007e658       0x60 arch/arm/cpu/armv8/start.o
 .rela.u_boot_list_2_cmd_2_dcache
                0x000000000007e6b8       0x60 arch/arm/cpu/armv8/start.o
 .rela.u_boot_list_2_cmd_2_coninfo
                0x000000000007e718       0x60 arch/arm/cpu/armv8/start.o
 .rela.u_boot_list_2_cmd_2_echo
                0x000000000007e778       0x60 arch/arm/cpu/armv8/start.o
 .rela.u_boot_list_2_cmd_2_bootelf
                0x000000000007e7d8       0x60 arch/arm/cpu/armv8/start.o
 .rela.u_boot_list_2_cmd_2_bootvx
                0x000000000007e838       0x60 arch/arm/cpu/armv8/start.o
 .rela.u_boot_list_2_cmd_2_exit
                0x000000000007e898       0x60 arch/arm/cpu/armv8/start.o
 .rela.u_boot_list_2_cmd_2_ext4load
                0x000000000007e8f8       0x60 arch/arm/cpu/armv8/start.o
 .rela.u_boot_list_2_cmd_2_ext4write
                0x000000000007e958       0x60 arch/arm/cpu/armv8/start.o
 .rela.u_boot_list_2_cmd_2_ext4ls
                0x000000000007e9b8       0x60 arch/arm/cpu/armv8/start.o
 .rela.u_boot_list_2_cmd_2_ext4size
                0x000000000007ea18       0x60 arch/arm/cpu/armv8/start.o
 .rela.u_boot_list_2_cmd_2_fatinfo
                0x000000000007ea78       0x60 arch/arm/cpu/armv8/start.o
 .rela.u_boot_list_2_cmd_2_fatsize
                0x000000000007ead8       0x60 arch/arm/cpu/armv8/start.o
 .rela.u_boot_list_2_cmd_2_fatload
                0x000000000007eb38       0x60 arch/arm/cpu/armv8/start.o
 .rela.u_boot_list_2_cmd_2_fatls
                0x000000000007eb98       0x60 arch/arm/cpu/armv8/start.o
 .rela.u_boot_list_2_cmd_2_fdt
                0x000000000007ebf8       0x60 arch/arm/cpu/armv8/start.o
 .rela.u_boot_list_2_cmd_2_save
                0x000000000007ec58       0x60 arch/arm/cpu/armv8/start.o
 .rela.u_boot_list_2_cmd_2_ls
                0x000000000007ecb8       0x60 arch/arm/cpu/armv8/start.o
 .rela.u_boot_list_2_cmd_2_fstype
                0x000000000007ed18       0x60 arch/arm/cpu/armv8/start.o
 .rela.u_boot_list_2_cmd_2_size
                0x000000000007ed78       0x60 arch/arm/cpu/armv8/start.o
 .rela.u_boot_list_2_cmd_2_load
                0x000000000007edd8       0x60 arch/arm/cpu/armv8/start.o
 .rela.u_boot_list_2_cmd_2_gpio
                0x000000000007ee38       0x60 arch/arm/cpu/armv8/start.o
 .rela.data.cmd_i2c_sub
                0x000000000007ee98      0x5a0 arch/arm/cpu/armv8/start.o
 .rela.u_boot_list_2_cmd_2_i2c
                0x000000000007f438       0x60 arch/arm/cpu/armv8/start.o
 .rela.u_boot_list_2_cmd_2_itest
                0x000000000007f498       0x60 arch/arm/cpu/armv8/start.o
 .rela.u_boot_list_2_cmd_2_loadb
                0x000000000007f4f8       0x60 arch/arm/cpu/armv8/start.o
 .rela.u_boot_list_2_cmd_2_loads
                0x000000000007f558       0x60 arch/arm/cpu/armv8/start.o
 .rela.u_boot_list_2_cmd_2_loadx
                0x000000000007f5b8       0x60 arch/arm/cpu/armv8/start.o
 .rela.u_boot_list_2_cmd_2_loady
                0x000000000007f618       0x60 arch/arm/cpu/armv8/start.o
 .rela.u_boot_list_2_cmd_2_base
                0x000000000007f678       0x60 arch/arm/cpu/armv8/start.o
 .rela.u_boot_list_2_cmd_2_nm
                0x000000000007f6d8       0x60 arch/arm/cpu/armv8/start.o
 .rela.u_boot_list_2_cmd_2_loop
                0x000000000007f738       0x60 arch/arm/cpu/armv8/start.o
 .rela.u_boot_list_2_cmd_2_mtest
                0x000000000007f798       0x60 arch/arm/cpu/armv8/start.o
 .rela.u_boot_list_2_cmd_2_cmp
                0x000000000007f7f8       0x60 arch/arm/cpu/armv8/start.o
 .rela.u_boot_list_2_cmd_2_cp
                0x000000000007f858       0x60 arch/arm/cpu/armv8/start.o
 .rela.u_boot_list_2_cmd_2_ir
                0x000000000007f8b8       0x60 arch/arm/cpu/armv8/start.o
 .rela.u_boot_list_2_cmd_2_mm
                0x000000000007f918       0x60 arch/arm/cpu/armv8/start.o
 .rela.u_boot_list_2_cmd_2_crc32
                0x000000000007f978       0x60 arch/arm/cpu/armv8/start.o
 .rela.u_boot_list_2_cmd_2_md
                0x000000000007f9d8       0x60 arch/arm/cpu/armv8/start.o
 .rela.u_boot_list_2_cmd_2_mw
                0x000000000007fa38       0x60 arch/arm/cpu/armv8/start.o
 .rela.u_boot_list_2_cmd_2_mii
                0x000000000007fa98       0x60 arch/arm/cpu/armv8/start.o
 .rela.u_boot_list_2_cmd_2_mdio
                0x000000000007faf8       0x60 arch/arm/cpu/armv8/start.o
 .rela.u_boot_list_2_cmd_2_sleep
                0x000000000007fb58       0x60 arch/arm/cpu/armv8/start.o
 .rela.u_boot_list_2_cmd_2_mmcinfo
                0x000000000007fbb8       0x60 arch/arm/cpu/armv8/start.o
 .rela.data.cmd_mmc
                0x000000000007fc18      0x3c0 arch/arm/cpu/armv8/start.o
 .rela.u_boot_list_2_cmd_2_mmc
                0x000000000007ffd8       0x60 arch/arm/cpu/armv8/start.o
 .rela.u_boot_list_2_cmd_2_ping
                0x0000000000080038       0x60 arch/arm/cpu/armv8/start.o
 .rela.u_boot_list_2_cmd_2_dhcp
                0x0000000000080098       0x60 arch/arm/cpu/armv8/start.o
 .rela.u_boot_list_2_cmd_2_bootp
                0x00000000000800f8       0x60 arch/arm/cpu/armv8/start.o
 .rela.u_boot_list_2_cmd_2_tftpboot
                0x0000000000080158       0x60 arch/arm/cpu/armv8/start.o
 .rela.u_boot_list_2_cmd_2_nfs
                0x00000000000801b8       0x60 arch/arm/cpu/armv8/start.o
 .rela.u_boot_list_2_cmd_2_part
                0x0000000000080218       0x60 arch/arm/cpu/armv8/start.o
 .rela.data.regs_start
                0x0000000000080278       0x78 arch/arm/cpu/armv8/start.o
 .rela.data.regs_cardbus
                0x00000000000802f0      0x240 arch/arm/cpu/armv8/start.o
 .rela.data.regs_bridge
                0x0000000000080530      0x1e0 arch/arm/cpu/armv8/start.o
 .rela.data.regs_rest
                0x0000000000080710       0xa8 arch/arm/cpu/armv8/start.o
 .rela.u_boot_list_2_cmd_2_pci
                0x00000000000807b8       0x60 arch/arm/cpu/armv8/start.o
 .rela.data.regs_normal
                0x0000000000080818      0x138 arch/arm/cpu/armv8/start.o
 .rela.u_boot_list_2_cmd_2_sf
                0x0000000000080950       0x60 arch/arm/cpu/armv8/start.o
 .rela.u_boot_list_2_cmd_2_scsi
                0x00000000000809b0       0x60 arch/arm/cpu/armv8/start.o
 .rela.u_boot_list_2_cmd_2_scsiboot
                0x0000000000080a10       0x60 arch/arm/cpu/armv8/start.o
 .rela.u_boot_list_2_cmd_2_sspi
                0x0000000000080a70       0x60 arch/arm/cpu/armv8/start.o
 .rela.u_boot_list_2_cmd_2_time
                0x0000000000080ad0       0x60 arch/arm/cpu/armv8/start.o
 .rela.u_boot_list_2_cmd_2_test
                0x0000000000080b30       0x60 arch/arm/cpu/armv8/start.o
 .rela.u_boot_list_2_cmd_2_true
                0x0000000000080b90       0x48 arch/arm/cpu/armv8/start.o
 .rela.u_boot_list_2_cmd_2_false
                0x0000000000080bd8       0x48 arch/arm/cpu/armv8/start.o
 .rela.u_boot_list_2_cmd_2_usb
                0x0000000000080c20       0x60 arch/arm/cpu/armv8/start.o
 .rela.u_boot_list_2_cmd_2_usbboot
                0x0000000000080c80       0x60 arch/arm/cpu/armv8/start.o
 .rela.u_boot_list_2_cmd_2_imxtract
                0x0000000000080ce0       0x60 arch/arm/cpu/armv8/start.o
 .rela.u_boot_list_2_cmd_2_setenv
                0x0000000000080d40       0x78 arch/arm/cpu/armv8/start.o
 .rela.u_boot_list_2_cmd_2_env
                0x0000000000080db8       0x60 arch/arm/cpu/armv8/start.o
 .rela.u_boot_list_2_cmd_2_saveenv
                0x0000000000080e18       0x60 arch/arm/cpu/armv8/start.o
 .rela.data.cmd_env_sub
                0x0000000000080e78      0x3c0 arch/arm/cpu/armv8/start.o
 .rela.u_boot_list_2_cmd_2_printenv
                0x0000000000081238       0x78 arch/arm/cpu/armv8/start.o
 .rela.u_boot_list_2_cmd_2_editenv
                0x00000000000812b0       0x78 arch/arm/cpu/armv8/start.o
 .rela.u_boot_list_2_cmd_2_run
                0x0000000000081328       0x78 arch/arm/cpu/armv8/start.o
 .rela.data.bubt_devs
                0x00000000000813a0      0x108 arch/arm/cpu/armv8/start.o
 .rela.u_boot_list_2_cmd_2_bubt
                0x00000000000814a8       0x60 arch/arm/cpu/armv8/start.o
 .rela.rodata.init_sequence_f
                0x0000000000081508      0x390 arch/arm/cpu/armv8/start.o
 .rela.rodata.boot_os
                0x0000000000081898       0xa8 arch/arm/cpu/armv8/start.o
 .rela.rodata.usb_hub_ids
                0x0000000000081940       0x18 arch/arm/cpu/armv8/start.o
 .rela.rodata.usb_mass_storage_ids
                0x0000000000081958       0x18 arch/arm/cpu/armv8/start.o
 .rela.rodata.usb_storage_ops
                0x0000000000081970       0x30 arch/arm/cpu/armv8/start.o
 .rela.rodata.scsi_blk_ops
                0x00000000000819a0       0x30 arch/arm/cpu/armv8/start.o
 .rela.rodata.uimage_comp
                0x00000000000819d0      0x150 arch/arm/cpu/armv8/start.o
 .rela.rodata.uimage_os
                0x0000000000081b20      0x1e0 arch/arm/cpu/armv8/start.o
 .rela.rodata.table_info
                0x0000000000081d00        0x0 arch/arm/cpu/armv8/start.o
 .rela.rodata.uimage_type
                0x0000000000081d00      0x600 arch/arm/cpu/armv8/start.o
 .rela.rodata.uimage_arch
                0x0000000000082300      0x4e0 arch/arm/cpu/armv8/start.o
 .rela.rodata.CSWTCH.24
                0x00000000000827e0       0xc0 arch/arm/cpu/armv8/start.o
 .rela.data.hash_algo
                0x00000000000828a0      0x168 arch/arm/cpu/armv8/start.o
 .rela.data.reserved_list
                0x0000000000082a08      0x108 arch/arm/cpu/armv8/start.o
 .rela.u_boot_list_2_cmd_2_showvar
                0x0000000000082b10       0x60 arch/arm/cpu/armv8/start.o
 .rela.data.init_sequence_r
                0x0000000000082b70      0x2d0 arch/arm/cpu/armv8/start.o
 .rela.u_boot_list_2_env_clbk_2_callbacks
                0x0000000000082e40       0x30 arch/arm/cpu/armv8/start.o
 .rela.u_boot_list_2_env_clbk_2_flags
                0x0000000000082e70       0x30 arch/arm/cpu/armv8/start.o
 .rela.data.env_name_spec
                0x0000000000082ea0       0x18 arch/arm/cpu/armv8/start.o
 .rela.data.of_busses
                0x0000000000082eb8       0x78 arch/arm/cpu/armv8/start.o
 .rela.u_boot_list_2_usb_driver_entry_2_usb_generic_hub
                0x0000000000082f30       0x30 arch/arm/cpu/armv8/start.o
 .rela.u_boot_list_2_driver_2_usb_generic_hub
                0x0000000000082f60       0x30 arch/arm/cpu/armv8/start.o
 .rela.u_boot_list_2_uclass_2_usb_hub
                0x0000000000082f90       0x60 arch/arm/cpu/armv8/start.o
 .rela.data.usb_scan_list
                0x0000000000082ff0       0x30 arch/arm/cpu/armv8/start.o
 .rela.u_boot_list_2_driver_2_usb_storage_blk
                0x0000000000083020       0x30 arch/arm/cpu/armv8/start.o
 .rela.u_boot_list_2_driver_2_usb_mass_storage
                0x0000000000083050       0x48 arch/arm/cpu/armv8/start.o
 .rela.u_boot_list_2_uclass_2_usb_mass_storage
                0x0000000000083098       0x18 arch/arm/cpu/armv8/start.o
 .rela.u_boot_list_2_usb_driver_entry_2_usb_mass_storage
                0x00000000000830b0       0x30 arch/arm/cpu/armv8/start.o
 .rela.u_boot_list_2_driver_2_scsi_blk
                0x00000000000830e0       0x30 arch/arm/cpu/armv8/start.o
 .rela.data.env_htab
                0x0000000000083110       0x18 arch/arm/cpu/armv8/start.o
 .rela.u_boot_list_2_env_clbk_2_console
                0x0000000000083128       0x30 arch/arm/cpu/armv8/start.o
 .rela.data.av_
                0x0000000000083158     0x1800 arch/arm/cpu/armv8/start.o
 .rela.u_boot_list_2_env_clbk_2_loadaddr
                0x0000000000084958       0x30 arch/arm/cpu/armv8/start.o
 .rela.data.stdio_names
                0x0000000000084988       0x48 arch/arm/cpu/armv8/start.o
 .rela.rodata.CSWTCH.42
                0x00000000000849d0       0xc0 arch/arm/cpu/armv8/start.o
 .rela.u_boot_list_2_part_driver_2_mac
                0x0000000000084a90       0x60 arch/arm/cpu/armv8/start.o
 .rela.u_boot_list_2_part_driver_2_dos
                0x0000000000084af0       0x60 arch/arm/cpu/armv8/start.o
 .rela.u_boot_list_2_part_driver_2_iso
                0x0000000000084b50       0x60 arch/arm/cpu/armv8/start.o
 .rela.u_boot_list_2_part_driver_2_a_efi
                0x0000000000084bb0       0x60 arch/arm/cpu/armv8/start.o
 .rela.rodata   0x0000000000084c10      0x378 arch/arm/cpu/armv8/start.o
 .rela.rodata.root_info
                0x0000000000084f88       0x18 arch/arm/cpu/armv8/start.o
 .rela.rodata.generic_simple_bus_ids
                0x0000000000084fa0       0x30 arch/arm/cpu/armv8/start.o
 .rela.rodata.armada_37xx_pin_nb
                0x0000000000084fd0       0x30 arch/arm/cpu/armv8/start.o
 .rela.rodata.armada_37xx_gpio_ops
                0x0000000000085000       0x78 arch/arm/cpu/armv8/start.o
 .rela.rodata.armada_37xx_pinctrl_of_match
                0x0000000000085078       0x60 arch/arm/cpu/armv8/start.o
 .rela.rodata.armada_37xx_pinctrl_ops
                0x00000000000850d8       0x90 arch/arm/cpu/armv8/start.o
 .rela.rodata.armada_37xx_pin_sb
                0x0000000000085168       0x30 arch/arm/cpu/armv8/start.o
 .rela.rodata.if_typename_str
                0x0000000000085198       0xf0 arch/arm/cpu/armv8/start.o
 .rela.rodata.mvebu_scsi_ids
                0x0000000000085288       0x18 arch/arm/cpu/armv8/start.o
 .rela.rodata.comphy_ids
                0x00000000000852a0       0x18 arch/arm/cpu/armv8/start.o
 .rela.rodata.kbd_to_ansi364
                0x00000000000852b8        0x0 arch/arm/cpu/armv8/start.o
 .rela.u_boot_list_2_driver_2_root_driver
                0x00000000000852b8       0x18 arch/arm/cpu/armv8/start.o
 .rela.u_boot_list_2_uclass_2_root
                0x00000000000852d0       0x18 arch/arm/cpu/armv8/start.o
 .rela.u_boot_list_2_uclass_2_simple_bus
                0x00000000000852e8       0x30 arch/arm/cpu/armv8/start.o
 .rela.u_boot_list_2_driver_2_simple_bus_drv
                0x0000000000085318       0x30 arch/arm/cpu/armv8/start.o
 .rela.u_boot_list_2_uclass_2_pinconfig
                0x0000000000085348       0x30 arch/arm/cpu/armv8/start.o
 .rela.u_boot_list_2_driver_2_pinconfig_generic
                0x0000000000085378       0x18 arch/arm/cpu/armv8/start.o
 .rela.u_boot_list_2_uclass_2_pinctrl
                0x0000000000085390       0x30 arch/arm/cpu/armv8/start.o
 .rela.data.armada_37xx_gpio_driver
                0x00000000000853c0       0x48 arch/arm/cpu/armv8/start.o
 .rela.u_boot_list_2_driver_2_armada_37xx_pinctrl
                0x0000000000085408       0x60 arch/arm/cpu/armv8/start.o
 .rela.data.armada_37xx_nb_groups
                0x0000000000085468      0x630 arch/arm/cpu/armv8/start.o
 .rela.data.armada_37xx_sb_groups
                0x0000000000085a98      0x288 arch/arm/cpu/armv8/start.o
 .rela.u_boot_list_2_uclass_2_blk
                0x0000000000085d20       0x18 arch/arm/cpu/armv8/start.o
 .rela.u_boot_list_2_uclass_2_ahci
                0x0000000000085d38       0x18 arch/arm/cpu/armv8/start.o
 .rela.u_boot_list_2_uclass_2_scsi
                0x0000000000085d50       0x48 arch/arm/cpu/armv8/start.o
 .rela.u_boot_list_2_driver_2_scsi_mvebu_drv
                0x0000000000085d98       0x48 arch/arm/cpu/armv8/start.o
 .rela.data.block_cache
                0x0000000000085de0       0x30 arch/arm/cpu/armv8/start.o
 .rela.u_boot_list_2_uclass_2_misc
                0x0000000000085e10       0x18 arch/arm/cpu/armv8/start.o
 .rela.u_boot_list_2_driver_2_mvebu_comphy
                0x0000000000085e28       0x48 arch/arm/cpu/armv8/start.o
 .rela.data.kbd_entry
                0x0000000000085e70        0x0 arch/arm/cpu/armv8/start.o
 .rela.rodata.gpio_function
                0x0000000000085e70       0x78 arch/arm/cpu/armv8/start.o
 .rela.rodata.mvebu_gpio_ops
                0x0000000000085ee8       0x78 arch/arm/cpu/armv8/start.o
 .rela.rodata.mvebu_gpio_ids
                0x0000000000085f60       0x18 arch/arm/cpu/armv8/start.o
 .rela.u_boot_list_2_uclass_2_gpio
                0x0000000000085f78       0x48 arch/arm/cpu/armv8/start.o
 .rela.u_boot_list_2_driver_2_gpio_mvebu
                0x0000000000085fc0       0x60 arch/arm/cpu/armv8/start.o
 .rela.rodata.mv_i2c_ids
                0x0000000000086020       0x18 arch/arm/cpu/armv8/start.o
 .rela.rodata.mv_i2c_ops
                0x0000000000086038       0x30 arch/arm/cpu/armv8/start.o
 .rela.u_boot_list_2_driver_2_i2c_generic_chip_drv
                0x0000000000086068       0x18 arch/arm/cpu/armv8/start.o
 .rela.u_boot_list_2_uclass_2_i2c
                0x0000000000086080       0x60 arch/arm/cpu/armv8/start.o
 .rela.u_boot_list_2_uclass_2_i2c_generic
                0x00000000000860e0       0x18 arch/arm/cpu/armv8/start.o
 .rela.u_boot_list_2_driver_2_i2c_mv
                0x00000000000860f8       0x60 arch/arm/cpu/armv8/start.o
 .rela.rodata.mmc_blk_ops
                0x0000000000086158       0x60 arch/arm/cpu/armv8/start.o
 .rela.rodata.sdhci_ops
                0x00000000000861b8       0x30 arch/arm/cpu/armv8/start.o
 .rela.rodata.xenon_sdhci_ops
                0x00000000000861e8       0x18 arch/arm/cpu/armv8/start.o
 .rela.rodata.xenon_sdhci_ids
                0x0000000000086200       0x30 arch/arm/cpu/armv8/start.o
 .rela.u_boot_list_2_driver_2_mmc
                0x0000000000086230       0x18 arch/arm/cpu/armv8/start.o
 .rela.u_boot_list_2_uclass_2_mmc
                0x0000000000086248       0x18 arch/arm/cpu/armv8/start.o
 .rela.u_boot_list_2_driver_2_mmc_blk
                0x0000000000086260       0x48 arch/arm/cpu/armv8/start.o
 .rela.u_boot_list_2_driver_2_xenon_sdhci_drv
                0x00000000000862a8       0x90 arch/arm/cpu/armv8/start.o
 .rela.rodata.spi_flash_std_ops
                0x0000000000086338       0x48 arch/arm/cpu/armv8/start.o
 .rela.rodata.spi_flash_std_ids
                0x0000000000086380       0x18 arch/arm/cpu/armv8/start.o
 .rela.rodata.spi_flash_ids
                0x0000000000086398      0x708 arch/arm/cpu/armv8/start.o
 .rela.u_boot_list_2_uclass_2_spi_flash
                0x0000000000086aa0       0x30 arch/arm/cpu/armv8/start.o
 .rela.u_boot_list_2_driver_2_spi_flash_std
                0x0000000000086ad0       0x60 arch/arm/cpu/armv8/start.o
 .rela.rodata.e1000_eth_ids
                0x0000000000086b30       0x18 arch/arm/cpu/armv8/start.o
 .rela.rodata.e1000_eth_ops
                0x0000000000086b48       0x78 arch/arm/cpu/armv8/start.o
 .rela.rodata.mvneta_ops
                0x0000000000086bc0       0x60 arch/arm/cpu/armv8/start.o
 .rela.rodata.mvneta_ids
                0x0000000000086c20       0x48 arch/arm/cpu/armv8/start.o
 .rela.u_boot_list_2_pci_driver_entry_2_eth_e1000
                0x0000000000086c68       0x30 arch/arm/cpu/armv8/start.o
 .rela.u_boot_list_2_driver_2_eth_e1000
                0x0000000000086c98       0x78 arch/arm/cpu/armv8/start.o
 .rela.u_boot_list_2_driver_2_mvneta
                0x0000000000086d10       0x78 arch/arm/cpu/armv8/start.o
 .rela.rodata.phy_interface_strings
                0x0000000000086d88      0x1b0 arch/arm/cpu/armv8/start.o
 .rela.u_boot_list_2_cmd_2_switch
                0x0000000000086f38       0x60 arch/arm/cpu/armv8/start.o
 .rela.data.genphy_driver
                0x0000000000086f98       0x60 arch/arm/cpu/armv8/start.o
 .rela.data.phy_drivers
                0x0000000000086ff8       0x30 arch/arm/cpu/armv8/start.o
 .rela.data.M88E1111S_driver
                0x0000000000087028       0x60 arch/arm/cpu/armv8/start.o
 .rela.data.M88E1680_driver
                0x0000000000087088       0x60 arch/arm/cpu/armv8/start.o
 .rela.data.M88E1310_driver
                0x00000000000870e8       0x60 arch/arm/cpu/armv8/start.o
 .rela.data.M88E1011S_driver
                0x0000000000087148       0x60 arch/arm/cpu/armv8/start.o
 .rela.data.M88E1118_driver
                0x00000000000871a8       0x60 arch/arm/cpu/armv8/start.o
 .rela.data.M88E1518_driver
                0x0000000000087208       0x60 arch/arm/cpu/armv8/start.o
 .rela.data.M88E1145_driver
                0x0000000000087268       0x60 arch/arm/cpu/armv8/start.o
 .rela.data.M88E2110_driver
                0x00000000000872c8       0x78 arch/arm/cpu/armv8/start.o
 .rela.data.M88E1149S_driver
                0x0000000000087340       0x60 arch/arm/cpu/armv8/start.o
 .rela.data.M88E1121R_driver
                0x00000000000873a0       0x60 arch/arm/cpu/armv8/start.o
 .rela.data.M88E1118R_driver
                0x0000000000087400       0x60 arch/arm/cpu/armv8/start.o
 .rela.data.M88E1510_driver
                0x0000000000087460       0x60 arch/arm/cpu/armv8/start.o
 .rela.rodata.pci_bridge_ops
                0x00000000000874c0       0x30 arch/arm/cpu/armv8/start.o
 .rela.rodata.pci_generic_ids
                0x00000000000874f0       0x18 arch/arm/cpu/armv8/start.o
 .rela.rodata.pci_bridge_ids
                0x0000000000087508       0x18 arch/arm/cpu/armv8/start.o
 .rela.rodata.pcie_advk_ops
                0x0000000000087520       0x30 arch/arm/cpu/armv8/start.o
 .rela.rodata.pcie_advk_ids
                0x0000000000087550       0x18 arch/arm/cpu/armv8/start.o
 .rela.rodata.CSWTCH.13
                0x0000000000087568       0x60 arch/arm/cpu/armv8/start.o
 .rela.u_boot_list_2_uclass_2_pci
                0x00000000000875c8       0x78 arch/arm/cpu/armv8/start.o
 .rela.u_boot_list_2_uclass_2_pci_generic
                0x0000000000087640       0x18 arch/arm/cpu/armv8/start.o
 .rela.u_boot_list_2_driver_2_pci_bridge_drv
                0x0000000000087658       0x48 arch/arm/cpu/armv8/start.o
 .rela.u_boot_list_2_driver_2_pci_generic_drv
                0x00000000000876a0       0x30 arch/arm/cpu/armv8/start.o
 .rela.u_boot_list_2_driver_2_pcie_advk
                0x00000000000876d0       0x78 arch/arm/cpu/armv8/start.o
 .rela.rodata.fixed_regulator_ops
                0x0000000000087748       0x60 arch/arm/cpu/armv8/start.o
 .rela.rodata.fixed_regulator_ids
                0x00000000000877a8       0x18 arch/arm/cpu/armv8/start.o
 .rela.rodata.gpio_regulator_ops
                0x00000000000877c0       0x30 arch/arm/cpu/armv8/start.o
 .rela.rodata.gpio_regulator_ids
                0x00000000000877f0       0x18 arch/arm/cpu/armv8/start.o
 .rela.u_boot_list_2_uclass_2_regulator
                0x0000000000087808       0x48 arch/arm/cpu/armv8/start.o
 .rela.u_boot_list_2_driver_2_fixed_regulator
                0x0000000000087850       0x60 arch/arm/cpu/armv8/start.o
 .rela.u_boot_list_2_driver_2_gpio_regulator
                0x00000000000878b0       0x60 arch/arm/cpu/armv8/start.o
 .rela.rodata.mvebu_serial_ids
                0x0000000000087910       0x30 arch/arm/cpu/armv8/start.o
 .rela.rodata.mvebu_serial_ops
                0x0000000000087940       0x60 arch/arm/cpu/armv8/start.o
 .rela.u_boot_list_2_env_clbk_2_baudrate
                0x00000000000879a0       0x30 arch/arm/cpu/armv8/start.o
 .rela.u_boot_list_2_uclass_2_serial
                0x00000000000879d0       0x48 arch/arm/cpu/armv8/start.o
 .rela.u_boot_list_2_driver_2_serial_mvebu
                0x0000000000087a18       0x78 arch/arm/cpu/armv8/start.o
 .rela.rodata.mvebu_spi_ops
                0x0000000000087a90       0x48 arch/arm/cpu/armv8/start.o
 .rela.rodata.mvebu_spi_ids
                0x0000000000087ad8       0x18 arch/arm/cpu/armv8/start.o
 .rela.u_boot_list_2_uclass_2_spi_generic
                0x0000000000087af0       0x18 arch/arm/cpu/armv8/start.o
 .rela.u_boot_list_2_driver_2_spi_generic_drv
                0x0000000000087b08       0x18 arch/arm/cpu/armv8/start.o
 .rela.u_boot_list_2_uclass_2_spi
                0x0000000000087b20       0x78 arch/arm/cpu/armv8/start.o
 .rela.u_boot_list_2_driver_2_mvebu_spi
                0x0000000000087b98       0x78 arch/arm/cpu/armv8/start.o
 .rela.rodata.usb_dr_modes
                0x0000000000087c10        0x0 arch/arm/cpu/armv8/start.o
 .rela.rodata.asix_eth_ops
                0x0000000000087c10       0x90 arch/arm/cpu/armv8/start.o
 .rela.rodata.mcs7830_eth_ops
                0x0000000000087ca0       0x90 arch/arm/cpu/armv8/start.o
 .rela.rodata.smsc95xx_eth_ops
                0x0000000000087d30       0xa8 arch/arm/cpu/armv8/start.o
 .rela.rodata.r8152_eth_ops
                0x0000000000087dd8       0xa8 arch/arm/cpu/armv8/start.o
 .rela.u_boot_list_2_usb_driver_entry_2_asix_eth
                0x0000000000087e80       0x30 arch/arm/cpu/armv8/start.o
 .rela.u_boot_list_2_driver_2_asix_eth
                0x0000000000087eb0       0x48 arch/arm/cpu/armv8/start.o
 .rela.u_boot_list_2_driver_2_mcs7830_eth
                0x0000000000087ef8       0x48 arch/arm/cpu/armv8/start.o
 .rela.u_boot_list_2_usb_driver_entry_2_mcs7830_eth
                0x0000000000087f40       0x30 arch/arm/cpu/armv8/start.o
 .rela.u_boot_list_2_driver_2_smsc95xx_eth
                0x0000000000087f70       0x48 arch/arm/cpu/armv8/start.o
 .rela.u_boot_list_2_usb_driver_entry_2_smsc95xx_eth
                0x0000000000087fb8       0x30 arch/arm/cpu/armv8/start.o
 .rela.u_boot_list_2_usb_driver_entry_2_r8152_eth
                0x0000000000087fe8       0x30 arch/arm/cpu/armv8/start.o
 .rela.u_boot_list_2_driver_2_r8152_eth
                0x0000000000088018       0x48 arch/arm/cpu/armv8/start.o
 .rela.rodata.default_ehci_ops
                0x0000000000088060        0x0 arch/arm/cpu/armv8/start.o
 .rela.rodata.ehci_usb_ids
                0x0000000000088060       0x30 arch/arm/cpu/armv8/start.o
 .rela.rodata.xhci_usb_ids
                0x0000000000088090       0x30 arch/arm/cpu/armv8/start.o
 .rela.u_boot_list_2_uclass_2_usb_dev_generic
                0x00000000000880c0       0x18 arch/arm/cpu/armv8/start.o
 .rela.u_boot_list_2_driver_2_usb_dev_generic_drv
                0x00000000000880d8       0x18 arch/arm/cpu/armv8/start.o
 .rela.u_boot_list_2_uclass_2_usb
                0x00000000000880f0       0x60 arch/arm/cpu/armv8/start.o
 .rela.data.ehci_usb_ops
                0x0000000000088150       0x90 arch/arm/cpu/armv8/start.o
 .rela.u_boot_list_2_driver_2_ehci_mvebu
                0x00000000000881e0       0x78 arch/arm/cpu/armv8/start.o
 .rela.data.xhci_usb_ops
                0x0000000000088258       0x60 arch/arm/cpu/armv8/start.o
 .rela.u_boot_list_2_driver_2_usb_xhci
                0x00000000000882b8       0x90 arch/arm/cpu/armv8/start.o
 .rela.rodata.filesystems
                0x0000000000088348        0x0 arch/arm/cpu/armv8/start.o
 .rela.data.fstypes
                0x0000000000088348      0x288 arch/arm/cpu/armv8/start.o
 .rela.rodata.efi_boot_services
                0x00000000000885d0      0x3f0 arch/arm/cpu/armv8/start.o
 .rela.rodata.efi_runtime_detach_list
                0x00000000000889c0       0xf0 arch/arm/cpu/armv8/start.o
 .rela.rodata.efi_con_out
                0x0000000000088ab0       0xf0 arch/arm/cpu/armv8/start.o
 .rela.rodata.efi_console_control
                0x0000000000088ba0       0x48 arch/arm/cpu/armv8/start.o
 .rela.rodata.efi_con_in
                0x0000000000088be8       0x30 arch/arm/cpu/armv8/start.o
 .rela.rodata.z_errmsg
                0x0000000000088c18        0x0 arch/arm/cpu/armv8/start.o
 .rela.rodata.smbios_write_funcs
                0x0000000000088c18       0xa8 arch/arm/cpu/armv8/start.o
 .rela.rodata.fdt_errtable
                0x0000000000088cc0      0x150 arch/arm/cpu/armv8/start.o
 .rela.rodata.compat_names
                0x0000000000088e10        0x0 arch/arm/cpu/armv8/start.o
 .rela.data.loaded_image_info_obj.6611
                0x0000000000088e10       0x30 arch/arm/cpu/armv8/start.o
 .rela.data.efi_obj_list
                0x0000000000088e40       0x30 arch/arm/cpu/armv8/start.o
 .rela.data.efi_runtime_mmio
                0x0000000000088e70       0x30 arch/arm/cpu/armv8/start.o
 .rela.data.efi_mem
                0x0000000000088ea0       0x30 arch/arm/cpu/armv8/start.o
 .rela.data.current
                0x0000000000088ed0        0x0 arch/arm/cpu/armv8/start.o
 .rela.u_boot_list_2_uclass_2_eth
                0x0000000000088ed0       0x78 arch/arm/cpu/armv8/start.o
 .rela.u_boot_list_2_env_clbk_2_ethaddr
                0x0000000000088f48       0x30 arch/arm/cpu/armv8/start.o
 .rela.u_boot_list_2_env_clbk_2_ipaddr
                0x0000000000088f78       0x30 arch/arm/cpu/armv8/start.o
 .rela.u_boot_list_2_env_clbk_2_vlan
                0x0000000000088fa8       0x30 arch/arm/cpu/armv8/start.o
 .rela.u_boot_list_2_env_clbk_2_serverip
                0x0000000000088fd8       0x30 arch/arm/cpu/armv8/start.o
 .rela.u_boot_list_2_env_clbk_2_bootfile
                0x0000000000089008       0x30 arch/arm/cpu/armv8/start.o
 .rela.u_boot_list_2_env_clbk_2_netmask
                0x0000000000089038       0x30 arch/arm/cpu/armv8/start.o
 .rela.u_boot_list_2_env_clbk_2_nvlan
                0x0000000000089068       0x30 arch/arm/cpu/armv8/start.o
 .rela.u_boot_list_2_env_clbk_2_gatewayip
                0x0000000000089098       0x30 arch/arm/cpu/armv8/start.o
 .rela.u_boot_list_2_cmd_2_dm
                0x00000000000890c8       0x60 arch/arm/cpu/armv8/start.o
 .rela.data.test_commands
                0x0000000000089128      0x120 arch/arm/cpu/armv8/start.o

.rel_dyn_end    0x0000000000089248        0x0
 *(.__rel_dyn_end)
 .__rel_dyn_end
                0x0000000000089248        0x0 arch/arm/lib/built-in.o
                0x0000000000089248                _end = .
                0x0000000000089248                . = ALIGN (0x8)

.bss_start      0x0000000000089248        0x0
 *(.__bss_start)
 .__bss_start   0x0000000000089248        0x0 arch/arm/lib/built-in.o
                0x0000000000089248                __bss_start

.bss            0x0000000000089280    0x3cf58
 *(.bss*)
 .bss.params    0x0000000000089280        0x8 arch/arm/lib/built-in.o
 .bss.working_fdt
                0x0000000000089288        0x8 cmd/built-in.o
                0x0000000000089288                working_fdt
 .bss.data.6878
                0x0000000000089290      0x400 cmd/built-in.o
 .bss.i2c_mm_last_addr
                0x0000000000089690        0x4 cmd/built-in.o
 .bss.i2c_mm_last_chip
                0x0000000000089694        0x4 cmd/built-in.o
 .bss.i2c_dp_last_chip
                0x0000000000089698        0x4 cmd/built-in.o
 .bss.i2c_mm_last_alen
                0x000000000008969c        0x4 cmd/built-in.o
 .bss.i2c_dp_last_addr
                0x00000000000896a0        0x4 cmd/built-in.o
 *fill*         0x00000000000896a4        0x4 
 .bss.i2c_cur_bus
                0x00000000000896a8        0x8 cmd/built-in.o
 .bss.i2c_dp_last_alen
                0x00000000000896b0        0x4 cmd/built-in.o
 *fill*         0x00000000000896b4        0x4 
 .bss.send_parms
                0x00000000000896b8       0x18 cmd/built-in.o
 .bss.os_data_addr_saved
                0x00000000000896d0        0x8 cmd/built-in.o
 .bss.his_pad_char
                0x00000000000896d8        0x1 cmd/built-in.o
 *fill*         0x00000000000896d9        0x7 
 .bss.a_b       0x00000000000896e0       0x18 cmd/built-in.o
 .bss.os_data_char
                0x00000000000896f8        0x8 cmd/built-in.o
 .bss.os_data_state
                0x0000000000089700        0x4 cmd/built-in.o
 .bss.k_data_escape
                0x0000000000089704        0x4 cmd/built-in.o
 .bss.os_data_state_saved
                0x0000000000089708        0x4 cmd/built-in.o
 *fill*         0x000000000008970c        0x4 
 .bss.os_data_addr
                0x0000000000089710        0x8 cmd/built-in.o
 .bss.send_ptr  0x0000000000089718        0x8 cmd/built-in.o
 .bss.his_pad_count
                0x0000000000089720        0x4 cmd/built-in.o
 *fill*         0x0000000000089724        0x4 
 .bss.bin_start_address
                0x0000000000089728        0x8 cmd/built-in.o
 .bss.his_quote
                0x0000000000089730        0x1 cmd/built-in.o
 *fill*         0x0000000000089731        0x7 
 .bss.os_data_init
                0x0000000000089738        0x8 cmd/built-in.o
 .bss.his_eol   0x0000000000089740        0x1 cmd/built-in.o
 *fill*         0x0000000000089741        0x3 
 .bss.k_data_escape_saved
                0x0000000000089744        0x4 cmd/built-in.o
 .bss.dp_last_addr
                0x0000000000089748        0x8 cmd/built-in.o
 .bss.base_address
                0x0000000000089750        0x8 cmd/built-in.o
 .bss.mm_last_size
                0x0000000000089758        0x8 cmd/built-in.o
 .bss.mm_last_addr
                0x0000000000089760        0x8 cmd/built-in.o
 .bss.dp_last_size
                0x0000000000089768        0x8 cmd/built-in.o
 .bss.last_data
                0x0000000000089770        0x8 cmd/built-in.o
 .bss.last_reg_hi
                0x0000000000089778        0x8 cmd/built-in.o
 .bss.last_mask
                0x0000000000089780        0x4 cmd/built-in.o
 .bss.last_addr_lo
                0x0000000000089784        0x8 cmd/built-in.o
 *fill*         0x000000000008978c        0x4 
 .bss.last_op   0x0000000000089790       0x10 cmd/built-in.o
 .bss.last_addr_hi
                0x00000000000897a0        0x8 cmd/built-in.o
 .bss.last_reg_lo
                0x00000000000897a8        0x8 cmd/built-in.o
 .bss.last_devad_hi
                0x00000000000897b0        0x4 cmd/built-in.o
 .bss.last_devad_lo
                0x00000000000897b4        0x4 cmd/built-in.o
 .bss.flash     0x00000000000897b8        0x8 cmd/built-in.o
 .bss.scsi_curr_dev
                0x00000000000897c0        0x4 cmd/built-in.o
 .bss.bus       0x00000000000897c4        0x4 cmd/built-in.o
 .bss.cs        0x00000000000897c8        0x4 cmd/built-in.o
 .bss.bitlen    0x00000000000897cc        0x4 cmd/built-in.o
 .bss.dout      0x00000000000897d0       0x20 cmd/built-in.o
 .bss.din       0x00000000000897f0       0x20 cmd/built-in.o
 .bss.mode      0x0000000000089810        0x4 cmd/built-in.o
 .bss.flag_repeat
                0x0000000000089814        0x4 common/built-in.o
 .bss.buf.6160  0x0000000000089818       0x28 common/built-in.o
 .bss.ifs       0x0000000000089840        0x8 common/built-in.o
 .bss.last_return_code
                0x0000000000089848        0x4 common/built-in.o
 *fill*         0x000000000008984c        0x4 
 .bss.map       0x0000000000089850      0x100 common/built-in.o
 .bss.do_repeat
                0x0000000000089950        0x4 common/built-in.o
 *fill*         0x0000000000089954        0x4 
 .bss.the_command.5960
                0x0000000000089958      0x408 common/built-in.o
 .bss.top_vars  0x0000000000089d60        0x8 common/built-in.o
 .bss.stored_bootdelay
                0x0000000000089d68        0x4 common/built-in.o
 *fill*         0x0000000000089d6c        0x4 
 .bss.monitor_flash_len
                0x0000000000089d70        0x8 common/built-in.o
                0x0000000000089d70                monitor_flash_len
 .bss.images    0x0000000000089d78      0x218 common/built-in.o
                0x0000000000089d78                images
 .bss.callback_list
                0x0000000000089f90        0x8 common/built-in.o
 .bss.flags_list
                0x0000000000089f98        0x8 common/built-in.o
 .bss.env_flash
                0x0000000000089fa0        0x8 common/built-in.o
 .bss.current_mii
                0x0000000000089fa8        0x8 common/built-in.o
 .bss.mii_devs  0x0000000000089fb0       0x10 common/built-in.o
 .bss.usb_started
                0x0000000000089fc0        0x1 common/built-in.o
                0x0000000000089fc0                usb_started
 *fill*         0x0000000000089fc1        0x3 
 .bss.usb_hub_index
                0x0000000000089fc4        0x4 common/built-in.o
 .bss.running.8330
                0x0000000000089fc8        0x4 common/built-in.o
 *fill*         0x0000000000089fcc        0x4 
 .bss.hub_dev   0x0000000000089fd0      0x480 common/built-in.o
 .bss.usb_max_devs
                0x000000000008a450        0x4 common/built-in.o
 .bss.CBWTag    0x000000000008a454        0x4 common/built-in.o
 *fill*         0x000000000008a458       0x28 
 .bss.usb_ccb   0x000000000008a480      0x100 common/built-in.o
 .bss.curr_ctrl_base
                0x000000000008a580        0x8 common/built-in.o
                0x000000000008a580                curr_ctrl_base
 .bss.tempbuff  0x000000000008a588      0x200 common/built-in.o
 .bss.dev_ctrl  0x000000000008a788       0x10 common/built-in.o
 *fill*         0x000000000008a798       0x28 
 .bss.tempccb   0x000000000008a7c0      0x100 common/built-in.o
 .bss.ctrlc_was_pressed
                0x000000000008a8c0        0x4 common/built-in.o
 .bss.ctrlc_disabled
                0x000000000008a8c4        0x4 common/built-in.o
 .bss.max_total_mem
                0x000000000008a8c8        0x8 common/built-in.o
 .bss.mem_malloc_brk
                0x000000000008a8d0        0x8 common/built-in.o
                0x000000000008a8d0                mem_malloc_brk
 .bss.max_sbrked_mem
                0x000000000008a8d8        0x8 common/built-in.o
 .bss.current_mallinfo
                0x000000000008a8e0       0x28 common/built-in.o
 .bss.mem_malloc_end
                0x000000000008a908        0x8 common/built-in.o
                0x000000000008a908                mem_malloc_end
 .bss.top_pad   0x000000000008a910        0x8 common/built-in.o
 .bss.mem_malloc_start
                0x000000000008a918        0x8 common/built-in.o
                0x000000000008a918                mem_malloc_start
 .bss.stdio_devices
                0x000000000008a920       0x18 common/built-in.o
                0x000000000008a920                stdio_devices
 .bss.devs      0x000000000008a938       0x70 common/built-in.o
 .bss.hist_list
                0x000000000008a9a8       0xa0 common/built-in.o
 .bss.hist_lines
                0x000000000008aa48     0x5018 common/built-in.o
 .bss.hist_max  0x000000000008fa60        0x4 common/built-in.o
 .bss.hist_add_idx
                0x000000000008fa64        0x4 common/built-in.o
 .bss.hist_num  0x000000000008fa68        0x4 common/built-in.o
 *fill*         0x000000000008fa6c        0x4 
 .bss.console_buffer
                0x000000000008fa70      0x408 common/built-in.o
                0x000000000008fa70                console_buffer
 .bss.initted.5828
                0x000000000008fe78        0x4 common/built-in.o
 *fill*         0x000000000008fe7c        0x4 
 .bss.tmp_buf   0x000000000008fe80      0x400 common/built-in.o
 .bss.tmp_buf.5719
                0x0000000000090280      0x200 common/built-in.o
 .bss.xyz       0x0000000000090480      0x448 common/built-in.o
 .bss.tmpbuf    0x00000000000908c8      0x800 disk/built-in.o
 .bss.name.5802
                0x00000000000910c8       0x28 disk/built-in.o
 .bss.ataid     0x00000000000910f0      0x100 drivers/built-in.o
                0x00000000000910f0                ataid
 .bss.probe_ent
                0x00000000000911f0        0x8 drivers/built-in.o
                0x00000000000911f0                probe_ent
 .bss.current_idx.7593
                0x00000000000911f8        0x4 drivers/built-in.o
 .bss.initialized.8101
                0x00000000000911fc        0x4 drivers/mmc/built-in.o
 .bss.aligned_buffer
                0x0000000000091200        0x8 drivers/mmc/built-in.o
                0x0000000000091200                aligned_buffer
 .bss.rx_last   0x0000000000091208        0x4 drivers/net/built-in.o
 .bss.rx_tail   0x000000000009120c        0x4 drivers/net/built-in.o
 *fill*         0x0000000000091210       0x70 
 .bss.__tx_base
                0x0000000000091280      0x100 drivers/net/built-in.o
 .bss.__rx_base
                0x0000000000091380      0x100 drivers/net/built-in.o
 .bss.__packet  0x0000000000091480     0x1000 drivers/net/built-in.o
 .bss.num_cards
                0x0000000000092480        0x4 drivers/net/built-in.o
 .bss.tx_tail   0x0000000000092484        0x4 drivers/net/built-in.o
 .bss.buffer_loc
                0x0000000000092488       0x18 drivers/net/built-in.o
 .bss.soho_dev_handle
                0x00000000000924a0        0x8 drivers/net/phy/built-in.o
 .bss.soho_dev  0x00000000000924a8       0x18 drivers/net/phy/built-in.o
 .bss.asynch_allowed
                0x00000000000924c0        0x1 drivers/usb/host/built-in.o
 *fill*         0x00000000000924c1        0x7 
 .bss.marvell_ehci_ops
                0x00000000000924c8       0x28 drivers/usb/host/built-in.o
 .bss.fs_partition
                0x00000000000924f0       0x88 fs/built-in.o
 .bss.fs_type   0x0000000000092578        0x4 fs/built-in.o
 *fill*         0x000000000009257c        0x4 
 .bss.fs_dev_desc
                0x0000000000092580        0x8 fs/built-in.o
 .bss.ext_fs    0x0000000000092588       0x68 fs/built-in.o
                0x0000000000092588                ext_fs
 .bss.ext4fs_indir3_block
                0x00000000000925f0        0x8 fs/built-in.o
                0x00000000000925f0                ext4fs_indir3_block
 .bss.ext4fs_root
                0x00000000000925f8        0x8 fs/built-in.o
                0x00000000000925f8                ext4fs_root
 .bss.ext4fs_indir3_size
                0x0000000000092600        0x4 fs/built-in.o
                0x0000000000092600                ext4fs_indir3_size
 *fill*         0x0000000000092604        0x4 
 .bss.ext4fs_indir1_block
                0x0000000000092608        0x8 fs/built-in.o
                0x0000000000092608                ext4fs_indir1_block
 .bss.ext4fs_indir2_size
                0x0000000000092610        0x4 fs/built-in.o
                0x0000000000092610                ext4fs_indir2_size
 *fill*         0x0000000000092614        0x4 
 .bss.ext4fs_indir2_block
                0x0000000000092618        0x8 fs/built-in.o
                0x0000000000092618                ext4fs_indir2_block
 .bss.ext4fs_indir1_size
                0x0000000000092620        0x4 fs/built-in.o
                0x0000000000092620                ext4fs_indir1_size
 .bss.symlinknest
                0x0000000000092624        0x4 fs/built-in.o
 .bss.ext4fs_file
                0x0000000000092628        0x8 fs/built-in.o
                0x0000000000092628                ext4fs_file
 .bss.g_parent_inode
                0x0000000000092630        0x8 fs/built-in.o
                0x0000000000092630                g_parent_inode
 .bss.part_info
                0x0000000000092638        0x8 fs/built-in.o
 .bss.part_offset
                0x0000000000092640        0x8 fs/built-in.o
                0x0000000000092640                part_offset
 .bss.ext4fs_blk_desc
                0x0000000000092648        0x8 fs/built-in.o
 .bss.journal_ptr
                0x0000000000092650      0x320 fs/built-in.o
                0x0000000000092650                journal_ptr
 .bss.revk_blk_list
                0x0000000000092970        0x8 fs/built-in.o
 .bss.gindex    0x0000000000092978        0x4 fs/built-in.o
                0x0000000000092978                gindex
 .bss.gd_index  0x000000000009297c        0x4 fs/built-in.o
                0x000000000009297c                gd_index
 .bss.dirty_block_ptr
                0x0000000000092980      0x320 fs/built-in.o
                0x0000000000092980                dirty_block_ptr
 .bss.prev_node
                0x0000000000092ca0        0x8 fs/built-in.o
 .bss.jrnl_blk_idx
                0x0000000000092ca8        0x4 fs/built-in.o
                0x0000000000092ca8                jrnl_blk_idx
 *fill*         0x0000000000092cac       0x14 
 .bss.do_fat_read_at_block
                0x0000000000092cc0    0x10000 fs/built-in.o
                0x0000000000092cc0                do_fat_read_at_block
 .bss.get_dentfromdir_block
                0x00000000000a2cc0    0x10000 fs/built-in.o
                0x00000000000a2cc0                get_dentfromdir_block
 .bss.cur_part_info
                0x00000000000b2cc0       0x88 fs/built-in.o
 *fill*         0x00000000000b2d48       0x38 
 .bss.get_contents_vfatname_block
                0x00000000000b2d80    0x10000 fs/built-in.o
                0x00000000000b2d80                get_contents_vfatname_block
 .bss.cur_dev   0x00000000000c2d80        0x8 fs/built-in.o
 .bss.app_gd    0x00000000000c2d88        0x8 lib/built-in.o
 .bss.efi_gd    0x00000000000c2d90        0x8 lib/built-in.o
 .bss.mono.6659
                0x00000000000c2d98        0x8 lib/built-in.o
 .bss.console_size_queried
                0x00000000000c2da0        0x1 lib/built-in.o
 .bss.new_rx_packet
                0x00000000000c2da1        0x1 lib/built-in.o
 *fill*         0x00000000000c2da2        0x6 
 .bss.dhcp_ack  0x00000000000c2da8        0x8 lib/built-in.o
 .bss.new_tx_packet
                0x00000000000c2db0        0x8 lib/built-in.o
 .bss.errno     0x00000000000c2db8        0x4 lib/built-in.o
                0x00000000000c2db8                errno
 *fill*         0x00000000000c2dbc        0x4 
 .bss.___strtok
                0x00000000000c2dc0        0x8 lib/built-in.o
                0x00000000000c2dc0                ___strtok
 .bss.local.5900
                0x00000000000c2dc8       0x18 lib/built-in.o
 .bss.arp_tx_packet_buf
                0x00000000000c2de0      0x640 net/built-in.o
 .bss.arp_wait_packet_ethaddr
                0x00000000000c3420        0x8 net/built-in.o
                0x00000000000c3420                arp_wait_packet_ethaddr
 .bss.arp_tx_packet
                0x00000000000c3428        0x8 net/built-in.o
 .bss.arp_wait_tx_packet_size
                0x00000000000c3430        0x4 net/built-in.o
                0x00000000000c3430                arp_wait_tx_packet_size
 .bss.arp_wait_try
                0x00000000000c3434        0x4 net/built-in.o
                0x00000000000c3434                arp_wait_try
 .bss.net_arp_wait_reply_ip
                0x00000000000c3438        0x8 net/built-in.o
 .bss.net_arp_wait_packet_ip
                0x00000000000c3440        0x8 net/built-in.o
                0x00000000000c3440                net_arp_wait_packet_ip
 .bss.arp_wait_timer_start
                0x00000000000c3448        0x8 net/built-in.o
                0x00000000000c3448                arp_wait_timer_start
 .bss.dhcp_state
                0x00000000000c3450        0x4 net/built-in.o
 *fill*         0x00000000000c3454        0x4 
 .bss.net_hostname
                0x00000000000c3458       0x20 net/built-in.o
                0x00000000000c3458                net_hostname
 .bss.bootp_timeout
                0x00000000000c3478        0x8 net/built-in.o
                0x00000000000c3478                bootp_timeout
 .bss.dhcp_server_ip
                0x00000000000c3480        0x8 net/built-in.o
 .bss.dhcp_option_overload
                0x00000000000c3488        0x1 net/built-in.o
 *fill*         0x00000000000c3489        0x7 
 .bss.time_taken_max
                0x00000000000c3490        0x8 net/built-in.o
 .bss.net_root_path
                0x00000000000c3498       0x40 net/built-in.o
                0x00000000000c3498                net_root_path
 .bss.bootp_ids
                0x00000000000c34d8       0x10 net/built-in.o
                0x00000000000c34d8                bootp_ids
 .bss.bootp_num_ids
                0x00000000000c34e8        0x4 net/built-in.o
                0x00000000000c34e8                bootp_num_ids
 .bss.bootp_try
                0x00000000000c34ec        0x4 net/built-in.o
                0x00000000000c34ec                bootp_try
 .bss.bootp_start
                0x00000000000c34f0        0x8 net/built-in.o
                0x00000000000c34f0                bootp_start
 .bss.dhcp_leasetime
                0x00000000000c34f8        0x4 net/built-in.o
 *fill*         0x00000000000c34fc        0x4 
 .bss.net_nis_domain
                0x00000000000c3500       0x20 net/built-in.o
                0x00000000000c3500                net_nis_domain
 .bss.eth_errno
                0x00000000000c3520        0x4 net/built-in.o
 .bss.env_changed_id.7874
                0x00000000000c3524        0x4 net/built-in.o
 .bss.act.7873  0x00000000000c3528        0x8 net/built-in.o
 .bss.first_failed.7868
                0x00000000000c3530        0x8 net/built-in.o
 .bss.net_ethaddr
                0x00000000000c3538        0x8 net/built-in.o
                0x00000000000c3538                net_ethaddr
 .bss.net_dns_server
                0x00000000000c3540        0x8 net/built-in.o
                0x00000000000c3540                net_dns_server
 .bss.net_state
                0x00000000000c3548        0x4 net/built-in.o
                0x00000000000c3548                net_state
 *fill*         0x00000000000c354c        0x4 
 .bss.net_server_ip
                0x00000000000c3550        0x8 net/built-in.o
                0x00000000000c3550                net_server_ip
 .bss.net_rx_packet
                0x00000000000c3558        0x8 net/built-in.o
                0x00000000000c3558                net_rx_packet
 .bss.net_boot_file_expected_size_in_blocks
                0x00000000000c3560        0x4 net/built-in.o
                0x00000000000c3560                net_boot_file_expected_size_in_blocks
 *fill*         0x00000000000c3564        0x4 
 .bss.net_rx_packets
                0x00000000000c3568       0x20 net/built-in.o
                0x00000000000c3568                net_rx_packets
 .bss.time_start
                0x00000000000c3588       0x10 net/built-in.o
 .bss.net_gateway
                0x00000000000c3598        0x8 net/built-in.o
                0x00000000000c3598                net_gateway
 .bss.net_boot_file_name
                0x00000000000c35a0      0x400 net/built-in.o
                0x00000000000c35a0                net_boot_file_name
 .bss.udp_packet_handler
                0x00000000000c39a0        0x8 net/built-in.o
 .bss.net_dev_exists
                0x00000000000c39a8        0x4 net/built-in.o
 .bss.net_rx_packet_len
                0x00000000000c39ac        0x4 net/built-in.o
                0x00000000000c39ac                net_rx_packet_len
 .bss.net_server_ethaddr
                0x00000000000c39b0        0x8 net/built-in.o
                0x00000000000c39b0                net_server_ethaddr
 .bss.net_null_ethaddr
                0x00000000000c39b8        0x8 net/built-in.o
                0x00000000000c39b8                net_null_ethaddr
 .bss.net_ip_id
                0x00000000000c39c0        0x4 net/built-in.o
 .bss.net_restart_wrap
                0x00000000000c39c4        0x4 net/built-in.o
                0x00000000000c39c4                net_restart_wrap
 .bss.net_try_count
                0x00000000000c39c8        0x4 net/built-in.o
 .bss.net_restarted
                0x00000000000c39cc        0x4 net/built-in.o
 .bss.time_delta
                0x00000000000c39d0        0x8 net/built-in.o
 .bss.arp_packet_handler
                0x00000000000c39d8        0x8 net/built-in.o
 .bss.net_netmask
                0x00000000000c39e0        0x8 net/built-in.o
                0x00000000000c39e0                net_netmask
 .bss.net_pkt_buf
                0x00000000000c39e8     0x1e40 net/built-in.o
 .bss.net_ip    0x00000000000c5828        0x8 net/built-in.o
                0x00000000000c5828                net_ip
 .bss.net_tx_packet
                0x00000000000c5830        0x8 net/built-in.o
                0x00000000000c5830                net_tx_packet
 .bss.time_handler
                0x00000000000c5838        0x8 net/built-in.o
 .bss.push_packet
                0x00000000000c5840        0x8 net/built-in.o
                0x00000000000c5840                push_packet
 .bss.net_boot_file_size
                0x00000000000c5848        0x4 net/built-in.o
                0x00000000000c5848                net_boot_file_size
 .bss.nfs_server_mount_port
                0x00000000000c584c        0x4 net/built-in.o
 .bss.nfs_server_ip
                0x00000000000c5850        0x8 net/built-in.o
 .bss.nfs_filename
                0x00000000000c5858        0x8 net/built-in.o
 .bss.nfs_state
                0x00000000000c5860        0x4 net/built-in.o
 .bss.filefh3_length
                0x00000000000c5864        0x4 net/built-in.o
 .bss.dirfh     0x00000000000c5868       0x20 net/built-in.o
 .bss.rpc_id    0x00000000000c5888        0x8 net/built-in.o
 .bss.fs_mounted
                0x00000000000c5890        0x4 net/built-in.o
 .bss.nfs_len   0x00000000000c5894        0x4 net/built-in.o
 .bss.nfs_server_port
                0x00000000000c5898        0x4 net/built-in.o
 .bss.nfs_download_state
                0x00000000000c589c        0x4 net/built-in.o
 .bss.nfs_path  0x00000000000c58a0        0x8 net/built-in.o
 .bss.nfs_path_buff
                0x00000000000c58a8      0x800 net/built-in.o
 .bss.nfs_timeout_count
                0x00000000000c60a8        0x4 net/built-in.o
 *fill*         0x00000000000c60ac        0x4 
 .bss.filefh    0x00000000000c60b0       0x40 net/built-in.o
 .bss.nfs_our_port
                0x00000000000c60f0        0x4 net/built-in.o
 *fill*         0x00000000000c60f4        0x4 
 .bss.net_ping_ip
                0x00000000000c60f8        0x8 net/built-in.o
                0x00000000000c60f8                net_ping_ip
 .bss.ping_seq_number
                0x00000000000c6100        0x2 net/built-in.o
 *fill*         0x00000000000c6102        0x6 
 .bss.tftp_prev_block
                0x00000000000c6108        0x8 net/built-in.o
 .bss.timeout_count
                0x00000000000c6110        0x4 net/built-in.o
 *fill*         0x00000000000c6114        0x4 
 .bss.tftp_block_wrap
                0x00000000000c6118        0x8 net/built-in.o
 .bss.default_filename
                0x00000000000c6120       0x10 net/built-in.o
 .bss.tftp_remote_port
                0x00000000000c6130        0x4 net/built-in.o
 *fill*         0x00000000000c6134        0x4 
 .bss.tftp_cur_block
                0x00000000000c6138        0x8 net/built-in.o
 .bss.tftp_remote_ip
                0x00000000000c6140        0x8 net/built-in.o
 .bss.tftp_our_port
                0x00000000000c6148        0x4 net/built-in.o
 .bss.tftp_state
                0x00000000000c614c        0x4 net/built-in.o
 .bss.tftp_filename
                0x00000000000c6150       0x80 net/built-in.o
 .bss.tftp_block_wrap_offset
                0x00000000000c61d0        0x8 net/built-in.o
                0x00000000000c61d8                . = ALIGN (0x8)

.dynbss         0x00000000000c61d8        0x0
 .dynbss        0x00000000000c61d8        0x0 arch/arm/cpu/armv8/start.o

.bss_end        0x00000000000c61d8        0x0
 *(.__bss_end)
 .__bss_end     0x00000000000c61d8        0x0 arch/arm/lib/built-in.o
                0x00000000000c61d8                __bss_end

/DISCARD/
 *(.dynsym)
 *(.dynstr*)
 *(.dynamic*)
 *(.plt*)
 *(.interp*)
 *(.gnu*)
LOAD arch/arm/cpu/armv8/start.o
START GROUP
LOAD arch/arm/cpu/built-in.o
LOAD arch/arm/cpu/armv8/built-in.o
LOAD arch/arm/lib/built-in.o
LOAD arch/arm/mach-mvebu/built-in.o
LOAD board/Marvell/common/built-in.o
LOAD board/Marvell/mvebu_armada-37xx/built-in.o
LOAD cmd/built-in.o
LOAD common/built-in.o
LOAD disk/built-in.o
LOAD drivers/built-in.o
LOAD drivers/dma/built-in.o
LOAD drivers/gpio/built-in.o
LOAD drivers/i2c/built-in.o
LOAD drivers/mmc/built-in.o
LOAD drivers/mtd/built-in.o
LOAD drivers/mtd/onenand/built-in.o
LOAD drivers/mtd/spi-nand/built-in.o
LOAD drivers/mtd/spi/built-in.o
LOAD drivers/net/built-in.o
LOAD drivers/net/phy/built-in.o
LOAD drivers/pci/built-in.o
LOAD drivers/power/built-in.o
LOAD drivers/power/battery/built-in.o
LOAD drivers/power/domain/built-in.o
LOAD drivers/power/fuel_gauge/built-in.o
LOAD drivers/power/mfd/built-in.o
LOAD drivers/power/pmic/built-in.o
LOAD drivers/power/regulator/built-in.o
LOAD drivers/serial/built-in.o
LOAD drivers/spi/built-in.o
LOAD drivers/usb/common/built-in.o
LOAD drivers/usb/dwc3/built-in.o
LOAD drivers/usb/emul/built-in.o
LOAD drivers/usb/eth/built-in.o
LOAD drivers/usb/gadget/built-in.o
LOAD drivers/usb/gadget/udc/built-in.o
LOAD drivers/usb/host/built-in.o
LOAD drivers/usb/musb-new/built-in.o
LOAD drivers/usb/musb/built-in.o
LOAD drivers/usb/phy/built-in.o
LOAD drivers/usb/ulpi/built-in.o
LOAD fs/built-in.o
LOAD lib/built-in.o
LOAD net/built-in.o
LOAD test/built-in.o
LOAD test/dm/built-in.o
END GROUP
LOAD /misc/datamate/toolchain/gcc-linaro-5.2-2015.11-2-x86_64_aarch64-linux-gnu/bin/../lib/gcc/aarch64-linux-gnu/5.2.1/libgcc.a
OUTPUT(u-boot elf64-littleaarch64)

.debug_line     0x0000000000000000    0x2f3c0
 .debug_line    0x0000000000000000       0x85 arch/arm/cpu/armv8/start.o
 .debug_line    0x0000000000000085      0xb00 arch/arm/cpu/armv8/built-in.o
 .debug_line    0x0000000000000b85      0xad7 arch/arm/lib/built-in.o
 .debug_line    0x000000000000165c      0x960 arch/arm/mach-mvebu/built-in.o
 .debug_line    0x0000000000001fbc      0x21c board/Marvell/mvebu_armada-37xx/built-in.o
 .debug_line    0x00000000000021d8     0x5d26 cmd/built-in.o
 .debug_line    0x0000000000007efe     0x7dd3 common/built-in.o
 .debug_line    0x000000000000fcd1     0x1193 disk/built-in.o
 .debug_line    0x0000000000010e64     0x4396 drivers/built-in.o
 .debug_line    0x00000000000151fa      0xa25 drivers/gpio/built-in.o
 .debug_line    0x0000000000015c1f      0x774 drivers/i2c/built-in.o
 .debug_line    0x0000000000016393     0x16bf drivers/mmc/built-in.o
 .debug_line    0x0000000000017a52      0x72f drivers/mtd/built-in.o
 .debug_line    0x0000000000018181      0xc82 drivers/mtd/spi/built-in.o
 .debug_line    0x0000000000018e03     0x16fa drivers/net/built-in.o
 .debug_line    0x000000000001a4fd     0x1134 drivers/net/phy/built-in.o
 .debug_line    0x000000000001b631     0x1423 drivers/pci/built-in.o
 .debug_line    0x000000000001ca54      0x94b drivers/power/regulator/built-in.o
 .debug_line    0x000000000001d39f      0x6b7 drivers/serial/built-in.o
 .debug_line    0x000000000001da56      0x7e3 drivers/spi/built-in.o
 .debug_line    0x000000000001e239     0x19d2 drivers/usb/eth/built-in.o
 .debug_line    0x000000000001fc0b     0x22ca drivers/usb/host/built-in.o
 .debug_line    0x0000000000021ed5     0x2d64 fs/built-in.o
 .debug_line    0x0000000000024c39     0x846d lib/built-in.o
 .debug_line    0x000000000002d0a6     0x221a net/built-in.o
 .debug_line    0x000000000002f2c0      0x100 test/dm/built-in.o

.debug_info     0x0000000000000000   0x13d7ea
 .debug_info    0x0000000000000000       0x6f arch/arm/cpu/armv8/start.o
 .debug_info    0x000000000000006f     0x2a4e arch/arm/cpu/armv8/built-in.o
 .debug_info    0x0000000000002abd     0x3e4a arch/arm/lib/built-in.o
 .debug_info    0x0000000000006907     0x3c34 arch/arm/mach-mvebu/built-in.o
 .debug_info    0x000000000000a53b     0x11fb board/Marvell/mvebu_armada-37xx/built-in.o
 .debug_info    0x000000000000b736    0x299cb cmd/built-in.o
 .debug_info    0x0000000000035101    0x31ba9 common/built-in.o
 .debug_info    0x0000000000066caa     0x6dbd disk/built-in.o
 .debug_info    0x000000000006da67    0x1e695 drivers/built-in.o
 .debug_info    0x000000000008c0fc     0x433e drivers/gpio/built-in.o
 .debug_info    0x000000000009043a     0x3c8d drivers/i2c/built-in.o
 .debug_info    0x00000000000940c7     0xaf2e drivers/mmc/built-in.o
 .debug_info    0x000000000009eff5     0x1eee drivers/mtd/built-in.o
 .debug_info    0x00000000000a0ee3     0x5a57 drivers/mtd/spi/built-in.o
 .debug_info    0x00000000000a693a     0xe2b9 drivers/net/built-in.o
 .debug_info    0x00000000000b4bf3     0x7c67 drivers/net/phy/built-in.o
 .debug_info    0x00000000000bc85a     0xa3ae drivers/pci/built-in.o
 .debug_info    0x00000000000c6c08     0x4815 drivers/power/regulator/built-in.o
 .debug_info    0x00000000000cb41d     0x2bb7 drivers/serial/built-in.o
 .debug_info    0x00000000000cdfd4     0x4715 drivers/spi/built-in.o
 .debug_info    0x00000000000d26e9     0xf4b9 drivers/usb/eth/built-in.o
 .debug_info    0x00000000000e1ba2    0x1375d drivers/usb/host/built-in.o
 .debug_info    0x00000000000f52ff    0x12390 fs/built-in.o
 .debug_info    0x000000000010768f    0x29a0c lib/built-in.o
 .debug_info    0x000000000013109b     0xc27e net/built-in.o
 .debug_info    0x000000000013d319      0x4d1 test/dm/built-in.o

.debug_abbrev   0x0000000000000000    0x2ba0c
 .debug_abbrev  0x0000000000000000       0x14 arch/arm/cpu/armv8/start.o
 .debug_abbrev  0x0000000000000014      0x90f arch/arm/cpu/armv8/built-in.o
 .debug_abbrev  0x0000000000000923      0xd34 arch/arm/lib/built-in.o
 .debug_abbrev  0x0000000000001657      0xb6a arch/arm/mach-mvebu/built-in.o
 .debug_abbrev  0x00000000000021c1      0x2b9 board/Marvell/mvebu_armada-37xx/built-in.o
 .debug_abbrev  0x000000000000247a     0x688f cmd/built-in.o
 .debug_abbrev  0x0000000000008d09     0x744d common/built-in.o
 .debug_abbrev  0x0000000000010156     0x112f disk/built-in.o
 .debug_abbrev  0x0000000000011285     0x478d drivers/built-in.o
 .debug_abbrev  0x0000000000015a12      0x787 drivers/gpio/built-in.o
 .debug_abbrev  0x0000000000016199      0x875 drivers/i2c/built-in.o
 .debug_abbrev  0x0000000000016a0e     0x146e drivers/mmc/built-in.o
 .debug_abbrev  0x0000000000017e7c      0x542 drivers/mtd/built-in.o
 .debug_abbrev  0x00000000000183be      0xc80 drivers/mtd/spi/built-in.o
 .debug_abbrev  0x000000000001903e      0x983 drivers/net/built-in.o
 .debug_abbrev  0x00000000000199c1      0xc75 drivers/net/phy/built-in.o
 .debug_abbrev  0x000000000001a636     0x1334 drivers/pci/built-in.o
 .debug_abbrev  0x000000000001b96a      0x986 drivers/power/regulator/built-in.o
 .debug_abbrev  0x000000000001c2f0      0x788 drivers/serial/built-in.o
 .debug_abbrev  0x000000000001ca78      0x835 drivers/spi/built-in.o
 .debug_abbrev  0x000000000001d2ad     0x174b drivers/usb/eth/built-in.o
 .debug_abbrev  0x000000000001e9f8     0x1f11 drivers/usb/host/built-in.o
 .debug_abbrev  0x0000000000020909     0x1c8a fs/built-in.o
 .debug_abbrev  0x0000000000022593     0x74e4 lib/built-in.o
 .debug_abbrev  0x0000000000029a77     0x1de5 net/built-in.o
 .debug_abbrev  0x000000000002b85c      0x1b0 test/dm/built-in.o

.debug_aranges  0x0000000000000000     0xad60
 .debug_aranges
                0x0000000000000000       0x30 arch/arm/cpu/armv8/start.o
 .debug_aranges
                0x0000000000000030      0x370 arch/arm/cpu/armv8/built-in.o
 .debug_aranges
                0x00000000000003a0      0x3b0 arch/arm/lib/built-in.o
 .debug_aranges
                0x0000000000000750      0x230 arch/arm/mach-mvebu/built-in.o
 .debug_aranges
                0x0000000000000980       0x60 board/Marvell/mvebu_armada-37xx/built-in.o
 .debug_aranges
                0x00000000000009e0     0x1180 cmd/built-in.o
 .debug_aranges
                0x0000000000001b60     0x1d60 common/built-in.o
 .debug_aranges
                0x00000000000038c0      0x350 disk/built-in.o
 .debug_aranges
                0x0000000000003c10     0x1000 drivers/built-in.o
 .debug_aranges
                0x0000000000004c10      0x340 drivers/gpio/built-in.o
 .debug_aranges
                0x0000000000004f50      0x1f0 drivers/i2c/built-in.o
 .debug_aranges
                0x0000000000005140      0x3c0 drivers/mmc/built-in.o
 .debug_aranges
                0x0000000000005500      0x240 drivers/mtd/built-in.o
 .debug_aranges
                0x0000000000005740      0x270 drivers/mtd/spi/built-in.o
 .debug_aranges
                0x00000000000059b0      0x3c0 drivers/net/built-in.o
 .debug_aranges
                0x0000000000005d70      0x3b0 drivers/net/phy/built-in.o
 .debug_aranges
                0x0000000000006120      0x590 drivers/pci/built-in.o
 .debug_aranges
                0x00000000000066b0      0x240 drivers/power/regulator/built-in.o
 .debug_aranges
                0x00000000000068f0      0x220 drivers/serial/built-in.o
 .debug_aranges
                0x0000000000006b10      0x1e0 drivers/spi/built-in.o
 .debug_aranges
                0x0000000000006cf0      0x780 drivers/usb/eth/built-in.o
 .debug_aranges
                0x0000000000007470      0x680 drivers/usb/host/built-in.o
 .debug_aranges
                0x0000000000007af0      0x840 fs/built-in.o
 .debug_aranges
                0x0000000000008330     0x2210 lib/built-in.o
 .debug_aranges
                0x000000000000a540      0x7c0 net/built-in.o
 .debug_aranges
                0x000000000000ad00       0x60 test/dm/built-in.o

.comment        0x0000000000000000       0x2f
 .comment       0x0000000000000000       0x2f arch/arm/cpu/armv8/built-in.o
                                         0xf0 (size before relaxing)
 .comment       0x000000000000002f      0x180 arch/arm/lib/built-in.o
 .comment       0x000000000000002f       0xf0 arch/arm/mach-mvebu/built-in.o
 .comment       0x000000000000002f       0x30 board/Marvell/mvebu_armada-37xx/built-in.o
 .comment       0x000000000000002f      0x7b0 cmd/built-in.o
 .comment       0x000000000000002f      0x6c0 common/built-in.o
 .comment       0x000000000000002f       0xf0 disk/built-in.o
 .comment       0x000000000000002f      0x510 drivers/built-in.o
 .comment       0x000000000000002f       0x60 drivers/gpio/built-in.o
 .comment       0x000000000000002f       0x60 drivers/i2c/built-in.o
 .comment       0x000000000000002f       0xf0 drivers/mmc/built-in.o
 .comment       0x000000000000002f       0x60 drivers/mtd/built-in.o
 .comment       0x000000000000002f       0xf0 drivers/mtd/spi/built-in.o
 .comment       0x000000000000002f       0x60 drivers/net/built-in.o
 .comment       0x000000000000002f       0x90 drivers/net/phy/built-in.o
 .comment       0x000000000000002f      0x120 drivers/pci/built-in.o
 .comment       0x000000000000002f       0x90 drivers/power/regulator/built-in.o
 .comment       0x000000000000002f       0x60 drivers/serial/built-in.o
 .comment       0x000000000000002f       0x60 drivers/spi/built-in.o
 .comment       0x000000000000002f      0x120 drivers/usb/eth/built-in.o
 .comment       0x000000000000002f      0x150 drivers/usb/host/built-in.o
 .comment       0x000000000000002f      0x1b0 fs/built-in.o
 .comment       0x000000000000002f      0xa20 lib/built-in.o
 .comment       0x000000000000002f      0x1b0 net/built-in.o
 .comment       0x000000000000002f       0x30 test/dm/built-in.o

.note.GNU-stack
                0x0000000000000000        0x0
 .note.GNU-stack
                0x0000000000000000        0x0 arch/arm/cpu/armv8/built-in.o
 .note.GNU-stack
                0x0000000000000000        0x0 arch/arm/lib/built-in.o
 .note.GNU-stack
                0x0000000000000000        0x0 arch/arm/mach-mvebu/built-in.o
 .note.GNU-stack
                0x0000000000000000        0x0 board/Marvell/mvebu_armada-37xx/built-in.o
 .note.GNU-stack
                0x0000000000000000        0x0 cmd/built-in.o
 .note.GNU-stack
                0x0000000000000000        0x0 common/built-in.o
 .note.GNU-stack
                0x0000000000000000        0x0 disk/built-in.o
 .note.GNU-stack
                0x0000000000000000        0x0 drivers/built-in.o
 .note.GNU-stack
                0x0000000000000000        0x0 drivers/gpio/built-in.o
 .note.GNU-stack
                0x0000000000000000        0x0 drivers/i2c/built-in.o
 .note.GNU-stack
                0x0000000000000000        0x0 drivers/mmc/built-in.o
 .note.GNU-stack
                0x0000000000000000        0x0 drivers/mtd/built-in.o
 .note.GNU-stack
                0x0000000000000000        0x0 drivers/mtd/spi/built-in.o
 .note.GNU-stack
                0x0000000000000000        0x0 drivers/net/built-in.o
 .note.GNU-stack
                0x0000000000000000        0x0 drivers/net/phy/built-in.o
 .note.GNU-stack
                0x0000000000000000        0x0 drivers/pci/built-in.o
 .note.GNU-stack
                0x0000000000000000        0x0 drivers/power/regulator/built-in.o
 .note.GNU-stack
                0x0000000000000000        0x0 drivers/serial/built-in.o
 .note.GNU-stack
                0x0000000000000000        0x0 drivers/spi/built-in.o
 .note.GNU-stack
                0x0000000000000000        0x0 drivers/usb/eth/built-in.o
 .note.GNU-stack
                0x0000000000000000        0x0 drivers/usb/host/built-in.o
 .note.GNU-stack
                0x0000000000000000        0x0 fs/built-in.o
 .note.GNU-stack
                0x0000000000000000        0x0 lib/built-in.o
 .note.GNU-stack
                0x0000000000000000        0x0 net/built-in.o
 .note.GNU-stack
                0x0000000000000000        0x0 test/dm/built-in.o

.debug_frame    0x0000000000000000    0x1b168
 .debug_frame   0x0000000000000000      0x560 arch/arm/cpu/armv8/built-in.o
 .debug_frame   0x0000000000000560      0x4d8 arch/arm/lib/built-in.o
 .debug_frame   0x0000000000000a38      0x408 arch/arm/mach-mvebu/built-in.o
 .debug_frame   0x0000000000000e40       0xc8 board/Marvell/mvebu_armada-37xx/built-in.o
 .debug_frame   0x0000000000000f08     0x2a38 cmd/built-in.o
 .debug_frame   0x0000000000003940     0x4c10 common/built-in.o
 .debug_frame   0x0000000000008550      0xa30 disk/built-in.o
 .debug_frame   0x0000000000008f80     0x2600 drivers/built-in.o
 .debug_frame   0x000000000000b580      0x8e8 drivers/gpio/built-in.o
 .debug_frame   0x000000000000be68      0x588 drivers/i2c/built-in.o
 .debug_frame   0x000000000000c3f0      0xa08 drivers/mmc/built-in.o
 .debug_frame   0x000000000000cdf8      0x490 drivers/mtd/built-in.o
 .debug_frame   0x000000000000d288      0x588 drivers/mtd/spi/built-in.o
 .debug_frame   0x000000000000d810      0xa58 drivers/net/built-in.o
 .debug_frame   0x000000000000e268      0xab0 drivers/net/phy/built-in.o
 .debug_frame   0x000000000000ed18      0xdf0 drivers/pci/built-in.o
 .debug_frame   0x000000000000fb08      0x650 drivers/power/regulator/built-in.o
 .debug_frame   0x0000000000010158      0x450 drivers/serial/built-in.o
 .debug_frame   0x00000000000105a8      0x500 drivers/spi/built-in.o
 .debug_frame   0x0000000000010aa8     0x15a0 drivers/usb/eth/built-in.o
 .debug_frame   0x0000000000012048     0x1118 drivers/usb/host/built-in.o
 .debug_frame   0x0000000000013160     0x16b8 fs/built-in.o
 .debug_frame   0x0000000000014818     0x5338 lib/built-in.o
 .debug_frame   0x0000000000019b50     0x1558 net/built-in.o
 .debug_frame   0x000000000001b0a8       0xc0 test/dm/built-in.o

.debug_str      0x0000000000000000    0x1e893
 .debug_str     0x0000000000000000      0xb64 arch/arm/cpu/armv8/built-in.o
                                       0x1a9f (size before relaxing)
 .debug_str     0x0000000000000b64     0x184d arch/arm/lib/built-in.o
                                       0x3b16 (size before relaxing)
 .debug_str     0x00000000000023b1      0x445 arch/arm/mach-mvebu/built-in.o
                                       0x37c3 (size before relaxing)
 .debug_str     0x00000000000027f6      0x15f board/Marvell/mvebu_armada-37xx/built-in.o
                                        0xfcc (size before relaxing)
 .debug_str     0x0000000000002955     0x4bce cmd/built-in.o
                                      0x191d2 (size before relaxing)
 .debug_str     0x0000000000007523     0x3dee common/built-in.o
                                      0x1e620 (size before relaxing)
 .debug_str     0x000000000000b311      0xcd1 disk/built-in.o
                                       0x3260 (size before relaxing)
 .debug_str     0x000000000000bfe2     0x328c drivers/built-in.o
                                      0x15564 (size before relaxing)
 .debug_str     0x000000000000f26e      0x45c drivers/gpio/built-in.o
                                       0x25b1 (size before relaxing)
 .debug_str     0x000000000000f6ca      0x405 drivers/i2c/built-in.o
                                       0x205c (size before relaxing)
 .debug_str     0x000000000000facf      0x8d8 drivers/mmc/built-in.o
                                       0x5304 (size before relaxing)
 .debug_str     0x00000000000103a7      0x45d drivers/mtd/built-in.o
                                        0xd01 (size before relaxing)
 .debug_str     0x0000000000010804      0x57e drivers/mtd/spi/built-in.o
                                       0x3f16 (size before relaxing)
 .debug_str     0x0000000000010d82     0x1a8b drivers/net/built-in.o
                                       0x3bfc (size before relaxing)
 .debug_str     0x000000000001280d      0x68f drivers/net/phy/built-in.o
                                       0x222f (size before relaxing)
 .debug_str     0x0000000000012e9c      0xeaf drivers/pci/built-in.o
                                       0x5bb9 (size before relaxing)
 .debug_str     0x0000000000013d4b      0x589 drivers/power/regulator/built-in.o
                                       0x370a (size before relaxing)
 .debug_str     0x00000000000142d4      0x31a drivers/serial/built-in.o
                                       0x1e0d (size before relaxing)
 .debug_str     0x00000000000145ee      0x3cf drivers/spi/built-in.o
                                       0x2408 (size before relaxing)
 .debug_str     0x00000000000149bd     0x1212 drivers/usb/eth/built-in.o
                                       0x6893 (size before relaxing)
 .debug_str     0x0000000000015bcf     0x1669 drivers/usb/host/built-in.o
                                       0xa665 (size before relaxing)
 .debug_str     0x0000000000017238     0x1f45 fs/built-in.o
                                       0x7262 (size before relaxing)
 .debug_str     0x000000000001917d     0x428d lib/built-in.o
                                      0x168f7 (size before relaxing)
 .debug_str     0x000000000001d40a     0x1410 net/built-in.o
                                       0x7d12 (size before relaxing)
 .debug_str     0x000000000001e81a       0x79 test/dm/built-in.o
                                        0x4dc (size before relaxing)

.debug_loc      0x0000000000000000   0x10430e
 .debug_loc     0x0000000000000000     0x1dc9 arch/arm/cpu/armv8/built-in.o
 .debug_loc     0x0000000000001dc9      0xeb6 arch/arm/lib/built-in.o
 .debug_loc     0x0000000000002c7f      0xab4 arch/arm/mach-mvebu/built-in.o
 .debug_loc     0x0000000000003733      0x209 board/Marvell/mvebu_armada-37xx/built-in.o
 .debug_loc     0x000000000000393c    0x1c429 cmd/built-in.o
 .debug_loc     0x000000000001fd65    0x26444 common/built-in.o
 .debug_loc     0x00000000000461a9     0x55f0 disk/built-in.o
 .debug_loc     0x000000000004b799    0x141c4 drivers/built-in.o
 .debug_loc     0x000000000005f95d     0x3522 drivers/gpio/built-in.o
 .debug_loc     0x0000000000062e7f     0x2ed0 drivers/i2c/built-in.o
 .debug_loc     0x0000000000065d4f     0x83f5 drivers/mmc/built-in.o
 .debug_loc     0x000000000006e144     0x2d9e drivers/mtd/built-in.o
 .debug_loc     0x0000000000070ee2     0x34b4 drivers/mtd/spi/built-in.o
 .debug_loc     0x0000000000074396     0xe6ea drivers/net/built-in.o
 .debug_loc     0x0000000000082a80     0x7f97 drivers/net/phy/built-in.o
 .debug_loc     0x000000000008aa17     0x7437 drivers/pci/built-in.o
 .debug_loc     0x0000000000091e4e     0x1e9b drivers/power/regulator/built-in.o
 .debug_loc     0x0000000000093ce9     0x12f5 drivers/serial/built-in.o
 .debug_loc     0x0000000000094fde     0x3aa9 drivers/spi/built-in.o
 .debug_loc     0x0000000000098a87     0x9be9 drivers/usb/eth/built-in.o
 .debug_loc     0x00000000000a2670     0xcdaa drivers/usb/host/built-in.o
 .debug_loc     0x00000000000af41a    0x12c33 fs/built-in.o
 .debug_loc     0x00000000000c204d    0x38dc7 lib/built-in.o
 .debug_loc     0x00000000000fae14     0x9058 net/built-in.o
 .debug_loc     0x0000000000103e6c      0x4a2 test/dm/built-in.o

.debug_ranges   0x0000000000000000    0x17270
 .debug_ranges  0x0000000000000000      0x3c0 arch/arm/cpu/armv8/built-in.o
 .debug_ranges  0x00000000000003c0      0x2c0 arch/arm/lib/built-in.o
 .debug_ranges  0x0000000000000680      0x2d0 arch/arm/mach-mvebu/built-in.o
 .debug_ranges  0x0000000000000950       0x50 board/Marvell/mvebu_armada-37xx/built-in.o
 .debug_ranges  0x00000000000009a0     0x2570 cmd/built-in.o
 .debug_ranges  0x0000000000002f10     0x3860 common/built-in.o
 .debug_ranges  0x0000000000006770      0x7b0 disk/built-in.o
 .debug_ranges  0x0000000000006f20     0x23a0 drivers/built-in.o
 .debug_ranges  0x00000000000092c0      0x3c0 drivers/gpio/built-in.o
 .debug_ranges  0x0000000000009680      0x2e0 drivers/i2c/built-in.o
 .debug_ranges  0x0000000000009960      0x9d0 drivers/mmc/built-in.o
 .debug_ranges  0x000000000000a330      0x290 drivers/mtd/built-in.o
 .debug_ranges  0x000000000000a5c0      0x530 drivers/mtd/spi/built-in.o
 .debug_ranges  0x000000000000aaf0     0x13a0 drivers/net/built-in.o
 .debug_ranges  0x000000000000be90      0xe90 drivers/net/phy/built-in.o
 .debug_ranges  0x000000000000cd20      0xa50 drivers/pci/built-in.o
 .debug_ranges  0x000000000000d770      0x270 drivers/power/regulator/built-in.o
 .debug_ranges  0x000000000000d9e0      0x640 drivers/serial/built-in.o
 .debug_ranges  0x000000000000e020      0x410 drivers/spi/built-in.o
 .debug_ranges  0x000000000000e430      0xe90 drivers/usb/eth/built-in.o
 .debug_ranges  0x000000000000f2c0     0x12e0 drivers/usb/host/built-in.o
 .debug_ranges  0x00000000000105a0     0x1be0 fs/built-in.o
 .debug_ranges  0x0000000000012180     0x3ca0 lib/built-in.o
 .debug_ranges  0x0000000000015e20     0x1400 net/built-in.o
 .debug_ranges  0x0000000000017220       0x50 test/dm/built-in.o
